
stm32-moco.elf:     file format elf32-littlearm

Sections:
Idx Name          Size      VMA       LMA       File off  Algn
  0 .isr_vector   0000010c  08002000  08002000  00001000  2**0
                  CONTENTS, ALLOC, LOAD, READONLY, DATA
  1 .text         00006cf4  0800210c  0800210c  0000110c  2**2
                  CONTENTS, ALLOC, LOAD, READONLY, CODE
  2 .rodata       00001368  08008e00  08008e00  00007e00  2**2
                  CONTENTS, ALLOC, LOAD, READONLY, DATA
  3 .ARM.extab    00000000  0800a168  0800a168  0000a22c  2**0
                  CONTENTS, READONLY
  4 .ARM          00000008  0800a168  0800a168  00009168  2**2
                  CONTENTS, ALLOC, LOAD, READONLY, DATA
  5 .preinit_array 00000000  0800a170  0800a170  0000a22c  2**0
                  CONTENTS, ALLOC, LOAD, DATA
  6 .init_array   00000004  0800a170  0800a170  00009170  2**2
                  CONTENTS, ALLOC, LOAD, READONLY, DATA
  7 .fini_array   00000004  0800a174  0800a174  00009174  2**2
                  CONTENTS, ALLOC, LOAD, READONLY, DATA
  8 .data         0000022c  20000000  0800a178  0000a000  2**2
                  CONTENTS, ALLOC, LOAD, DATA
  9 .bss          00001ae8  2000022c  0800a3a4  0000a22c  2**2
                  ALLOC
 10 ._user_heap_stack 00000604  20001d14  0800a3a4  0000ad14  2**0
                  ALLOC
 11 .ARM.attributes 00000029  00000000  00000000  0000a22c  2**0
                  CONTENTS, READONLY
 12 .comment      00000043  00000000  00000000  0000a255  2**0
                  CONTENTS, READONLY
 13 .debug_frame  00000cb0  00000000  00000000  0000a298  2**2
                  CONTENTS, READONLY, DEBUGGING, OCTETS

Disassembly of section .text:

0800210c <__do_global_dtors_aux>:
 800210c:	b510      	push	{r4, lr}
 800210e:	4c05      	ldr	r4, [pc, #20]	@ (8002124 <__do_global_dtors_aux+0x18>)
 8002110:	7823      	ldrb	r3, [r4, #0]
 8002112:	b933      	cbnz	r3, 8002122 <__do_global_dtors_aux+0x16>
 8002114:	4b04      	ldr	r3, [pc, #16]	@ (8002128 <__do_global_dtors_aux+0x1c>)
 8002116:	b113      	cbz	r3, 800211e <__do_global_dtors_aux+0x12>
 8002118:	4804      	ldr	r0, [pc, #16]	@ (800212c <__do_global_dtors_aux+0x20>)
 800211a:	f3af 8000 	nop.w
 800211e:	2301      	movs	r3, #1
 8002120:	7023      	strb	r3, [r4, #0]
 8002122:	bd10      	pop	{r4, pc}
 8002124:	2000022c 	.word	0x2000022c
 8002128:	00000000 	.word	0x00000000
 800212c:	08008de8 	.word	0x08008de8

08002130 <frame_dummy>:
 8002130:	b508      	push	{r3, lr}
 8002132:	4b03      	ldr	r3, [pc, #12]	@ (8002140 <frame_dummy+0x10>)
 8002134:	b11b      	cbz	r3, 800213e <frame_dummy+0xe>
 8002136:	4903      	ldr	r1, [pc, #12]	@ (8002144 <frame_dummy+0x14>)
 8002138:	4803      	ldr	r0, [pc, #12]	@ (8002148 <frame_dummy+0x18>)
 800213a:	f3af 8000 	nop.w
 800213e:	bd08      	pop	{r3, pc}
 8002140:	00000000 	.word	0x00000000
 8002144:	20000230 	.word	0x20000230
 8002148:	08008de8 	.word	0x08008de8

0800214c <strcmp>:
 800214c:	f810 2b01 	ldrb.w	r2, [r0], #1
 8002150:	f811 3b01 	ldrb.w	r3, [r1], #1
 8002154:	2a01      	cmp	r2, #1
 8002156:	bf28      	it	cs
 8002158:	429a      	cmpcs	r2, r3
 800215a:	d0f7      	beq.n	800214c <strcmp>
 800215c:	1ad0      	subs	r0, r2, r3
 800215e:	4770      	bx	lr

08002160 <strlen>:
 8002160:	4603      	mov	r3, r0
 8002162:	f813 2b01 	ldrb.w	r2, [r3], #1
 8002166:	2a00      	cmp	r2, #0
 8002168:	d1fb      	bne.n	8002162 <strlen+0x2>
 800216a:	1a18      	subs	r0, r3, r0
 800216c:	3801      	subs	r0, #1
 800216e:	4770      	bx	lr

08002170 <SystemClock_Config>:
 8002170:	b530      	push	{r4, r5, lr}
 8002172:	b095      	sub	sp, #84	@ 0x54
 8002174:	2214      	movs	r2, #20
 8002176:	2100      	movs	r1, #0
 8002178:	a80c      	add	r0, sp, #48	@ 0x30
 800217a:	f005 fd67 	bl	8007c4c <memset>
 800217e:	2214      	movs	r2, #20
 8002180:	2510      	movs	r5, #16
 8002182:	2100      	movs	r1, #0
 8002184:	eb0d 0002 	add.w	r0, sp, r2
 8002188:	f005 fd60 	bl	8007c4c <memset>
 800218c:	462a      	mov	r2, r5
 800218e:	2100      	movs	r1, #0
 8002190:	a801      	add	r0, sp, #4
 8002192:	f005 fd5b 	bl	8007c4c <memset>
 8002196:	2402      	movs	r4, #2
 8002198:	f44f 3380 	mov.w	r3, #65536	@ 0x10000
 800219c:	2201      	movs	r2, #1
 800219e:	e9cd 4311 	strd	r4, r3, [sp, #68]	@ 0x44
 80021a2:	e9cd 230a 	strd	r2, r3, [sp, #40]	@ 0x28
 80021a6:	f44f 13e0 	mov.w	r3, #1835008	@ 0x1c0000
 80021aa:	a80a      	add	r0, sp, #40	@ 0x28
 80021ac:	920e      	str	r2, [sp, #56]	@ 0x38
 80021ae:	9313      	str	r3, [sp, #76]	@ 0x4c
 80021b0:	f003 fb34 	bl	800581c <HAL_RCC_OscConfig>
 80021b4:	b108      	cbz	r0, 80021ba <SystemClock_Config+0x4a>
 80021b6:	b672      	cpsid	i
 80021b8:	e7fe      	b.n	80021b8 <SystemClock_Config+0x48>
 80021ba:	230f      	movs	r3, #15
 80021bc:	e9cd 3405 	strd	r3, r4, [sp, #20]
 80021c0:	f44f 6380 	mov.w	r3, #1024	@ 0x400
 80021c4:	9007      	str	r0, [sp, #28]
 80021c6:	e9cd 3008 	strd	r3, r0, [sp, #32]
 80021ca:	4621      	mov	r1, r4
 80021cc:	a805      	add	r0, sp, #20
 80021ce:	f003 fce7 	bl	8005ba0 <HAL_RCC_ClockConfig>
 80021d2:	b108      	cbz	r0, 80021d8 <SystemClock_Config+0x68>
 80021d4:	b672      	cpsid	i
 80021d6:	e7fe      	b.n	80021d6 <SystemClock_Config+0x66>
 80021d8:	9004      	str	r0, [sp, #16]
 80021da:	a801      	add	r0, sp, #4
 80021dc:	9501      	str	r5, [sp, #4]
 80021de:	f003 fd7b 	bl	8005cd8 <HAL_RCCEx_PeriphCLKConfig>
 80021e2:	b108      	cbz	r0, 80021e8 <SystemClock_Config+0x78>
 80021e4:	b672      	cpsid	i
 80021e6:	e7fe      	b.n	80021e6 <SystemClock_Config+0x76>
 80021e8:	b015      	add	sp, #84	@ 0x54
 80021ea:	bd30      	pop	{r4, r5, pc}

080021ec <main>:
 80021ec:	b580      	push	{r7, lr}
 80021ee:	b09a      	sub	sp, #104	@ 0x68
 80021f0:	f002 fb22 	bl	8004838 <HAL_Init>
 80021f4:	f7ff ffbc 	bl	8002170 <SystemClock_Config>
 80021f8:	2210      	movs	r2, #16
 80021fa:	2100      	movs	r1, #0
 80021fc:	a812      	add	r0, sp, #72	@ 0x48
 80021fe:	f005 fd25 	bl	8007c4c <memset>
 8002202:	4ba4      	ldr	r3, [pc, #656]	@ (8002494 <main+0x2a8>)
 8002204:	2400      	movs	r4, #0
 8002206:	699a      	ldr	r2, [r3, #24]
 8002208:	2501      	movs	r5, #1
 800220a:	f042 0210 	orr.w	r2, r2, #16
 800220e:	619a      	str	r2, [r3, #24]
 8002210:	2602      	movs	r6, #2
 8002212:	f44f 4800 	mov.w	r8, #32768	@ 0x8000
 8002216:	699a      	ldr	r2, [r3, #24]
 8002218:	f44f 4100 	mov.w	r1, #32768	@ 0x8000
 800221c:	f002 0210 	and.w	r2, r2, #16
 8002220:	9201      	str	r2, [sp, #4]
 8002222:	9a01      	ldr	r2, [sp, #4]
 8002224:	699a      	ldr	r2, [r3, #24]
 8002226:	489c      	ldr	r0, [pc, #624]	@ (8002498 <main+0x2ac>)
 8002228:	f042 0220 	orr.w	r2, r2, #32
 800222c:	619a      	str	r2, [r3, #24]
 800222e:	699a      	ldr	r2, [r3, #24]
 8002230:	f44f 6780 	mov.w	r7, #1024	@ 0x400
 8002234:	f002 0220 	and.w	r2, r2, #32
 8002238:	9202      	str	r2, [sp, #8]
 800223a:	9a02      	ldr	r2, [sp, #8]
 800223c:	699a      	ldr	r2, [r3, #24]
 800223e:	f042 0204 	orr.w	r2, r2, #4
 8002242:	619a      	str	r2, [r3, #24]
 8002244:	699a      	ldr	r2, [r3, #24]
 8002246:	f002 0204 	and.w	r2, r2, #4
 800224a:	9203      	str	r2, [sp, #12]
 800224c:	9a03      	ldr	r2, [sp, #12]
 800224e:	699a      	ldr	r2, [r3, #24]
 8002250:	f042 0208 	orr.w	r2, r2, #8
 8002254:	619a      	str	r2, [r3, #24]
 8002256:	699b      	ldr	r3, [r3, #24]
 8002258:	2200      	movs	r2, #0
 800225a:	f003 0308 	and.w	r3, r3, #8
 800225e:	9304      	str	r3, [sp, #16]
 8002260:	9b04      	ldr	r3, [sp, #16]
 8002262:	f002 fc5d 	bl	8004b20 <HAL_GPIO_WritePin>
 8002266:	2200      	movs	r2, #0
 8002268:	f641 2128 	movw	r1, #6696	@ 0x1a28
 800226c:	488b      	ldr	r0, [pc, #556]	@ (800249c <main+0x2b0>)
 800226e:	f002 fc57 	bl	8004b20 <HAL_GPIO_WritePin>
 8002272:	2200      	movs	r2, #0
 8002274:	f44f 4100 	mov.w	r1, #32768	@ 0x8000
 8002278:	4889      	ldr	r0, [pc, #548]	@ (80024a0 <main+0x2b4>)
 800227a:	f002 fc51 	bl	8004b20 <HAL_GPIO_WritePin>
 800227e:	4886      	ldr	r0, [pc, #536]	@ (8002498 <main+0x2ac>)
 8002280:	a912      	add	r1, sp, #72	@ 0x48
 8002282:	e9cd 8512 	strd	r8, r5, [sp, #72]	@ 0x48
 8002286:	e9cd 4614 	strd	r4, r6, [sp, #80]	@ 0x50
 800228a:	f002 fb6f 	bl	800496c <HAL_GPIO_Init>
 800228e:	233f      	movs	r3, #63	@ 0x3f
 8002290:	4883      	ldr	r0, [pc, #524]	@ (80024a0 <main+0x2b4>)
 8002292:	a912      	add	r1, sp, #72	@ 0x48
 8002294:	e9cd 3412 	strd	r3, r4, [sp, #72]	@ 0x48
 8002298:	9514      	str	r5, [sp, #80]	@ 0x50
 800229a:	f002 fb67 	bl	800496c <HAL_GPIO_Init>
 800229e:	23c0      	movs	r3, #192	@ 0xc0
 80022a0:	487f      	ldr	r0, [pc, #508]	@ (80024a0 <main+0x2b4>)
 80022a2:	a912      	add	r1, sp, #72	@ 0x48
 80022a4:	e9cd 3412 	strd	r3, r4, [sp, #72]	@ 0x48
 80022a8:	9514      	str	r5, [sp, #80]	@ 0x50
 80022aa:	f002 fb5f 	bl	800496c <HAL_GPIO_Init>
 80022ae:	487b      	ldr	r0, [pc, #492]	@ (800249c <main+0x2b0>)
 80022b0:	a912      	add	r1, sp, #72	@ 0x48
 80022b2:	9514      	str	r5, [sp, #80]	@ 0x50
 80022b4:	e9cd 7412 	strd	r7, r4, [sp, #72]	@ 0x48
 80022b8:	f002 fb58 	bl	800496c <HAL_GPIO_Init>
 80022bc:	f641 2328 	movw	r3, #6696	@ 0x1a28
 80022c0:	4876      	ldr	r0, [pc, #472]	@ (800249c <main+0x2b0>)
 80022c2:	a912      	add	r1, sp, #72	@ 0x48
 80022c4:	e9cd 3512 	strd	r3, r5, [sp, #72]	@ 0x48
 80022c8:	e9cd 4614 	strd	r4, r6, [sp, #80]	@ 0x50
 80022cc:	f002 fb4e 	bl	800496c <HAL_GPIO_Init>
 80022d0:	e9cd 8512 	strd	r8, r5, [sp, #72]	@ 0x48
 80022d4:	f240 559f 	movw	r5, #1439	@ 0x59f
 80022d8:	4871      	ldr	r0, [pc, #452]	@ (80024a0 <main+0x2b4>)
 80022da:	a912      	add	r1, sp, #72	@ 0x48
 80022dc:	e9cd 4614 	strd	r4, r6, [sp, #80]	@ 0x50
 80022e0:	f002 fb44 	bl	800496c <HAL_GPIO_Init>
 80022e4:	ae0b      	add	r6, sp, #44	@ 0x2c
 80022e6:	2210      	movs	r2, #16
 80022e8:	4621      	mov	r1, r4
 80022ea:	a807      	add	r0, sp, #28
 80022ec:	f005 fcae 	bl	8007c4c <memset>
 80022f0:	221c      	movs	r2, #28
 80022f2:	4621      	mov	r1, r4
 80022f4:	4630      	mov	r0, r6
 80022f6:	e9cd 4405 	strd	r4, r4, [sp, #20]
 80022fa:	f005 fca7 	bl	8007c4c <memset>
 80022fe:	2220      	movs	r2, #32
 8002300:	4621      	mov	r1, r4
 8002302:	a812      	add	r0, sp, #72	@ 0x48
 8002304:	f005 fca2 	bl	8007c4c <memset>
 8002308:	4a66      	ldr	r2, [pc, #408]	@ (80024a4 <main+0x2b8>)
 800230a:	4b67      	ldr	r3, [pc, #412]	@ (80024a8 <main+0x2bc>)
 800230c:	4610      	mov	r0, r2
 800230e:	e9c2 5403 	strd	r5, r4, [r2, #12]
 8002312:	e9c2 4405 	strd	r4, r4, [r2, #20]
 8002316:	6013      	str	r3, [r2, #0]
 8002318:	6054      	str	r4, [r2, #4]
 800231a:	6094      	str	r4, [r2, #8]
 800231c:	f003 fdfc 	bl	8005f18 <HAL_TIM_Base_Init>
 8002320:	b108      	cbz	r0, 8002326 <main+0x13a>
 8002322:	b672      	cpsid	i
 8002324:	e7fe      	b.n	8002324 <main+0x138>
 8002326:	f44f 5380 	mov.w	r3, #4096	@ 0x1000
 800232a:	485e      	ldr	r0, [pc, #376]	@ (80024a4 <main+0x2b8>)
 800232c:	a907      	add	r1, sp, #28
 800232e:	9307      	str	r3, [sp, #28]
 8002330:	f003 fed8 	bl	80060e4 <HAL_TIM_ConfigClockSource>
 8002334:	b108      	cbz	r0, 800233a <main+0x14e>
 8002336:	b672      	cpsid	i
 8002338:	e7fe      	b.n	8002338 <main+0x14c>
 800233a:	485a      	ldr	r0, [pc, #360]	@ (80024a4 <main+0x2b8>)
 800233c:	f003 fe18 	bl	8005f70 <HAL_TIM_PWM_Init>
 8002340:	b108      	cbz	r0, 8002346 <main+0x15a>
 8002342:	b672      	cpsid	i
 8002344:	e7fe      	b.n	8002344 <main+0x158>
 8002346:	e9cd 0005 	strd	r0, r0, [sp, #20]
 800234a:	a905      	add	r1, sp, #20
 800234c:	4855      	ldr	r0, [pc, #340]	@ (80024a4 <main+0x2b8>)
 800234e:	f004 f81b 	bl	8006388 <HAL_TIMEx_MasterConfigSynchronization>
 8002352:	4602      	mov	r2, r0
 8002354:	b108      	cbz	r0, 800235a <main+0x16e>
 8002356:	b672      	cpsid	i
 8002358:	e7fe      	b.n	8002358 <main+0x16c>
 800235a:	2360      	movs	r3, #96	@ 0x60
 800235c:	e9cd 000d 	strd	r0, r0, [sp, #52]	@ 0x34
 8002360:	e9cd 300b 	strd	r3, r0, [sp, #44]	@ 0x2c
 8002364:	e9cd 000f 	strd	r0, r0, [sp, #60]	@ 0x3c
 8002368:	9011      	str	r0, [sp, #68]	@ 0x44
 800236a:	4631      	mov	r1, r6
 800236c:	484d      	ldr	r0, [pc, #308]	@ (80024a4 <main+0x2b8>)
 800236e:	f003 fe57 	bl	8006020 <HAL_TIM_PWM_ConfigChannel>
 8002372:	b108      	cbz	r0, 8002378 <main+0x18c>
 8002374:	b672      	cpsid	i
 8002376:	e7fe      	b.n	8002376 <main+0x18a>
 8002378:	2204      	movs	r2, #4
 800237a:	4631      	mov	r1, r6
 800237c:	4849      	ldr	r0, [pc, #292]	@ (80024a4 <main+0x2b8>)
 800237e:	f003 fe4f 	bl	8006020 <HAL_TIM_PWM_ConfigChannel>
 8002382:	b108      	cbz	r0, 8002388 <main+0x19c>
 8002384:	b672      	cpsid	i
 8002386:	e7fe      	b.n	8002386 <main+0x19a>
 8002388:	2208      	movs	r2, #8
 800238a:	4631      	mov	r1, r6
 800238c:	4845      	ldr	r0, [pc, #276]	@ (80024a4 <main+0x2b8>)
 800238e:	f003 fe47 	bl	8006020 <HAL_TIM_PWM_ConfigChannel>
 8002392:	b108      	cbz	r0, 8002398 <main+0x1ac>
 8002394:	b672      	cpsid	i
 8002396:	e7fe      	b.n	8002396 <main+0x1aa>
 8002398:	f44f 5300 	mov.w	r3, #8192	@ 0x2000
 800239c:	e9cd 0012 	strd	r0, r0, [sp, #72]	@ 0x48
 80023a0:	e9cd 0014 	strd	r0, r0, [sp, #80]	@ 0x50
 80023a4:	9016      	str	r0, [sp, #88]	@ 0x58
 80023a6:	9019      	str	r0, [sp, #100]	@ 0x64
 80023a8:	a912      	add	r1, sp, #72	@ 0x48
 80023aa:	483e      	ldr	r0, [pc, #248]	@ (80024a4 <main+0x2b8>)
 80023ac:	9317      	str	r3, [sp, #92]	@ 0x5c
 80023ae:	f004 f819 	bl	80063e4 <HAL_TIMEx_ConfigBreakDeadTime>
 80023b2:	4604      	mov	r4, r0
 80023b4:	b108      	cbz	r0, 80023ba <main+0x1ce>
 80023b6:	b672      	cpsid	i
 80023b8:	e7fe      	b.n	80023b8 <main+0x1cc>
 80023ba:	f44f 6300 	mov.w	r3, #2048	@ 0x800
 80023be:	a912      	add	r1, sp, #72	@ 0x48
 80023c0:	9019      	str	r0, [sp, #100]	@ 0x64
 80023c2:	9015      	str	r0, [sp, #84]	@ 0x54
 80023c4:	4837      	ldr	r0, [pc, #220]	@ (80024a4 <main+0x2b8>)
 80023c6:	e9cd 3712 	strd	r3, r7, [sp, #72]	@ 0x48
 80023ca:	f004 f80b 	bl	80063e4 <HAL_TIMEx_ConfigBreakDeadTime>
 80023ce:	4835      	ldr	r0, [pc, #212]	@ (80024a4 <main+0x2b8>)
 80023d0:	f000 fb3e 	bl	8002a50 <HAL_TIM_MspPostInit>
 80023d4:	4f35      	ldr	r7, [pc, #212]	@ (80024ac <main+0x2c0>)
 80023d6:	940b      	str	r4, [sp, #44]	@ 0x2c
 80023d8:	221c      	movs	r2, #28
 80023da:	4621      	mov	r1, r4
 80023dc:	6074      	str	r4, [r6, #4]
 80023de:	a812      	add	r0, sp, #72	@ 0x48
 80023e0:	f005 fc34 	bl	8007c4c <memset>
 80023e4:	4b32      	ldr	r3, [pc, #200]	@ (80024b0 <main+0x2c4>)
 80023e6:	4638      	mov	r0, r7
 80023e8:	e9c7 3400 	strd	r3, r4, [r7]
 80023ec:	e9c7 4502 	strd	r4, r5, [r7, #8]
 80023f0:	613c      	str	r4, [r7, #16]
 80023f2:	61bc      	str	r4, [r7, #24]
 80023f4:	f003 fdbc 	bl	8005f70 <HAL_TIM_PWM_Init>
 80023f8:	b108      	cbz	r0, 80023fe <main+0x212>
 80023fa:	b672      	cpsid	i
 80023fc:	e7fe      	b.n	80023fc <main+0x210>
 80023fe:	e9cd 000b 	strd	r0, r0, [sp, #44]	@ 0x2c
 8002402:	4631      	mov	r1, r6
 8002404:	4638      	mov	r0, r7
 8002406:	f003 ffbf 	bl	8006388 <HAL_TIMEx_MasterConfigSynchronization>
 800240a:	b108      	cbz	r0, 8002410 <main+0x224>
 800240c:	b672      	cpsid	i
 800240e:	e7fe      	b.n	800240e <main+0x222>
 8002410:	2200      	movs	r2, #0
 8002412:	2760      	movs	r7, #96	@ 0x60
 8002414:	4825      	ldr	r0, [pc, #148]	@ (80024ac <main+0x2c0>)
 8002416:	a912      	add	r1, sp, #72	@ 0x48
 8002418:	e9cd 7212 	strd	r7, r2, [sp, #72]	@ 0x48
 800241c:	9214      	str	r2, [sp, #80]	@ 0x50
 800241e:	9216      	str	r2, [sp, #88]	@ 0x58
 8002420:	f003 fdfe 	bl	8006020 <HAL_TIM_PWM_ConfigChannel>
 8002424:	b108      	cbz	r0, 800242a <main+0x23e>
 8002426:	b672      	cpsid	i
 8002428:	e7fe      	b.n	8002428 <main+0x23c>
 800242a:	2208      	movs	r2, #8
 800242c:	481f      	ldr	r0, [pc, #124]	@ (80024ac <main+0x2c0>)
 800242e:	a912      	add	r1, sp, #72	@ 0x48
 8002430:	f003 fdf6 	bl	8006020 <HAL_TIM_PWM_ConfigChannel>
 8002434:	b108      	cbz	r0, 800243a <main+0x24e>
 8002436:	b672      	cpsid	i
 8002438:	e7fe      	b.n	8002438 <main+0x24c>
 800243a:	220c      	movs	r2, #12
 800243c:	481b      	ldr	r0, [pc, #108]	@ (80024ac <main+0x2c0>)
 800243e:	a912      	add	r1, sp, #72	@ 0x48
 8002440:	f003 fdee 	bl	8006020 <HAL_TIM_PWM_ConfigChannel>
 8002444:	4605      	mov	r5, r0
 8002446:	b108      	cbz	r0, 800244c <main+0x260>
 8002448:	b672      	cpsid	i
 800244a:	e7fe      	b.n	800244a <main+0x25e>
 800244c:	4817      	ldr	r0, [pc, #92]	@ (80024ac <main+0x2c0>)
 800244e:	f000 faff 	bl	8002a50 <HAL_TIM_MspPostInit>
 8002452:	950b      	str	r5, [sp, #44]	@ 0x2c
 8002454:	221c      	movs	r2, #28
 8002456:	4629      	mov	r1, r5
 8002458:	6075      	str	r5, [r6, #4]
 800245a:	a812      	add	r0, sp, #72	@ 0x48
 800245c:	f005 fbf6 	bl	8007c4c <memset>
 8002460:	4c14      	ldr	r4, [pc, #80]	@ (80024b4 <main+0x2c8>)
 8002462:	4b15      	ldr	r3, [pc, #84]	@ (80024b8 <main+0x2cc>)
 8002464:	4620      	mov	r0, r4
 8002466:	e9c4 3500 	strd	r3, r5, [r4]
 800246a:	f240 539f 	movw	r3, #1439	@ 0x59f
 800246e:	60a5      	str	r5, [r4, #8]
 8002470:	e9c4 3503 	strd	r3, r5, [r4, #12]
 8002474:	61a5      	str	r5, [r4, #24]
 8002476:	f003 fd7b 	bl	8005f70 <HAL_TIM_PWM_Init>
 800247a:	b108      	cbz	r0, 8002480 <main+0x294>
 800247c:	b672      	cpsid	i
 800247e:	e7fe      	b.n	800247e <main+0x292>
 8002480:	e9cd 000b 	strd	r0, r0, [sp, #44]	@ 0x2c
 8002484:	4631      	mov	r1, r6
 8002486:	4620      	mov	r0, r4
 8002488:	f003 ff7e 	bl	8006388 <HAL_TIMEx_MasterConfigSynchronization>
 800248c:	4602      	mov	r2, r0
 800248e:	b1a8      	cbz	r0, 80024bc <main+0x2d0>
 8002490:	b672      	cpsid	i
 8002492:	e7fe      	b.n	8002492 <main+0x2a6>
 8002494:	40021000 	.word	0x40021000
 8002498:	40011000 	.word	0x40011000
 800249c:	40010c00 	.word	0x40010c00
 80024a0:	40010800 	.word	0x40010800
 80024a4:	200002d8 	.word	0x200002d8
 80024a8:	40012c00 	.word	0x40012c00
 80024ac:	20000290 	.word	0x20000290
 80024b0:	40000400 	.word	0x40000400
 80024b4:	20000248 	.word	0x20000248
 80024b8:	40000800 	.word	0x40000800
 80024bc:	e9cd 7012 	strd	r7, r0, [sp, #72]	@ 0x48
 80024c0:	9014      	str	r0, [sp, #80]	@ 0x50
 80024c2:	9016      	str	r0, [sp, #88]	@ 0x58
 80024c4:	a912      	add	r1, sp, #72	@ 0x48
 80024c6:	4620      	mov	r0, r4
 80024c8:	f003 fdaa 	bl	8006020 <HAL_TIM_PWM_ConfigChannel>
 80024cc:	b108      	cbz	r0, 80024d2 <main+0x2e6>
 80024ce:	b672      	cpsid	i
 80024d0:	e7fe      	b.n	80024d0 <main+0x2e4>
 80024d2:	2204      	movs	r2, #4
 80024d4:	4620      	mov	r0, r4
 80024d6:	a912      	add	r1, sp, #72	@ 0x48
 80024d8:	f003 fda2 	bl	8006020 <HAL_TIM_PWM_ConfigChannel>
 80024dc:	b108      	cbz	r0, 80024e2 <main+0x2f6>
 80024de:	b672      	cpsid	i
 80024e0:	e7fe      	b.n	80024e0 <main+0x2f4>
 80024e2:	2208      	movs	r2, #8
 80024e4:	4620      	mov	r0, r4
 80024e6:	a912      	add	r1, sp, #72	@ 0x48
 80024e8:	f003 fd9a 	bl	8006020 <HAL_TIM_PWM_ConfigChannel>
 80024ec:	b108      	cbz	r0, 80024f2 <main+0x306>
 80024ee:	b672      	cpsid	i
 80024f0:	e7fe      	b.n	80024f0 <main+0x304>
 80024f2:	4620      	mov	r0, r4
 80024f4:	f000 faac 	bl	8002a50 <HAL_TIM_MspPostInit>
 80024f8:	f001 ff90 	bl	800441c <MX_USB_DEVICE_Init>
 80024fc:	f000 f856 	bl	80025ac <Motor_Init>
 8002500:	f44f 70fa 	mov.w	r0, #500	@ 0x1f4
 8002504:	f002 f9bc 	bl	8004880 <HAL_Delay>
 8002508:	f000 ffea 	bl	80034e0 <USBCMD_Init>
 800250c:	f000 fa38 	bl	8002980 <Motor_CommutateAll>
 8002510:	f001 f81a 	bl	8003548 <USBCMD_Process>
 8002514:	e7fa      	b.n	800250c <main+0x320>
 8002516:	bf00      	nop

08002518 <Error_Handler>:
 8002518:	b672      	cpsid	i
 800251a:	e7fe      	b.n	800251a <Error_Handler+0x2>

0800251c <all_off>:
 800251c:	e92d 4ff8 	stmdb	sp!, {r3, r4, r5, r6, r7, r8, r9, sl, fp, lr}
 8002520:	232c      	movs	r3, #44	@ 0x2c
 8002522:	4c20      	ldr	r4, [pc, #128]	@ (80025a4 <all_off+0x88>)
 8002524:	2700      	movs	r7, #0
 8002526:	fb03 4400 	mla	r4, r3, r0, r4
 800252a:	4626      	mov	r6, r4
 800252c:	46a2      	mov	sl, r4
 800252e:	4d1e      	ldr	r5, [pc, #120]	@ (80025a8 <all_off+0x8c>)
 8002530:	f8d4 8000 	ldr.w	r8, [r4]
 8002534:	f105 090c 	add.w	r9, r5, #12
 8002538:	f855 2b04 	ldr.w	r2, [r5], #4
 800253c:	f8d8 3000 	ldr.w	r3, [r8]
 8002540:	bb32      	cbnz	r2, 8002590 <all_off+0x74>
 8002542:	635a      	str	r2, [r3, #52]	@ 0x34
 8002544:	f89a b02a 	ldrb.w	fp, [sl, #42]	@ 0x2a
 8002548:	f1bb 0f00 	cmp.w	fp, #0
 800254c:	d105      	bne.n	800255a <all_off+0x3e>
 800254e:	6870      	ldr	r0, [r6, #4]
 8002550:	b118      	cbz	r0, 800255a <all_off+0x3e>
 8002552:	465a      	mov	r2, fp
 8002554:	8a21      	ldrh	r1, [r4, #16]
 8002556:	f002 fae3 	bl	8004b20 <HAL_GPIO_WritePin>
 800255a:	454d      	cmp	r5, r9
 800255c:	f104 0402 	add.w	r4, r4, #2
 8002560:	f106 0604 	add.w	r6, r6, #4
 8002564:	d1e8      	bne.n	8002538 <all_off+0x1c>
 8002566:	f1bb 0f00 	cmp.w	fp, #0
 800256a:	d00f      	beq.n	800258c <all_off+0x70>
 800256c:	f241 1211 	movw	r2, #4369	@ 0x1111
 8002570:	f8d8 3000 	ldr.w	r3, [r8]
 8002574:	6a19      	ldr	r1, [r3, #32]
 8002576:	4211      	tst	r1, r2
 8002578:	d108      	bne.n	800258c <all_off+0x70>
 800257a:	f240 4244 	movw	r2, #1092	@ 0x444
 800257e:	6a19      	ldr	r1, [r3, #32]
 8002580:	4211      	tst	r1, r2
 8002582:	bf02      	ittt	eq
 8002584:	6c5a      	ldreq	r2, [r3, #68]	@ 0x44
 8002586:	f422 4200 	biceq.w	r2, r2, #32768	@ 0x8000
 800258a:	645a      	streq	r2, [r3, #68]	@ 0x44
 800258c:	e8bd 8ff8 	ldmia.w	sp!, {r3, r4, r5, r6, r7, r8, r9, sl, fp, pc}
 8002590:	2a04      	cmp	r2, #4
 8002592:	d101      	bne.n	8002598 <all_off+0x7c>
 8002594:	639f      	str	r7, [r3, #56]	@ 0x38
 8002596:	e7d5      	b.n	8002544 <all_off+0x28>
 8002598:	2a08      	cmp	r2, #8
 800259a:	bf0c      	ite	eq
 800259c:	63df      	streq	r7, [r3, #60]	@ 0x3c
 800259e:	641f      	strne	r7, [r3, #64]	@ 0x40
 80025a0:	e7d0      	b.n	8002544 <all_off+0x28>
 80025a2:	bf00      	nop
 80025a4:	08008e00 	.word	0x08008e00
 80025a8:	08008e84 	.word	0x08008e84

080025ac <Motor_Init>:
 80025ac:	e92d 4ff0 	stmdb	sp!, {r4, r5, r6, r7, r8, r9, sl, fp, lr}
 80025b0:	2700      	movs	r7, #0
 80025b2:	f04f 0a01 	mov.w	sl, #1
 80025b6:	463d      	mov	r5, r7
 80025b8:	f04f 0b02 	mov.w	fp, #2
 80025bc:	4c2d      	ldr	r4, [pc, #180]	@ (8002674 <Motor_Init+0xc8>)
 80025be:	f8df 80b8 	ldr.w	r8, [pc, #184]	@ 8002678 <Motor_Init+0xcc>
 80025c2:	b089      	sub	sp, #36	@ 0x24
 80025c4:	f44f 7282 	mov.w	r2, #260	@ 0x104
 80025c8:	2100      	movs	r1, #0
 80025ca:	4620      	mov	r0, r4
 80025cc:	f804 5c10 	strb.w	r5, [r4, #-16]
 80025d0:	f804 5c0f 	strb.w	r5, [r4, #-15]
 80025d4:	f804 5c0e 	strb.w	r5, [r4, #-14]
 80025d8:	f824 5c0c 	strh.w	r5, [r4, #-12]
 80025dc:	f804 5c0a 	strb.w	r5, [r4, #-10]
 80025e0:	f804 5c09 	strb.w	r5, [r4, #-9]
 80025e4:	f844 5c08 	str.w	r5, [r4, #-8]
 80025e8:	f804 5c04 	strb.w	r5, [r4, #-4]
 80025ec:	f804 ac03 	strb.w	sl, [r4, #-3]
 80025f0:	f804 bc02 	strb.w	fp, [r4, #-2]
 80025f4:	f005 fb2a 	bl	8007c4c <memset>
 80025f8:	f8d8 6000 	ldr.w	r6, [r8]
 80025fc:	2100      	movs	r1, #0
 80025fe:	4630      	mov	r0, r6
 8002600:	f003 fe66 	bl	80062d0 <HAL_TIM_PWM_Start>
 8002604:	2104      	movs	r1, #4
 8002606:	4630      	mov	r0, r6
 8002608:	f003 fe62 	bl	80062d0 <HAL_TIM_PWM_Start>
 800260c:	2108      	movs	r1, #8
 800260e:	4630      	mov	r0, r6
 8002610:	f003 fe5e 	bl	80062d0 <HAL_TIM_PWM_Start>
 8002614:	f898 302a 	ldrb.w	r3, [r8, #42]	@ 0x2a
 8002618:	fa5f f987 	uxtb.w	r9, r7
 800261c:	b1e3      	cbz	r3, 8002658 <Motor_Init+0xac>
 800261e:	2100      	movs	r1, #0
 8002620:	4630      	mov	r0, r6
 8002622:	f003 feaf 	bl	8006384 <HAL_TIMEx_PWMN_Start>
 8002626:	2104      	movs	r1, #4
 8002628:	4630      	mov	r0, r6
 800262a:	f003 feab 	bl	8006384 <HAL_TIMEx_PWMN_Start>
 800262e:	2108      	movs	r1, #8
 8002630:	4630      	mov	r0, r6
 8002632:	f003 fea7 	bl	8006384 <HAL_TIMEx_PWMN_Start>
 8002636:	2100      	movs	r1, #0
 8002638:	221c      	movs	r2, #28
 800263a:	4668      	mov	r0, sp
 800263c:	f005 fb06 	bl	8007c4c <memset>
 8002640:	2332      	movs	r3, #50	@ 0x32
 8002642:	9303      	str	r3, [sp, #12]
 8002644:	f44f 5300 	mov.w	r3, #8192	@ 0x2000
 8002648:	9305      	str	r3, [sp, #20]
 800264a:	f44f 4380 	mov.w	r3, #16384	@ 0x4000
 800264e:	4669      	mov	r1, sp
 8002650:	4630      	mov	r0, r6
 8002652:	9307      	str	r3, [sp, #28]
 8002654:	f003 fec6 	bl	80063e4 <HAL_TIMEx_ConfigBreakDeadTime>
 8002658:	4648      	mov	r0, r9
 800265a:	3701      	adds	r7, #1
 800265c:	f7ff ff5e 	bl	800251c <all_off>
 8002660:	2f03      	cmp	r7, #3
 8002662:	f504 748a 	add.w	r4, r4, #276	@ 0x114
 8002666:	f108 082c 	add.w	r8, r8, #44	@ 0x2c
 800266a:	d1ab      	bne.n	80025c4 <Motor_Init+0x18>
 800266c:	b009      	add	sp, #36	@ 0x24
 800266e:	e8bd 8ff0 	ldmia.w	sp!, {r4, r5, r6, r7, r8, r9, sl, fp, pc}
 8002672:	bf00      	nop
 8002674:	20000330 	.word	0x20000330
 8002678:	08008e00 	.word	0x08008e00

0800267c <Motor_SafeAll>:
 800267c:	b570      	push	{r4, r5, r6, lr}
 800267e:	2400      	movs	r4, #0
 8002680:	4626      	mov	r6, r4
 8002682:	4d06      	ldr	r5, [pc, #24]	@ (800269c <Motor_SafeAll+0x20>)
 8002684:	702e      	strb	r6, [r5, #0]
 8002686:	706e      	strb	r6, [r5, #1]
 8002688:	80ae      	strh	r6, [r5, #4]
 800268a:	b2e0      	uxtb	r0, r4
 800268c:	3401      	adds	r4, #1
 800268e:	f7ff ff45 	bl	800251c <all_off>
 8002692:	2c03      	cmp	r4, #3
 8002694:	f505 758a 	add.w	r5, r5, #276	@ 0x114
 8002698:	d1f4      	bne.n	8002684 <Motor_SafeAll+0x8>
 800269a:	bd70      	pop	{r4, r5, r6, pc}
 800269c:	20000320 	.word	0x20000320

080026a0 <Motor_SetDuty>:
 80026a0:	2802      	cmp	r0, #2
 80026a2:	d80a      	bhi.n	80026ba <Motor_SetDuty+0x1a>
 80026a4:	f44f 728a 	mov.w	r2, #276	@ 0x114
 80026a8:	f5b1 6fb4 	cmp.w	r1, #1440	@ 0x5a0
 80026ac:	bf28      	it	cs
 80026ae:	f44f 61b4 	movcs.w	r1, #1440	@ 0x5a0
 80026b2:	4b02      	ldr	r3, [pc, #8]	@ (80026bc <Motor_SetDuty+0x1c>)
 80026b4:	fb02 3300 	mla	r3, r2, r0, r3
 80026b8:	8099      	strh	r1, [r3, #4]
 80026ba:	4770      	bx	lr
 80026bc:	20000320 	.word	0x20000320

080026c0 <Motor_SetDir>:
 80026c0:	2802      	cmp	r0, #2
 80026c2:	bf9f      	itttt	ls
 80026c4:	f44f 728a 	movls.w	r2, #276	@ 0x114
 80026c8:	4b02      	ldrls	r3, [pc, #8]	@ (80026d4 <Motor_SetDir+0x14>)
 80026ca:	fb02 3300 	mlals	r3, r2, r0, r3
 80026ce:	7099      	strbls	r1, [r3, #2]
 80026d0:	4770      	bx	lr
 80026d2:	bf00      	nop
 80026d4:	20000320 	.word	0x20000320

080026d8 <Motor_Enable>:
 80026d8:	2802      	cmp	r0, #2
 80026da:	d812      	bhi.n	8002702 <Motor_Enable+0x2a>
 80026dc:	f44f 738a 	mov.w	r3, #276	@ 0x114
 80026e0:	2101      	movs	r1, #1
 80026e2:	4343      	muls	r3, r0
 80026e4:	4a07      	ldr	r2, [pc, #28]	@ (8002704 <Motor_Enable+0x2c>)
 80026e6:	54d1      	strb	r1, [r2, r3]
 80026e8:	222c      	movs	r2, #44	@ 0x2c
 80026ea:	4350      	muls	r0, r2
 80026ec:	4b06      	ldr	r3, [pc, #24]	@ (8002708 <Motor_Enable+0x30>)
 80026ee:	181a      	adds	r2, r3, r0
 80026f0:	f892 202a 	ldrb.w	r2, [r2, #42]	@ 0x2a
 80026f4:	b12a      	cbz	r2, 8002702 <Motor_Enable+0x2a>
 80026f6:	581b      	ldr	r3, [r3, r0]
 80026f8:	681a      	ldr	r2, [r3, #0]
 80026fa:	6c53      	ldr	r3, [r2, #68]	@ 0x44
 80026fc:	f443 4300 	orr.w	r3, r3, #32768	@ 0x8000
 8002700:	6453      	str	r3, [r2, #68]	@ 0x44
 8002702:	4770      	bx	lr
 8002704:	20000320 	.word	0x20000320
 8002708:	08008e00 	.word	0x08008e00

0800270c <Motor_Disable>:
 800270c:	2802      	cmp	r0, #2
 800270e:	4603      	mov	r3, r0
 8002710:	b410      	push	{r4}
 8002712:	d80a      	bhi.n	800272a <Motor_Disable+0x1e>
 8002714:	f44f 728a 	mov.w	r2, #276	@ 0x114
 8002718:	4353      	muls	r3, r2
 800271a:	2200      	movs	r2, #0
 800271c:	4904      	ldr	r1, [pc, #16]	@ (8002730 <Motor_Disable+0x24>)
 800271e:	185c      	adds	r4, r3, r1
 8002720:	52ca      	strh	r2, [r1, r3]
 8002722:	80a2      	strh	r2, [r4, #4]
 8002724:	bc10      	pop	{r4}
 8002726:	f7ff bef9 	b.w	800251c <all_off>
 800272a:	bc10      	pop	{r4}
 800272c:	4770      	bx	lr
 800272e:	bf00      	nop
 8002730:	20000320 	.word	0x20000320

08002734 <Motor_ReadHall>:
 8002734:	2802      	cmp	r0, #2
 8002736:	b570      	push	{r4, r5, r6, lr}
 8002738:	d820      	bhi.n	800277c <Motor_ReadHall+0x48>
 800273a:	232c      	movs	r3, #44	@ 0x2c
 800273c:	4d10      	ldr	r5, [pc, #64]	@ (8002780 <Motor_ReadHall+0x4c>)
 800273e:	fb03 5500 	mla	r5, r3, r0, r5
 8002742:	8ca9      	ldrh	r1, [r5, #36]	@ 0x24
 8002744:	69a8      	ldr	r0, [r5, #24]
 8002746:	f002 f9e5 	bl	8004b14 <HAL_GPIO_ReadPin>
 800274a:	8ce9      	ldrh	r1, [r5, #38]	@ 0x26
 800274c:	4606      	mov	r6, r0
 800274e:	69e8      	ldr	r0, [r5, #28]
 8002750:	f002 f9e0 	bl	8004b14 <HAL_GPIO_ReadPin>
 8002754:	4604      	mov	r4, r0
 8002756:	8d29      	ldrh	r1, [r5, #40]	@ 0x28
 8002758:	6a28      	ldr	r0, [r5, #32]
 800275a:	f002 f9db 	bl	8004b14 <HAL_GPIO_ReadPin>
 800275e:	3e00      	subs	r6, #0
 8002760:	bf18      	it	ne
 8002762:	2601      	movne	r6, #1
 8002764:	3c00      	subs	r4, #0
 8002766:	bf18      	it	ne
 8002768:	2401      	movne	r4, #1
 800276a:	0064      	lsls	r4, r4, #1
 800276c:	ea44 0486 	orr.w	r4, r4, r6, lsl #2
 8002770:	2800      	cmp	r0, #0
 8002772:	bf0c      	ite	eq
 8002774:	4620      	moveq	r0, r4
 8002776:	f044 0001 	orrne.w	r0, r4, #1
 800277a:	bd70      	pop	{r4, r5, r6, pc}
 800277c:	2000      	movs	r0, #0
 800277e:	e7fc      	b.n	800277a <Motor_ReadHall+0x46>
 8002780:	08008e00 	.word	0x08008e00

08002784 <Motor_GetTicks>:
 8002784:	2802      	cmp	r0, #2
 8002786:	bf9f      	itttt	ls
 8002788:	f44f 728a 	movls.w	r2, #276	@ 0x114
 800278c:	4b03      	ldrls	r3, [pc, #12]	@ (800279c <Motor_GetTicks+0x18>)
 800278e:	fb02 3300 	mlals	r3, r2, r0, r3
 8002792:	6898      	ldrls	r0, [r3, #8]
 8002794:	bf88      	it	hi
 8002796:	2000      	movhi	r0, #0
 8002798:	4770      	bx	lr
 800279a:	bf00      	nop
 800279c:	20000320 	.word	0x20000320

080027a0 <Motor_ResetTicks>:
 80027a0:	2802      	cmp	r0, #2
 80027a2:	d806      	bhi.n	80027b2 <Motor_ResetTicks+0x12>
 80027a4:	f44f 728a 	mov.w	r2, #276	@ 0x114
 80027a8:	4b02      	ldr	r3, [pc, #8]	@ (80027b4 <Motor_ResetTicks+0x14>)
 80027aa:	fb02 3300 	mla	r3, r2, r0, r3
 80027ae:	2200      	movs	r2, #0
 80027b0:	609a      	str	r2, [r3, #8]
 80027b2:	4770      	bx	lr
 80027b4:	20000320 	.word	0x20000320

080027b8 <Motor_ClearHallRing>:
 80027b8:	2802      	cmp	r0, #2
 80027ba:	b410      	push	{r4}
 80027bc:	d80a      	bhi.n	80027d4 <Motor_ClearHallRing+0x1c>
 80027be:	f44f 748a 	mov.w	r4, #276	@ 0x114
 80027c2:	4b05      	ldr	r3, [pc, #20]	@ (80027d8 <Motor_ClearHallRing+0x20>)
 80027c4:	f44f 7282 	mov.w	r2, #260	@ 0x104
 80027c8:	fb04 3000 	mla	r0, r4, r0, r3
 80027cc:	2100      	movs	r1, #0
 80027ce:	bc10      	pop	{r4}
 80027d0:	f005 ba3c 	b.w	8007c4c <memset>
 80027d4:	bc10      	pop	{r4}
 80027d6:	4770      	bx	lr
 80027d8:	20000330 	.word	0x20000330

080027dc <Motor_SetPhaseMap>:
 80027dc:	2802      	cmp	r0, #2
 80027de:	b530      	push	{r4, r5, lr}
 80027e0:	d80d      	bhi.n	80027fe <Motor_SetPhaseMap+0x22>
 80027e2:	2902      	cmp	r1, #2
 80027e4:	d80b      	bhi.n	80027fe <Motor_SetPhaseMap+0x22>
 80027e6:	2a02      	cmp	r2, #2
 80027e8:	d809      	bhi.n	80027fe <Motor_SetPhaseMap+0x22>
 80027ea:	2b02      	cmp	r3, #2
 80027ec:	d807      	bhi.n	80027fe <Motor_SetPhaseMap+0x22>
 80027ee:	f44f 758a 	mov.w	r5, #276	@ 0x114
 80027f2:	4c03      	ldr	r4, [pc, #12]	@ (8002800 <Motor_SetPhaseMap+0x24>)
 80027f4:	fb05 4000 	mla	r0, r5, r0, r4
 80027f8:	7301      	strb	r1, [r0, #12]
 80027fa:	7342      	strb	r2, [r0, #13]
 80027fc:	7383      	strb	r3, [r0, #14]
 80027fe:	bd30      	pop	{r4, r5, pc}
 8002800:	20000320 	.word	0x20000320

08002804 <Motor_Commutate>:
 8002804:	e92d 4ff0 	stmdb	sp!, {r4, r5, r6, r7, r8, r9, sl, fp, lr}
 8002808:	2802      	cmp	r0, #2
 800280a:	4604      	mov	r4, r0
 800280c:	b087      	sub	sp, #28
 800280e:	d82c      	bhi.n	800286a <Motor_Commutate+0x66>
 8002810:	f7ff ff90 	bl	8002734 <Motor_ReadHall>
 8002814:	f44f 738a 	mov.w	r3, #276	@ 0x114
 8002818:	4d53      	ldr	r5, [pc, #332]	@ (8002968 <Motor_Commutate+0x164>)
 800281a:	fb03 5304 	mla	r3, r3, r4, r5
 800281e:	799a      	ldrb	r2, [r3, #6]
 8002820:	4282      	cmp	r2, r0
 8002822:	d00f      	beq.n	8002844 <Motor_Commutate+0x40>
 8002824:	2281      	movs	r2, #129	@ 0x81
 8002826:	40c2      	lsrs	r2, r0
 8002828:	07d2      	lsls	r2, r2, #31
 800282a:	d40b      	bmi.n	8002844 <Motor_Commutate+0x40>
 800282c:	f8d3 2110 	ldr.w	r2, [r3, #272]	@ 0x110
 8002830:	7198      	strb	r0, [r3, #6]
 8002832:	b2d1      	uxtb	r1, r2
 8002834:	3201      	adds	r2, #1
 8002836:	f8c3 2110 	str.w	r2, [r3, #272]	@ 0x110
 800283a:	689a      	ldr	r2, [r3, #8]
 800283c:	4419      	add	r1, r3
 800283e:	3201      	adds	r2, #1
 8002840:	7408      	strb	r0, [r1, #16]
 8002842:	609a      	str	r2, [r3, #8]
 8002844:	f44f 738a 	mov.w	r3, #276	@ 0x114
 8002848:	4363      	muls	r3, r4
 800284a:	18ee      	adds	r6, r5, r3
 800284c:	5ceb      	ldrb	r3, [r5, r3]
 800284e:	b10b      	cbz	r3, 8002854 <Motor_Commutate+0x50>
 8002850:	88b3      	ldrh	r3, [r6, #4]
 8002852:	b96b      	cbnz	r3, 8002870 <Motor_Commutate+0x6c>
 8002854:	f44f 738a 	mov.w	r3, #276	@ 0x114
 8002858:	fb03 5504 	mla	r5, r3, r4, r5
 800285c:	786b      	ldrb	r3, [r5, #1]
 800285e:	b123      	cbz	r3, 800286a <Motor_Commutate+0x66>
 8002860:	4620      	mov	r0, r4
 8002862:	f7ff fe5b 	bl	800251c <all_off>
 8002866:	2300      	movs	r3, #0
 8002868:	706b      	strb	r3, [r5, #1]
 800286a:	b007      	add	sp, #28
 800286c:	e8bd 8ff0 	ldmia.w	sp!, {r4, r5, r6, r7, r8, r9, sl, fp, pc}
 8002870:	2301      	movs	r3, #1
 8002872:	4a3e      	ldr	r2, [pc, #248]	@ (800296c <Motor_Commutate+0x168>)
 8002874:	78b1      	ldrb	r1, [r6, #2]
 8002876:	7073      	strb	r3, [r6, #1]
 8002878:	4b3d      	ldr	r3, [pc, #244]	@ (8002970 <Motor_Commutate+0x16c>)
 800287a:	2900      	cmp	r1, #0
 800287c:	bf08      	it	eq
 800287e:	4613      	moveq	r3, r2
 8002880:	f813 8010 	ldrb.w	r8, [r3, r0, lsl #1]
 8002884:	eb03 0240 	add.w	r2, r3, r0, lsl #1
 8002888:	f1b8 0fff 	cmp.w	r8, #255	@ 0xff
 800288c:	7853      	ldrb	r3, [r2, #1]
 800288e:	d105      	bne.n	800289c <Motor_Commutate+0x98>
 8002890:	4620      	mov	r0, r4
 8002892:	f7ff fe43 	bl	800251c <all_off>
 8002896:	2300      	movs	r3, #0
 8002898:	7073      	strb	r3, [r6, #1]
 800289a:	e7e6      	b.n	800286a <Motor_Commutate+0x66>
 800289c:	eb06 0208 	add.w	r2, r6, r8
 80028a0:	441e      	add	r6, r3
 80028a2:	7b33      	ldrb	r3, [r6, #12]
 80028a4:	262c      	movs	r6, #44	@ 0x2c
 80028a6:	f8df 90cc 	ldr.w	r9, [pc, #204]	@ 8002974 <Motor_Commutate+0x170>
 80028aa:	f04f 0b00 	mov.w	fp, #0
 80028ae:	fb06 9604 	mla	r6, r6, r4, r9
 80028b2:	46b2      	mov	sl, r6
 80028b4:	7b12      	ldrb	r2, [r2, #12]
 80028b6:	9301      	str	r3, [sp, #4]
 80028b8:	4f2f      	ldr	r7, [pc, #188]	@ (8002978 <Motor_Commutate+0x174>)
 80028ba:	6833      	ldr	r3, [r6, #0]
 80028bc:	9202      	str	r2, [sp, #8]
 80028be:	9603      	str	r6, [sp, #12]
 80028c0:	f857 1b04 	ldr.w	r1, [r7], #4
 80028c4:	681a      	ldr	r2, [r3, #0]
 80028c6:	2900      	cmp	r1, #0
 80028c8:	d139      	bne.n	800293e <Motor_Commutate+0x13a>
 80028ca:	6351      	str	r1, [r2, #52]	@ 0x34
 80028cc:	9a03      	ldr	r2, [sp, #12]
 80028ce:	f892 202a 	ldrb.w	r2, [r2, #42]	@ 0x2a
 80028d2:	b94a      	cbnz	r2, 80028e8 <Motor_Commutate+0xe4>
 80028d4:	f8da 0004 	ldr.w	r0, [sl, #4]
 80028d8:	b130      	cbz	r0, 80028e8 <Motor_Commutate+0xe4>
 80028da:	8a31      	ldrh	r1, [r6, #16]
 80028dc:	e9cd 2304 	strd	r2, r3, [sp, #16]
 80028e0:	f002 f91e 	bl	8004b20 <HAL_GPIO_WritePin>
 80028e4:	e9dd 2304 	ldrd	r2, r3, [sp, #16]
 80028e8:	4924      	ldr	r1, [pc, #144]	@ (800297c <Motor_Commutate+0x178>)
 80028ea:	3602      	adds	r6, #2
 80028ec:	42b9      	cmp	r1, r7
 80028ee:	f10a 0a04 	add.w	sl, sl, #4
 80028f2:	d1e5      	bne.n	80028c0 <Motor_Commutate+0xbc>
 80028f4:	9802      	ldr	r0, [sp, #8]
 80028f6:	390c      	subs	r1, #12
 80028f8:	f851 0020 	ldr.w	r0, [r1, r0, lsl #2]
 80028fc:	f44f 718a 	mov.w	r1, #276	@ 0x114
 8002900:	fb01 5104 	mla	r1, r1, r4, r5
 8002904:	681b      	ldr	r3, [r3, #0]
 8002906:	8889      	ldrh	r1, [r1, #4]
 8002908:	bb28      	cbnz	r0, 8002956 <Motor_Commutate+0x152>
 800290a:	6359      	str	r1, [r3, #52]	@ 0x34
 800290c:	b982      	cbnz	r2, 8002930 <Motor_Commutate+0x12c>
 800290e:	2116      	movs	r1, #22
 8002910:	9b01      	ldr	r3, [sp, #4]
 8002912:	9a01      	ldr	r2, [sp, #4]
 8002914:	fb01 3104 	mla	r1, r1, r4, r3
 8002918:	230b      	movs	r3, #11
 800291a:	fb03 2304 	mla	r3, r3, r4, r2
 800291e:	3108      	adds	r1, #8
 8002920:	eb09 0383 	add.w	r3, r9, r3, lsl #2
 8002924:	2201      	movs	r2, #1
 8002926:	f839 1011 	ldrh.w	r1, [r9, r1, lsl #1]
 800292a:	6858      	ldr	r0, [r3, #4]
 800292c:	f002 f8f8 	bl	8004b20 <HAL_GPIO_WritePin>
 8002930:	f44f 738a 	mov.w	r3, #276	@ 0x114
 8002934:	fb03 5504 	mla	r5, r3, r4, r5
 8002938:	f885 8007 	strb.w	r8, [r5, #7]
 800293c:	e795      	b.n	800286a <Motor_Commutate+0x66>
 800293e:	2904      	cmp	r1, #4
 8002940:	d102      	bne.n	8002948 <Motor_Commutate+0x144>
 8002942:	f8c2 b038 	str.w	fp, [r2, #56]	@ 0x38
 8002946:	e7c1      	b.n	80028cc <Motor_Commutate+0xc8>
 8002948:	2908      	cmp	r1, #8
 800294a:	bf0c      	ite	eq
 800294c:	f8c2 b03c 	streq.w	fp, [r2, #60]	@ 0x3c
 8002950:	f8c2 b040 	strne.w	fp, [r2, #64]	@ 0x40
 8002954:	e7ba      	b.n	80028cc <Motor_Commutate+0xc8>
 8002956:	2804      	cmp	r0, #4
 8002958:	d101      	bne.n	800295e <Motor_Commutate+0x15a>
 800295a:	6399      	str	r1, [r3, #56]	@ 0x38
 800295c:	e7d6      	b.n	800290c <Motor_Commutate+0x108>
 800295e:	2808      	cmp	r0, #8
 8002960:	bf0c      	ite	eq
 8002962:	63d9      	streq	r1, [r3, #60]	@ 0x3c
 8002964:	6419      	strne	r1, [r3, #64]	@ 0x40
 8002966:	e7d1      	b.n	800290c <Motor_Commutate+0x108>
 8002968:	20000320 	.word	0x20000320
 800296c:	08008ea0 	.word	0x08008ea0
 8002970:	08008e90 	.word	0x08008e90
 8002974:	08008e00 	.word	0x08008e00
 8002978:	08008e84 	.word	0x08008e84
 800297c:	08008e90 	.word	0x08008e90

08002980 <Motor_CommutateAll>:
 8002980:	b508      	push	{r3, lr}
 8002982:	2000      	movs	r0, #0
 8002984:	f7ff ff3e 	bl	8002804 <Motor_Commutate>
 8002988:	2001      	movs	r0, #1
 800298a:	f7ff ff3b 	bl	8002804 <Motor_Commutate>
 800298e:	e8bd 4008 	ldmia.w	sp!, {r3, lr}
 8002992:	2002      	movs	r0, #2
 8002994:	f7ff bf36 	b.w	8002804 <Motor_Commutate>

08002998 <HAL_MspInit>:
 8002998:	4b0e      	ldr	r3, [pc, #56]	@ (80029d4 <HAL_MspInit+0x3c>)
 800299a:	b082      	sub	sp, #8
 800299c:	699a      	ldr	r2, [r3, #24]
 800299e:	f042 0201 	orr.w	r2, r2, #1
 80029a2:	619a      	str	r2, [r3, #24]
 80029a4:	699a      	ldr	r2, [r3, #24]
 80029a6:	f002 0201 	and.w	r2, r2, #1
 80029aa:	9200      	str	r2, [sp, #0]
 80029ac:	9a00      	ldr	r2, [sp, #0]
 80029ae:	69da      	ldr	r2, [r3, #28]
 80029b0:	f042 5280 	orr.w	r2, r2, #268435456	@ 0x10000000
 80029b4:	61da      	str	r2, [r3, #28]
 80029b6:	69db      	ldr	r3, [r3, #28]
 80029b8:	4a07      	ldr	r2, [pc, #28]	@ (80029d8 <HAL_MspInit+0x40>)
 80029ba:	f003 5380 	and.w	r3, r3, #268435456	@ 0x10000000
 80029be:	9301      	str	r3, [sp, #4]
 80029c0:	9b01      	ldr	r3, [sp, #4]
 80029c2:	6853      	ldr	r3, [r2, #4]
 80029c4:	f023 63e0 	bic.w	r3, r3, #117440512	@ 0x7000000
 80029c8:	f043 7300 	orr.w	r3, r3, #33554432	@ 0x2000000
 80029cc:	6053      	str	r3, [r2, #4]
 80029ce:	b002      	add	sp, #8
 80029d0:	4770      	bx	lr
 80029d2:	bf00      	nop
 80029d4:	40021000 	.word	0x40021000
 80029d8:	40010000 	.word	0x40010000

080029dc <HAL_TIM_Base_MspInit>:
 80029dc:	6802      	ldr	r2, [r0, #0]
 80029de:	4b08      	ldr	r3, [pc, #32]	@ (8002a00 <HAL_TIM_Base_MspInit+0x24>)
 80029e0:	b082      	sub	sp, #8
 80029e2:	429a      	cmp	r2, r3
 80029e4:	d10a      	bne.n	80029fc <HAL_TIM_Base_MspInit+0x20>
 80029e6:	f503 4364 	add.w	r3, r3, #58368	@ 0xe400
 80029ea:	699a      	ldr	r2, [r3, #24]
 80029ec:	f442 6200 	orr.w	r2, r2, #2048	@ 0x800
 80029f0:	619a      	str	r2, [r3, #24]
 80029f2:	699b      	ldr	r3, [r3, #24]
 80029f4:	f403 6300 	and.w	r3, r3, #2048	@ 0x800
 80029f8:	9301      	str	r3, [sp, #4]
 80029fa:	9b01      	ldr	r3, [sp, #4]
 80029fc:	b002      	add	sp, #8
 80029fe:	4770      	bx	lr
 8002a00:	40012c00 	.word	0x40012c00

08002a04 <HAL_TIM_PWM_MspInit>:
 8002a04:	6803      	ldr	r3, [r0, #0]
 8002a06:	4a0f      	ldr	r2, [pc, #60]	@ (8002a44 <HAL_TIM_PWM_MspInit+0x40>)
 8002a08:	b082      	sub	sp, #8
 8002a0a:	4293      	cmp	r3, r2
 8002a0c:	d10b      	bne.n	8002a26 <HAL_TIM_PWM_MspInit+0x22>
 8002a0e:	4b0e      	ldr	r3, [pc, #56]	@ (8002a48 <HAL_TIM_PWM_MspInit+0x44>)
 8002a10:	69da      	ldr	r2, [r3, #28]
 8002a12:	f042 0202 	orr.w	r2, r2, #2
 8002a16:	61da      	str	r2, [r3, #28]
 8002a18:	69db      	ldr	r3, [r3, #28]
 8002a1a:	f003 0302 	and.w	r3, r3, #2
 8002a1e:	9300      	str	r3, [sp, #0]
 8002a20:	9b00      	ldr	r3, [sp, #0]
 8002a22:	b002      	add	sp, #8
 8002a24:	4770      	bx	lr
 8002a26:	4a09      	ldr	r2, [pc, #36]	@ (8002a4c <HAL_TIM_PWM_MspInit+0x48>)
 8002a28:	4293      	cmp	r3, r2
 8002a2a:	d1fa      	bne.n	8002a22 <HAL_TIM_PWM_MspInit+0x1e>
 8002a2c:	4b06      	ldr	r3, [pc, #24]	@ (8002a48 <HAL_TIM_PWM_MspInit+0x44>)
 8002a2e:	69da      	ldr	r2, [r3, #28]
 8002a30:	f042 0204 	orr.w	r2, r2, #4
 8002a34:	61da      	str	r2, [r3, #28]
 8002a36:	69db      	ldr	r3, [r3, #28]
 8002a38:	f003 0304 	and.w	r3, r3, #4
 8002a3c:	9301      	str	r3, [sp, #4]
 8002a3e:	9b01      	ldr	r3, [sp, #4]
 8002a40:	e7ef      	b.n	8002a22 <HAL_TIM_PWM_MspInit+0x1e>
 8002a42:	bf00      	nop
 8002a44:	40000400 	.word	0x40000400
 8002a48:	40021000 	.word	0x40021000
 8002a4c:	40000800 	.word	0x40000800

08002a50 <HAL_TIM_MspPostInit>:
 8002a50:	2210      	movs	r2, #16
 8002a52:	b510      	push	{r4, lr}
 8002a54:	4604      	mov	r4, r0
 8002a56:	b088      	sub	sp, #32
 8002a58:	eb0d 0002 	add.w	r0, sp, r2
 8002a5c:	2100      	movs	r1, #0
 8002a5e:	f005 f8f5 	bl	8007c4c <memset>
 8002a62:	6823      	ldr	r3, [r4, #0]
 8002a64:	4a30      	ldr	r2, [pc, #192]	@ (8002b28 <HAL_TIM_MspPostInit+0xd8>)
 8002a66:	4293      	cmp	r3, r2
 8002a68:	d126      	bne.n	8002ab8 <HAL_TIM_MspPostInit+0x68>
 8002a6a:	4b30      	ldr	r3, [pc, #192]	@ (8002b2c <HAL_TIM_MspPostInit+0xdc>)
 8002a6c:	2402      	movs	r4, #2
 8002a6e:	699a      	ldr	r2, [r3, #24]
 8002a70:	482f      	ldr	r0, [pc, #188]	@ (8002b30 <HAL_TIM_MspPostInit+0xe0>)
 8002a72:	f042 0208 	orr.w	r2, r2, #8
 8002a76:	619a      	str	r2, [r3, #24]
 8002a78:	699a      	ldr	r2, [r3, #24]
 8002a7a:	a904      	add	r1, sp, #16
 8002a7c:	f002 0208 	and.w	r2, r2, #8
 8002a80:	9200      	str	r2, [sp, #0]
 8002a82:	9a00      	ldr	r2, [sp, #0]
 8002a84:	699a      	ldr	r2, [r3, #24]
 8002a86:	f042 0204 	orr.w	r2, r2, #4
 8002a8a:	619a      	str	r2, [r3, #24]
 8002a8c:	699b      	ldr	r3, [r3, #24]
 8002a8e:	9407      	str	r4, [sp, #28]
 8002a90:	f003 0304 	and.w	r3, r3, #4
 8002a94:	9301      	str	r3, [sp, #4]
 8002a96:	9b01      	ldr	r3, [sp, #4]
 8002a98:	f44f 4360 	mov.w	r3, #57344	@ 0xe000
 8002a9c:	e9cd 3404 	strd	r3, r4, [sp, #16]
 8002aa0:	f001 ff64 	bl	800496c <HAL_GPIO_Init>
 8002aa4:	f44f 63e0 	mov.w	r3, #1792	@ 0x700
 8002aa8:	e9cd 3404 	strd	r3, r4, [sp, #16]
 8002aac:	4821      	ldr	r0, [pc, #132]	@ (8002b34 <HAL_TIM_MspPostInit+0xe4>)
 8002aae:	9407      	str	r4, [sp, #28]
 8002ab0:	a904      	add	r1, sp, #16
 8002ab2:	f001 ff5b 	bl	800496c <HAL_GPIO_Init>
 8002ab6:	e01e      	b.n	8002af6 <HAL_TIM_MspPostInit+0xa6>
 8002ab8:	4a1f      	ldr	r2, [pc, #124]	@ (8002b38 <HAL_TIM_MspPostInit+0xe8>)
 8002aba:	4293      	cmp	r3, r2
 8002abc:	d11d      	bne.n	8002afa <HAL_TIM_MspPostInit+0xaa>
 8002abe:	4b1b      	ldr	r3, [pc, #108]	@ (8002b2c <HAL_TIM_MspPostInit+0xdc>)
 8002ac0:	2113      	movs	r1, #19
 8002ac2:	699a      	ldr	r2, [r3, #24]
 8002ac4:	481a      	ldr	r0, [pc, #104]	@ (8002b30 <HAL_TIM_MspPostInit+0xe0>)
 8002ac6:	f042 0208 	orr.w	r2, r2, #8
 8002aca:	619a      	str	r2, [r3, #24]
 8002acc:	699b      	ldr	r3, [r3, #24]
 8002ace:	f003 0308 	and.w	r3, r3, #8
 8002ad2:	9302      	str	r3, [sp, #8]
 8002ad4:	9b02      	ldr	r3, [sp, #8]
 8002ad6:	2302      	movs	r3, #2
 8002ad8:	e9cd 1304 	strd	r1, r3, [sp, #16]
 8002adc:	a904      	add	r1, sp, #16
 8002ade:	9307      	str	r3, [sp, #28]
 8002ae0:	f001 ff44 	bl	800496c <HAL_GPIO_Init>
 8002ae4:	4a15      	ldr	r2, [pc, #84]	@ (8002b3c <HAL_TIM_MspPostInit+0xec>)
 8002ae6:	6853      	ldr	r3, [r2, #4]
 8002ae8:	f423 6340 	bic.w	r3, r3, #3072	@ 0xc00
 8002aec:	f043 63e0 	orr.w	r3, r3, #117440512	@ 0x7000000
 8002af0:	f443 6300 	orr.w	r3, r3, #2048	@ 0x800
 8002af4:	6053      	str	r3, [r2, #4]
 8002af6:	b008      	add	sp, #32
 8002af8:	bd10      	pop	{r4, pc}
 8002afa:	4a11      	ldr	r2, [pc, #68]	@ (8002b40 <HAL_TIM_MspPostInit+0xf0>)
 8002afc:	4293      	cmp	r3, r2
 8002afe:	d1fa      	bne.n	8002af6 <HAL_TIM_MspPostInit+0xa6>
 8002b00:	4b0a      	ldr	r3, [pc, #40]	@ (8002b2c <HAL_TIM_MspPostInit+0xdc>)
 8002b02:	480b      	ldr	r0, [pc, #44]	@ (8002b30 <HAL_TIM_MspPostInit+0xe0>)
 8002b04:	699a      	ldr	r2, [r3, #24]
 8002b06:	a904      	add	r1, sp, #16
 8002b08:	f042 0208 	orr.w	r2, r2, #8
 8002b0c:	619a      	str	r2, [r3, #24]
 8002b0e:	699b      	ldr	r3, [r3, #24]
 8002b10:	f44f 72e0 	mov.w	r2, #448	@ 0x1c0
 8002b14:	f003 0308 	and.w	r3, r3, #8
 8002b18:	9303      	str	r3, [sp, #12]
 8002b1a:	9b03      	ldr	r3, [sp, #12]
 8002b1c:	2302      	movs	r3, #2
 8002b1e:	e9cd 2304 	strd	r2, r3, [sp, #16]
 8002b22:	9307      	str	r3, [sp, #28]
 8002b24:	e7c5      	b.n	8002ab2 <HAL_TIM_MspPostInit+0x62>
 8002b26:	bf00      	nop
 8002b28:	40012c00 	.word	0x40012c00
 8002b2c:	40021000 	.word	0x40021000
 8002b30:	40010c00 	.word	0x40010c00
 8002b34:	40010800 	.word	0x40010800
 8002b38:	40000400 	.word	0x40000400
 8002b3c:	40010000 	.word	0x40010000
 8002b40:	40000800 	.word	0x40000800

08002b44 <NMI_Handler>:
 8002b44:	e7fe      	b.n	8002b44 <NMI_Handler>

08002b46 <HardFault_Handler>:
 8002b46:	e7fe      	b.n	8002b46 <HardFault_Handler>

08002b48 <MemManage_Handler>:
 8002b48:	e7fe      	b.n	8002b48 <MemManage_Handler>

08002b4a <BusFault_Handler>:
 8002b4a:	e7fe      	b.n	8002b4a <BusFault_Handler>

08002b4c <UsageFault_Handler>:
 8002b4c:	e7fe      	b.n	8002b4c <UsageFault_Handler>

08002b4e <SVC_Handler>:
 8002b4e:	4770      	bx	lr

08002b50 <DebugMon_Handler>:
 8002b50:	4770      	bx	lr

08002b52 <PendSV_Handler>:
 8002b52:	4770      	bx	lr

08002b54 <SysTick_Handler>:
 8002b54:	b508      	push	{r3, lr}
 8002b56:	f7ff ff13 	bl	8002980 <Motor_CommutateAll>
 8002b5a:	e8bd 4008 	ldmia.w	sp!, {r3, lr}
 8002b5e:	f001 be7d 	b.w	800485c <HAL_IncTick>
	...

08002b64 <USB_LP_CAN1_RX0_IRQHandler>:
 8002b64:	4801      	ldr	r0, [pc, #4]	@ (8002b6c <USB_LP_CAN1_RX0_IRQHandler+0x8>)
 8002b66:	f002 b86f 	b.w	8004c48 <HAL_PCD_IRQHandler>
 8002b6a:	bf00      	nop
 8002b6c:	200018e8 	.word	0x200018e8

08002b70 <_getpid>:
 8002b70:	2001      	movs	r0, #1
 8002b72:	4770      	bx	lr

08002b74 <_kill>:
 8002b74:	b508      	push	{r3, lr}
 8002b76:	f005 f931 	bl	8007ddc <__errno>
 8002b7a:	2316      	movs	r3, #22
 8002b7c:	6003      	str	r3, [r0, #0]
 8002b7e:	f04f 30ff 	mov.w	r0, #4294967295
 8002b82:	bd08      	pop	{r3, pc}

08002b84 <_exit>:
 8002b84:	b508      	push	{r3, lr}
 8002b86:	f005 f929 	bl	8007ddc <__errno>
 8002b8a:	2316      	movs	r3, #22
 8002b8c:	6003      	str	r3, [r0, #0]
 8002b8e:	e7fe      	b.n	8002b8e <_exit+0xa>

08002b90 <_read>:
 8002b90:	b570      	push	{r4, r5, r6, lr}
 8002b92:	460d      	mov	r5, r1
 8002b94:	4614      	mov	r4, r2
 8002b96:	460e      	mov	r6, r1
 8002b98:	1b73      	subs	r3, r6, r5
 8002b9a:	429c      	cmp	r4, r3
 8002b9c:	dc01      	bgt.n	8002ba2 <_read+0x12>
 8002b9e:	4620      	mov	r0, r4
 8002ba0:	bd70      	pop	{r4, r5, r6, pc}
 8002ba2:	f3af 8000 	nop.w
 8002ba6:	f806 0b01 	strb.w	r0, [r6], #1
 8002baa:	e7f5      	b.n	8002b98 <_read+0x8>

08002bac <_write>:
 8002bac:	b570      	push	{r4, r5, r6, lr}
 8002bae:	460d      	mov	r5, r1
 8002bb0:	4614      	mov	r4, r2
 8002bb2:	460e      	mov	r6, r1
 8002bb4:	1b73      	subs	r3, r6, r5
 8002bb6:	429c      	cmp	r4, r3
 8002bb8:	dc01      	bgt.n	8002bbe <_write+0x12>
 8002bba:	4620      	mov	r0, r4
 8002bbc:	bd70      	pop	{r4, r5, r6, pc}
 8002bbe:	f816 0b01 	ldrb.w	r0, [r6], #1
 8002bc2:	f3af 8000 	nop.w
 8002bc6:	e7f5      	b.n	8002bb4 <_write+0x8>

08002bc8 <_close>:
 8002bc8:	f04f 30ff 	mov.w	r0, #4294967295
 8002bcc:	4770      	bx	lr

08002bce <_fstat>:
 8002bce:	f44f 5300 	mov.w	r3, #8192	@ 0x2000
 8002bd2:	2000      	movs	r0, #0
 8002bd4:	604b      	str	r3, [r1, #4]
 8002bd6:	4770      	bx	lr

08002bd8 <_isatty>:
 8002bd8:	2001      	movs	r0, #1
 8002bda:	4770      	bx	lr

08002bdc <_lseek>:
 8002bdc:	2000      	movs	r0, #0
 8002bde:	4770      	bx	lr

08002be0 <_sbrk>:
 8002be0:	4a0a      	ldr	r2, [pc, #40]	@ (8002c0c <_sbrk+0x2c>)
 8002be2:	4603      	mov	r3, r0
 8002be4:	6810      	ldr	r0, [r2, #0]
 8002be6:	b510      	push	{r4, lr}
 8002be8:	b908      	cbnz	r0, 8002bee <_sbrk+0xe>
 8002bea:	4809      	ldr	r0, [pc, #36]	@ (8002c10 <_sbrk+0x30>)
 8002bec:	6010      	str	r0, [r2, #0]
 8002bee:	4909      	ldr	r1, [pc, #36]	@ (8002c14 <_sbrk+0x34>)
 8002bf0:	4c09      	ldr	r4, [pc, #36]	@ (8002c18 <_sbrk+0x38>)
 8002bf2:	4403      	add	r3, r0
 8002bf4:	1b09      	subs	r1, r1, r4
 8002bf6:	428b      	cmp	r3, r1
 8002bf8:	d906      	bls.n	8002c08 <_sbrk+0x28>
 8002bfa:	f005 f8ef 	bl	8007ddc <__errno>
 8002bfe:	230c      	movs	r3, #12
 8002c00:	6003      	str	r3, [r0, #0]
 8002c02:	f04f 30ff 	mov.w	r0, #4294967295
 8002c06:	bd10      	pop	{r4, pc}
 8002c08:	6013      	str	r3, [r2, #0]
 8002c0a:	e7fc      	b.n	8002c06 <_sbrk+0x26>
 8002c0c:	2000065c 	.word	0x2000065c
 8002c10:	20001d18 	.word	0x20001d18
 8002c14:	20005000 	.word	0x20005000
 8002c18:	00000400 	.word	0x00000400

08002c1c <rx_flush>:
 8002c1c:	4b04      	ldr	r3, [pc, #16]	@ (8002c30 <rx_flush+0x14>)
 8002c1e:	4a05      	ldr	r2, [pc, #20]	@ (8002c34 <rx_flush+0x18>)
 8002c20:	881b      	ldrh	r3, [r3, #0]
 8002c22:	b29b      	uxth	r3, r3
 8002c24:	8013      	strh	r3, [r2, #0]
 8002c26:	2200      	movs	r2, #0
 8002c28:	4b03      	ldr	r3, [pc, #12]	@ (8002c38 <rx_flush+0x1c>)
 8002c2a:	701a      	strb	r2, [r3, #0]
 8002c2c:	4770      	bx	lr
 8002c2e:	bf00      	nop
 8002c30:	20000902 	.word	0x20000902
 8002c34:	20000900 	.word	0x20000900
 8002c38:	20000670 	.word	0x20000670

08002c3c <tui_set_status>:
 8002c3c:	4601      	mov	r1, r0
 8002c3e:	224f      	movs	r2, #79	@ 0x4f
 8002c40:	b508      	push	{r3, lr}
 8002c42:	4804      	ldr	r0, [pc, #16]	@ (8002c54 <tui_set_status+0x18>)
 8002c44:	f005 f80a 	bl	8007c5c <strncpy>
 8002c48:	2300      	movs	r3, #0
 8002c4a:	4a02      	ldr	r2, [pc, #8]	@ (8002c54 <tui_set_status+0x18>)
 8002c4c:	f882 304f 	strb.w	r3, [r2, #79]	@ 0x4f
 8002c50:	bd08      	pop	{r3, pc}
 8002c52:	bf00      	nop
 8002c54:	20000000 	.word	0x20000000

08002c58 <find_pin>:
 8002c58:	e92d 41f0 	stmdb	sp!, {r4, r5, r6, r7, r8, lr}
 8002c5c:	4606      	mov	r6, r0
 8002c5e:	2500      	movs	r5, #0
 8002c60:	f04f 080c 	mov.w	r8, #12
 8002c64:	4f08      	ldr	r7, [pc, #32]	@ (8002c88 <find_pin+0x30>)
 8002c66:	fb08 f305 	mul.w	r3, r8, r5
 8002c6a:	4631      	mov	r1, r6
 8002c6c:	58f8      	ldr	r0, [r7, r3]
 8002c6e:	19dc      	adds	r4, r3, r7
 8002c70:	f7ff fa6c 	bl	800214c <strcmp>
 8002c74:	b910      	cbnz	r0, 8002c7c <find_pin+0x24>
 8002c76:	4620      	mov	r0, r4
 8002c78:	e8bd 81f0 	ldmia.w	sp!, {r4, r5, r6, r7, r8, pc}
 8002c7c:	3501      	adds	r5, #1
 8002c7e:	2d1b      	cmp	r5, #27
 8002c80:	d1f1      	bne.n	8002c66 <find_pin+0xe>
 8002c82:	2000      	movs	r0, #0
 8002c84:	e7f8      	b.n	8002c78 <find_pin+0x20>
 8002c86:	bf00      	nop
 8002c88:	08009f00 	.word	0x08009f00

08002c8c <USBCMD_OnReceive>:
 8002c8c:	b5f0      	push	{r4, r5, r6, r7, lr}
 8002c8e:	4a0a      	ldr	r2, [pc, #40]	@ (8002cb8 <USBCMD_OnReceive+0x2c>)
 8002c90:	4d0a      	ldr	r5, [pc, #40]	@ (8002cbc <USBCMD_OnReceive+0x30>)
 8002c92:	4e0b      	ldr	r6, [pc, #44]	@ (8002cc0 <USBCMD_OnReceive+0x34>)
 8002c94:	4401      	add	r1, r0
 8002c96:	4288      	cmp	r0, r1
 8002c98:	d100      	bne.n	8002c9c <USBCMD_OnReceive+0x10>
 8002c9a:	bdf0      	pop	{r4, r5, r6, r7, pc}
 8002c9c:	8813      	ldrh	r3, [r2, #0]
 8002c9e:	882c      	ldrh	r4, [r5, #0]
 8002ca0:	3301      	adds	r3, #1
 8002ca2:	b2db      	uxtb	r3, r3
 8002ca4:	b2a4      	uxth	r4, r4
 8002ca6:	429c      	cmp	r4, r3
 8002ca8:	d004      	beq.n	8002cb4 <USBCMD_OnReceive+0x28>
 8002caa:	8814      	ldrh	r4, [r2, #0]
 8002cac:	7807      	ldrb	r7, [r0, #0]
 8002cae:	b2a4      	uxth	r4, r4
 8002cb0:	5537      	strb	r7, [r6, r4]
 8002cb2:	8013      	strh	r3, [r2, #0]
 8002cb4:	3001      	adds	r0, #1
 8002cb6:	e7ee      	b.n	8002c96 <USBCMD_OnReceive+0xa>
 8002cb8:	20000902 	.word	0x20000902
 8002cbc:	20000900 	.word	0x20000900
 8002cc0:	20000904 	.word	0x20000904

08002cc4 <USBCMD_Send>:
 8002cc4:	b538      	push	{r3, r4, r5, lr}
 8002cc6:	4604      	mov	r4, r0
 8002cc8:	f7ff fa4a 	bl	8002160 <strlen>
 8002ccc:	b285      	uxth	r5, r0
 8002cce:	4629      	mov	r1, r5
 8002cd0:	4620      	mov	r0, r4
 8002cd2:	f001 fbf1 	bl	80044b8 <CDC_Transmit_FS>
 8002cd6:	2801      	cmp	r0, #1
 8002cd8:	d107      	bne.n	8002cea <USBCMD_Send+0x26>
 8002cda:	f001 fdd1 	bl	8004880 <HAL_Delay>
 8002cde:	4629      	mov	r1, r5
 8002ce0:	4620      	mov	r0, r4
 8002ce2:	e8bd 4038 	ldmia.w	sp!, {r3, r4, r5, lr}
 8002ce6:	f001 bbe7 	b.w	80044b8 <CDC_Transmit_FS>
 8002cea:	bd38      	pop	{r3, r4, r5, pc}

08002cec <tui_erase_line>:
 8002cec:	4801      	ldr	r0, [pc, #4]	@ (8002cf4 <tui_erase_line+0x8>)
 8002cee:	f7ff bfe9 	b.w	8002cc4 <USBCMD_Send>
 8002cf2:	bf00      	nop
 8002cf4:	08008eb0 	.word	0x08008eb0

08002cf8 <tui_handle_key>:
 8002cf8:	b57f      	push	{r0, r1, r2, r3, r4, r5, r6, lr}
 8002cfa:	4bb5      	ldr	r3, [pc, #724]	@ (8002fd0 <tui_handle_key+0x2d8>)
 8002cfc:	2833      	cmp	r0, #51	@ 0x33
 8002cfe:	781c      	ldrb	r4, [r3, #0]
 8002d00:	d81c      	bhi.n	8002d3c <tui_handle_key+0x44>
 8002d02:	282a      	cmp	r0, #42	@ 0x2a
 8002d04:	d801      	bhi.n	8002d0a <tui_handle_key+0x12>
 8002d06:	b004      	add	sp, #16
 8002d08:	bd70      	pop	{r4, r5, r6, pc}
 8002d0a:	f1a0 022b 	sub.w	r2, r0, #43	@ 0x2b
 8002d0e:	2a08      	cmp	r2, #8
 8002d10:	d8f9      	bhi.n	8002d06 <tui_handle_key+0xe>
 8002d12:	a101      	add	r1, pc, #4	@ (adr r1, 8002d18 <tui_handle_key+0x20>)
 8002d14:	f851 f022 	ldr.w	pc, [r1, r2, lsl #2]
 8002d18:	08002ecf 	.word	0x08002ecf
 8002d1c:	08002d07 	.word	0x08002d07
 8002d20:	08002f05 	.word	0x08002f05
 8002d24:	08002d07 	.word	0x08002d07
 8002d28:	08002d07 	.word	0x08002d07
 8002d2c:	08002f37 	.word	0x08002f37
 8002d30:	08002e39 	.word	0x08002e39
 8002d34:	08002e39 	.word	0x08002e39
 8002d38:	08002e39 	.word	0x08002e39
 8002d3c:	3841      	subs	r0, #65	@ 0x41
 8002d3e:	b2c3      	uxtb	r3, r0
 8002d40:	2b39      	cmp	r3, #57	@ 0x39
 8002d42:	d8e0      	bhi.n	8002d06 <tui_handle_key+0xe>
 8002d44:	2839      	cmp	r0, #57	@ 0x39
 8002d46:	d8de      	bhi.n	8002d06 <tui_handle_key+0xe>
 8002d48:	a301      	add	r3, pc, #4	@ (adr r3, 8002d50 <tui_handle_key+0x58>)
 8002d4a:	f853 f020 	ldr.w	pc, [r3, r0, lsl #2]
 8002d4e:	bf00      	nop
 8002d50:	08002f47 	.word	0x08002f47
 8002d54:	08002d07 	.word	0x08002d07
 8002d58:	08002fa1 	.word	0x08002fa1
 8002d5c:	08002e9d 	.word	0x08002e9d
 8002d60:	08002e87 	.word	0x08002e87
 8002d64:	08002eb7 	.word	0x08002eb7
 8002d68:	08002d07 	.word	0x08002d07
 8002d6c:	08002d07 	.word	0x08002d07
 8002d70:	08002d07 	.word	0x08002d07
 8002d74:	08002d07 	.word	0x08002d07
 8002d78:	08002d07 	.word	0x08002d07
 8002d7c:	08002d07 	.word	0x08002d07
 8002d80:	08002d07 	.word	0x08002d07
 8002d84:	08002d07 	.word	0x08002d07
 8002d88:	08002d07 	.word	0x08002d07
 8002d8c:	08002d07 	.word	0x08002d07
 8002d90:	08002fb3 	.word	0x08002fb3
 8002d94:	08002ec3 	.word	0x08002ec3
 8002d98:	08002eab 	.word	0x08002eab
 8002d9c:	08002f97 	.word	0x08002f97
 8002da0:	08002d07 	.word	0x08002d07
 8002da4:	08002d07 	.word	0x08002d07
 8002da8:	08002d07 	.word	0x08002d07
 8002dac:	08002d07 	.word	0x08002d07
 8002db0:	08002d07 	.word	0x08002d07
 8002db4:	08002f8f 	.word	0x08002f8f
 8002db8:	08002d07 	.word	0x08002d07
 8002dbc:	08002d07 	.word	0x08002d07
 8002dc0:	08002d07 	.word	0x08002d07
 8002dc4:	08002d07 	.word	0x08002d07
 8002dc8:	08002d07 	.word	0x08002d07
 8002dcc:	08002d07 	.word	0x08002d07
 8002dd0:	08002f47 	.word	0x08002f47
 8002dd4:	08002d07 	.word	0x08002d07
 8002dd8:	08002fa1 	.word	0x08002fa1
 8002ddc:	08002e9d 	.word	0x08002e9d
 8002de0:	08002e87 	.word	0x08002e87
 8002de4:	08002eb7 	.word	0x08002eb7
 8002de8:	08002d07 	.word	0x08002d07
 8002dec:	08002d07 	.word	0x08002d07
 8002df0:	08002d07 	.word	0x08002d07
 8002df4:	08002d07 	.word	0x08002d07
 8002df8:	08002d07 	.word	0x08002d07
 8002dfc:	08002d07 	.word	0x08002d07
 8002e00:	08002d07 	.word	0x08002d07
 8002e04:	08002d07 	.word	0x08002d07
 8002e08:	08002d07 	.word	0x08002d07
 8002e0c:	08002d07 	.word	0x08002d07
 8002e10:	08002fb3 	.word	0x08002fb3
 8002e14:	08002ec3 	.word	0x08002ec3
 8002e18:	08002eab 	.word	0x08002eab
 8002e1c:	08002f97 	.word	0x08002f97
 8002e20:	08002d07 	.word	0x08002d07
 8002e24:	08002d07 	.word	0x08002d07
 8002e28:	08002d07 	.word	0x08002d07
 8002e2c:	08002d07 	.word	0x08002d07
 8002e30:	08002d07 	.word	0x08002d07
 8002e34:	08002f8f 	.word	0x08002f8f
 8002e38:	3831      	subs	r0, #49	@ 0x31
 8002e3a:	b2c0      	uxtb	r0, r0
 8002e3c:	7018      	strb	r0, [r3, #0]
 8002e3e:	f44f 738a 	mov.w	r3, #276	@ 0x114
 8002e42:	4964      	ldr	r1, [pc, #400]	@ (8002fd4 <tui_handle_key+0x2dc>)
 8002e44:	4a64      	ldr	r2, [pc, #400]	@ (8002fd8 <tui_handle_key+0x2e0>)
 8002e46:	fb03 1100 	mla	r1, r3, r0, r1
 8002e4a:	2300      	movs	r3, #0
 8002e4c:	7b0c      	ldrb	r4, [r1, #12]
 8002e4e:	7815      	ldrb	r5, [r2, #0]
 8002e50:	42a5      	cmp	r5, r4
 8002e52:	d107      	bne.n	8002e64 <tui_handle_key+0x16c>
 8002e54:	7856      	ldrb	r6, [r2, #1]
 8002e56:	7b4d      	ldrb	r5, [r1, #13]
 8002e58:	42ae      	cmp	r6, r5
 8002e5a:	d103      	bne.n	8002e64 <tui_handle_key+0x16c>
 8002e5c:	7896      	ldrb	r6, [r2, #2]
 8002e5e:	7b8d      	ldrb	r5, [r1, #14]
 8002e60:	42ae      	cmp	r6, r5
 8002e62:	d00e      	beq.n	8002e82 <tui_handle_key+0x18a>
 8002e64:	3301      	adds	r3, #1
 8002e66:	2b06      	cmp	r3, #6
 8002e68:	f102 0203 	add.w	r2, r2, #3
 8002e6c:	d1ef      	bne.n	8002e4e <tui_handle_key+0x156>
 8002e6e:	2300      	movs	r3, #0
 8002e70:	4a5a      	ldr	r2, [pc, #360]	@ (8002fdc <tui_handle_key+0x2e4>)
 8002e72:	5413      	strb	r3, [r2, r0]
 8002e74:	485a      	ldr	r0, [pc, #360]	@ (8002fe0 <tui_handle_key+0x2e8>)
 8002e76:	f7ff fee1 	bl	8002c3c <tui_set_status>
 8002e7a:	2201      	movs	r2, #1
 8002e7c:	4b59      	ldr	r3, [pc, #356]	@ (8002fe4 <tui_handle_key+0x2ec>)
 8002e7e:	701a      	strb	r2, [r3, #0]
 8002e80:	e741      	b.n	8002d06 <tui_handle_key+0xe>
 8002e82:	b2db      	uxtb	r3, r3
 8002e84:	e7f4      	b.n	8002e70 <tui_handle_key+0x178>
 8002e86:	4620      	mov	r0, r4
 8002e88:	f7ff fec8 	bl	8002c1c <rx_flush>
 8002e8c:	f7ff fc24 	bl	80026d8 <Motor_Enable>
 8002e90:	4855      	ldr	r0, [pc, #340]	@ (8002fe8 <tui_handle_key+0x2f0>)
 8002e92:	b004      	add	sp, #16
 8002e94:	e8bd 4070 	ldmia.w	sp!, {r4, r5, r6, lr}
 8002e98:	f7ff bed0 	b.w	8002c3c <tui_set_status>
 8002e9c:	4620      	mov	r0, r4
 8002e9e:	f7ff febd 	bl	8002c1c <rx_flush>
 8002ea2:	f7ff fc33 	bl	800270c <Motor_Disable>
 8002ea6:	4851      	ldr	r0, [pc, #324]	@ (8002fec <tui_handle_key+0x2f4>)
 8002ea8:	e7f3      	b.n	8002e92 <tui_handle_key+0x19a>
 8002eaa:	f7ff feb7 	bl	8002c1c <rx_flush>
 8002eae:	f7ff fbe5 	bl	800267c <Motor_SafeAll>
 8002eb2:	484f      	ldr	r0, [pc, #316]	@ (8002ff0 <tui_handle_key+0x2f8>)
 8002eb4:	e7ed      	b.n	8002e92 <tui_handle_key+0x19a>
 8002eb6:	4620      	mov	r0, r4
 8002eb8:	2100      	movs	r1, #0
 8002eba:	f7ff fc01 	bl	80026c0 <Motor_SetDir>
 8002ebe:	484d      	ldr	r0, [pc, #308]	@ (8002ff4 <tui_handle_key+0x2fc>)
 8002ec0:	e7e7      	b.n	8002e92 <tui_handle_key+0x19a>
 8002ec2:	4620      	mov	r0, r4
 8002ec4:	2101      	movs	r1, #1
 8002ec6:	f7ff fbfb 	bl	80026c0 <Motor_SetDir>
 8002eca:	484b      	ldr	r0, [pc, #300]	@ (8002ff8 <tui_handle_key+0x300>)
 8002ecc:	e7e1      	b.n	8002e92 <tui_handle_key+0x19a>
 8002ece:	f001 fcd1 	bl	8004874 <HAL_GetTick>
 8002ed2:	4a4a      	ldr	r2, [pc, #296]	@ (8002ffc <tui_handle_key+0x304>)
 8002ed4:	6813      	ldr	r3, [r2, #0]
 8002ed6:	1ac3      	subs	r3, r0, r3
 8002ed8:	2b4f      	cmp	r3, #79	@ 0x4f
 8002eda:	f67f af14 	bls.w	8002d06 <tui_handle_key+0xe>
 8002ede:	6010      	str	r0, [r2, #0]
 8002ee0:	f44f 728a 	mov.w	r2, #276	@ 0x114
 8002ee4:	4b3b      	ldr	r3, [pc, #236]	@ (8002fd4 <tui_handle_key+0x2dc>)
 8002ee6:	4620      	mov	r0, r4
 8002ee8:	fb02 3304 	mla	r3, r2, r4, r3
 8002eec:	8899      	ldrh	r1, [r3, #4]
 8002eee:	310a      	adds	r1, #10
 8002ef0:	b289      	uxth	r1, r1
 8002ef2:	f5b1 6fb4 	cmp.w	r1, #1440	@ 0x5a0
 8002ef6:	bf28      	it	cs
 8002ef8:	f44f 61b4 	movcs.w	r1, #1440	@ 0x5a0
 8002efc:	f7ff fbd0 	bl	80026a0 <Motor_SetDuty>
 8002f00:	483f      	ldr	r0, [pc, #252]	@ (8003000 <tui_handle_key+0x308>)
 8002f02:	e7c6      	b.n	8002e92 <tui_handle_key+0x19a>
 8002f04:	f001 fcb6 	bl	8004874 <HAL_GetTick>
 8002f08:	4a3c      	ldr	r2, [pc, #240]	@ (8002ffc <tui_handle_key+0x304>)
 8002f0a:	6813      	ldr	r3, [r2, #0]
 8002f0c:	1ac3      	subs	r3, r0, r3
 8002f0e:	2b4f      	cmp	r3, #79	@ 0x4f
 8002f10:	f67f aef9 	bls.w	8002d06 <tui_handle_key+0xe>
 8002f14:	6010      	str	r0, [r2, #0]
 8002f16:	f44f 728a 	mov.w	r2, #276	@ 0x114
 8002f1a:	4b2e      	ldr	r3, [pc, #184]	@ (8002fd4 <tui_handle_key+0x2dc>)
 8002f1c:	4620      	mov	r0, r4
 8002f1e:	fb02 3304 	mla	r3, r2, r4, r3
 8002f22:	8899      	ldrh	r1, [r3, #4]
 8002f24:	290a      	cmp	r1, #10
 8002f26:	bf38      	it	cc
 8002f28:	210a      	movcc	r1, #10
 8002f2a:	390a      	subs	r1, #10
 8002f2c:	b289      	uxth	r1, r1
 8002f2e:	f7ff fbb7 	bl	80026a0 <Motor_SetDuty>
 8002f32:	4834      	ldr	r0, [pc, #208]	@ (8003004 <tui_handle_key+0x30c>)
 8002f34:	e7ad      	b.n	8002e92 <tui_handle_key+0x19a>
 8002f36:	4620      	mov	r0, r4
 8002f38:	2100      	movs	r1, #0
 8002f3a:	f7ff fe6f 	bl	8002c1c <rx_flush>
 8002f3e:	f7ff fbaf 	bl	80026a0 <Motor_SetDuty>
 8002f42:	4831      	ldr	r0, [pc, #196]	@ (8003008 <tui_handle_key+0x310>)
 8002f44:	e7a5      	b.n	8002e92 <tui_handle_key+0x19a>
 8002f46:	4e25      	ldr	r6, [pc, #148]	@ (8002fdc <tui_handle_key+0x2e4>)
 8002f48:	5d33      	ldrb	r3, [r6, r4]
 8002f4a:	3301      	adds	r3, #1
 8002f4c:	2206      	movs	r2, #6
 8002f4e:	fbb3 f1f2 	udiv	r1, r3, r2
 8002f52:	fb02 3311 	mls	r3, r2, r1, r3
 8002f56:	4d20      	ldr	r5, [pc, #128]	@ (8002fd8 <tui_handle_key+0x2e0>)
 8002f58:	eb03 0143 	add.w	r1, r3, r3, lsl #1
 8002f5c:	186a      	adds	r2, r5, r1
 8002f5e:	4620      	mov	r0, r4
 8002f60:	5c69      	ldrb	r1, [r5, r1]
 8002f62:	5533      	strb	r3, [r6, r4]
 8002f64:	7893      	ldrb	r3, [r2, #2]
 8002f66:	7852      	ldrb	r2, [r2, #1]
 8002f68:	f7ff fc38 	bl	80027dc <Motor_SetPhaseMap>
 8002f6c:	5d33      	ldrb	r3, [r6, r4]
 8002f6e:	4827      	ldr	r0, [pc, #156]	@ (800300c <tui_handle_key+0x314>)
 8002f70:	eb03 0243 	add.w	r2, r3, r3, lsl #1
 8002f74:	18a9      	adds	r1, r5, r2
 8002f76:	3301      	adds	r3, #1
 8002f78:	9302      	str	r3, [sp, #8]
 8002f7a:	788b      	ldrb	r3, [r1, #2]
 8002f7c:	9301      	str	r3, [sp, #4]
 8002f7e:	784b      	ldrb	r3, [r1, #1]
 8002f80:	2150      	movs	r1, #80	@ 0x50
 8002f82:	9300      	str	r3, [sp, #0]
 8002f84:	5cab      	ldrb	r3, [r5, r2]
 8002f86:	4a22      	ldr	r2, [pc, #136]	@ (8003010 <tui_handle_key+0x318>)
 8002f88:	f004 fde6 	bl	8007b58 <sniprintf>
 8002f8c:	e6bb      	b.n	8002d06 <tui_handle_key+0xe>
 8002f8e:	4e13      	ldr	r6, [pc, #76]	@ (8002fdc <tui_handle_key+0x2e4>)
 8002f90:	5d33      	ldrb	r3, [r6, r4]
 8002f92:	3305      	adds	r3, #5
 8002f94:	e7da      	b.n	8002f4c <tui_handle_key+0x254>
 8002f96:	4620      	mov	r0, r4
 8002f98:	f7ff fc02 	bl	80027a0 <Motor_ResetTicks>
 8002f9c:	481d      	ldr	r0, [pc, #116]	@ (8003014 <tui_handle_key+0x31c>)
 8002f9e:	e778      	b.n	8002e92 <tui_handle_key+0x19a>
 8002fa0:	4620      	mov	r0, r4
 8002fa2:	f7ff fc09 	bl	80027b8 <Motor_ClearHallRing>
 8002fa6:	2200      	movs	r2, #0
 8002fa8:	4b1b      	ldr	r3, [pc, #108]	@ (8003018 <tui_handle_key+0x320>)
 8002faa:	481c      	ldr	r0, [pc, #112]	@ (800301c <tui_handle_key+0x324>)
 8002fac:	f843 2024 	str.w	r2, [r3, r4, lsl #2]
 8002fb0:	e76f      	b.n	8002e92 <tui_handle_key+0x19a>
 8002fb2:	f7ff fe33 	bl	8002c1c <rx_flush>
 8002fb6:	2201      	movs	r2, #1
 8002fb8:	4b19      	ldr	r3, [pc, #100]	@ (8003020 <tui_handle_key+0x328>)
 8002fba:	481a      	ldr	r0, [pc, #104]	@ (8003024 <tui_handle_key+0x32c>)
 8002fbc:	701a      	strb	r2, [r3, #0]
 8002fbe:	f7ff fe81 	bl	8002cc4 <USBCMD_Send>
 8002fc2:	4819      	ldr	r0, [pc, #100]	@ (8003028 <tui_handle_key+0x330>)
 8002fc4:	b004      	add	sp, #16
 8002fc6:	e8bd 4070 	ldmia.w	sp!, {r4, r5, r6, lr}
 8002fca:	f7ff be7b 	b.w	8002cc4 <USBCMD_Send>
 8002fce:	bf00      	nop
 8002fd0:	2000067c 	.word	0x2000067c
 8002fd4:	20000320 	.word	0x20000320
 8002fd8:	08009eed 	.word	0x08009eed
 8002fdc:	20000660 	.word	0x20000660
 8002fe0:	08008eb5 	.word	0x08008eb5
 8002fe4:	20000050 	.word	0x20000050
 8002fe8:	08008ec5 	.word	0x08008ec5
 8002fec:	08008ed4 	.word	0x08008ed4
 8002ff0:	08008ee4 	.word	0x08008ee4
 8002ff4:	08008ef1 	.word	0x08008ef1
 8002ff8:	08008f05 	.word	0x08008f05
 8002ffc:	20000674 	.word	0x20000674
 8003000:	08008f19 	.word	0x08008f19
 8003004:	08008f23 	.word	0x08008f23
 8003008:	08008f2d 	.word	0x08008f2d
 800300c:	20000000 	.word	0x20000000
 8003010:	08008f3a 	.word	0x08008f3a
 8003014:	08008f5e 	.word	0x08008f5e
 8003018:	20000664 	.word	0x20000664
 800301c:	08008f6b 	.word	0x08008f6b
 8003020:	2000067d 	.word	0x2000067d
 8003024:	08008f82 	.word	0x08008f82
 8003028:	08008f8a 	.word	0x08008f8a

0800302c <tui_goto.constprop.0>:
 800302c:	b507      	push	{r0, r1, r2, lr}
 800302e:	2201      	movs	r2, #1
 8003030:	4603      	mov	r3, r0
 8003032:	9200      	str	r2, [sp, #0]
 8003034:	f44f 7100 	mov.w	r1, #512	@ 0x200
 8003038:	4a04      	ldr	r2, [pc, #16]	@ (800304c <tui_goto.constprop.0+0x20>)
 800303a:	4805      	ldr	r0, [pc, #20]	@ (8003050 <tui_goto.constprop.0+0x24>)
 800303c:	f004 fd8c 	bl	8007b58 <sniprintf>
 8003040:	4803      	ldr	r0, [pc, #12]	@ (8003050 <tui_goto.constprop.0+0x24>)
 8003042:	b003      	add	sp, #12
 8003044:	f85d eb04 	ldr.w	lr, [sp], #4
 8003048:	f7ff be3c 	b.w	8002cc4 <USBCMD_Send>
 800304c:	08008fb7 	.word	0x08008fb7
 8003050:	2000067e 	.word	0x2000067e

08003054 <tui_draw_status>:
 8003054:	b508      	push	{r3, lr}
 8003056:	2012      	movs	r0, #18
 8003058:	f7ff ffe8 	bl	800302c <tui_goto.constprop.0>
 800305c:	f7ff fe46 	bl	8002cec <tui_erase_line>
 8003060:	4b05      	ldr	r3, [pc, #20]	@ (8003078 <tui_draw_status+0x24>)
 8003062:	f44f 7100 	mov.w	r1, #512	@ 0x200
 8003066:	4a05      	ldr	r2, [pc, #20]	@ (800307c <tui_draw_status+0x28>)
 8003068:	4805      	ldr	r0, [pc, #20]	@ (8003080 <tui_draw_status+0x2c>)
 800306a:	f004 fd75 	bl	8007b58 <sniprintf>
 800306e:	e8bd 4008 	ldmia.w	sp!, {r3, lr}
 8003072:	4803      	ldr	r0, [pc, #12]	@ (8003080 <tui_draw_status+0x2c>)
 8003074:	f7ff be26 	b.w	8002cc4 <USBCMD_Send>
 8003078:	20000000 	.word	0x20000000
 800307c:	08008fc0 	.word	0x08008fc0
 8003080:	2000067e 	.word	0x2000067e

08003084 <tui_draw_gpio>:
 8003084:	b51f      	push	{r0, r1, r2, r3, r4, lr}
 8003086:	200e      	movs	r0, #14
 8003088:	f7ff ffd0 	bl	800302c <tui_goto.constprop.0>
 800308c:	f7ff fe2e 	bl	8002cec <tui_erase_line>
 8003090:	4a0b      	ldr	r2, [pc, #44]	@ (80030c0 <tui_draw_gpio+0x3c>)
 8003092:	68d3      	ldr	r3, [r2, #12]
 8003094:	6891      	ldr	r1, [r2, #8]
 8003096:	f8d2 040c 	ldr.w	r0, [r2, #1036]	@ 0x40c
 800309a:	f502 6280 	add.w	r2, r2, #1024	@ 0x400
 800309e:	6892      	ldr	r2, [r2, #8]
 80030a0:	9100      	str	r1, [sp, #0]
 80030a2:	e9cd 0201 	strd	r0, r2, [sp, #4]
 80030a6:	f44f 7100 	mov.w	r1, #512	@ 0x200
 80030aa:	4a06      	ldr	r2, [pc, #24]	@ (80030c4 <tui_draw_gpio+0x40>)
 80030ac:	4806      	ldr	r0, [pc, #24]	@ (80030c8 <tui_draw_gpio+0x44>)
 80030ae:	f004 fd53 	bl	8007b58 <sniprintf>
 80030b2:	4805      	ldr	r0, [pc, #20]	@ (80030c8 <tui_draw_gpio+0x44>)
 80030b4:	b005      	add	sp, #20
 80030b6:	f85d eb04 	ldr.w	lr, [sp], #4
 80030ba:	f7ff be03 	b.w	8002cc4 <USBCMD_Send>
 80030be:	bf00      	nop
 80030c0:	40010800 	.word	0x40010800
 80030c4:	08008fcc 	.word	0x08008fcc
 80030c8:	2000067e 	.word	0x2000067e

080030cc <tui_draw_summary>:
 80030cc:	b57f      	push	{r0, r1, r2, r3, r4, r5, r6, lr}
 80030ce:	200d      	movs	r0, #13
 80030d0:	f7ff ffac 	bl	800302c <tui_goto.constprop.0>
 80030d4:	f7ff fe0a 	bl	8002cec <tui_erase_line>
 80030d8:	4812      	ldr	r0, [pc, #72]	@ (8003124 <tui_draw_summary+0x58>)
 80030da:	f7ff fdf3 	bl	8002cc4 <USBCMD_Send>
 80030de:	2501      	movs	r5, #1
 80030e0:	4c11      	ldr	r4, [pc, #68]	@ (8003128 <tui_draw_summary+0x5c>)
 80030e2:	4e12      	ldr	r6, [pc, #72]	@ (800312c <tui_draw_summary+0x60>)
 80030e4:	7823      	ldrb	r3, [r4, #0]
 80030e6:	4a12      	ldr	r2, [pc, #72]	@ (8003130 <tui_draw_summary+0x64>)
 80030e8:	78a0      	ldrb	r0, [r4, #2]
 80030ea:	2b00      	cmp	r3, #0
 80030ec:	bf18      	it	ne
 80030ee:	4632      	movne	r2, r6
 80030f0:	4910      	ldr	r1, [pc, #64]	@ (8003134 <tui_draw_summary+0x68>)
 80030f2:	4b11      	ldr	r3, [pc, #68]	@ (8003138 <tui_draw_summary+0x6c>)
 80030f4:	2800      	cmp	r0, #0
 80030f6:	bf08      	it	eq
 80030f8:	460b      	moveq	r3, r1
 80030fa:	88a1      	ldrh	r1, [r4, #4]
 80030fc:	480f      	ldr	r0, [pc, #60]	@ (800313c <tui_draw_summary+0x70>)
 80030fe:	e9cd 3101 	strd	r3, r1, [sp, #4]
 8003102:	9200      	str	r2, [sp, #0]
 8003104:	462b      	mov	r3, r5
 8003106:	f44f 7100 	mov.w	r1, #512	@ 0x200
 800310a:	4a0d      	ldr	r2, [pc, #52]	@ (8003140 <tui_draw_summary+0x74>)
 800310c:	f004 fd24 	bl	8007b58 <sniprintf>
 8003110:	3501      	adds	r5, #1
 8003112:	480a      	ldr	r0, [pc, #40]	@ (800313c <tui_draw_summary+0x70>)
 8003114:	f7ff fdd6 	bl	8002cc4 <USBCMD_Send>
 8003118:	2d04      	cmp	r5, #4
 800311a:	f504 748a 	add.w	r4, r4, #276	@ 0x114
 800311e:	d1e1      	bne.n	80030e4 <tui_draw_summary+0x18>
 8003120:	b004      	add	sp, #16
 8003122:	bd70      	pop	{r4, r5, r6, pc}
 8003124:	0800903f 	.word	0x0800903f
 8003128:	20000320 	.word	0x20000320
 800312c:	08009026 	.word	0x08009026
 8003130:	08009032 	.word	0x08009032
 8003134:	08009eda 	.word	0x08009eda
 8003138:	0800957c 	.word	0x0800957c
 800313c:	2000067e 	.word	0x2000067e
 8003140:	08009046 	.word	0x08009046

08003144 <tui_draw_motor_panel>:
 8003144:	e92d 4ff0 	stmdb	sp!, {r4, r5, r6, r7, r8, r9, sl, fp, lr}
 8003148:	4b8d      	ldr	r3, [pc, #564]	@ (8003380 <tui_draw_motor_panel+0x23c>)
 800314a:	2005      	movs	r0, #5
 800314c:	b087      	sub	sp, #28
 800314e:	781d      	ldrb	r5, [r3, #0]
 8003150:	f7ff ff6c 	bl	800302c <tui_goto.constprop.0>
 8003154:	f7ff fdca 	bl	8002cec <tui_erase_line>
 8003158:	488a      	ldr	r0, [pc, #552]	@ (8003384 <tui_draw_motor_panel+0x240>)
 800315a:	f7ff fdb3 	bl	8002cc4 <USBCMD_Send>
 800315e:	f44f 738a 	mov.w	r3, #276	@ 0x114
 8003162:	436b      	muls	r3, r5
 8003164:	4c88      	ldr	r4, [pc, #544]	@ (8003388 <tui_draw_motor_panel+0x244>)
 8003166:	5ce3      	ldrb	r3, [r4, r3]
 8003168:	2b00      	cmp	r3, #0
 800316a:	f000 80ba 	beq.w	80032e2 <tui_draw_motor_panel+0x19e>
 800316e:	4887      	ldr	r0, [pc, #540]	@ (800338c <tui_draw_motor_panel+0x248>)
 8003170:	f7ff fda8 	bl	8002cc4 <USBCMD_Send>
 8003174:	4886      	ldr	r0, [pc, #536]	@ (8003390 <tui_draw_motor_panel+0x24c>)
 8003176:	f7ff fda5 	bl	8002cc4 <USBCMD_Send>
 800317a:	2006      	movs	r0, #6
 800317c:	f7ff ff56 	bl	800302c <tui_goto.constprop.0>
 8003180:	f7ff fdb4 	bl	8002cec <tui_erase_line>
 8003184:	4883      	ldr	r0, [pc, #524]	@ (8003394 <tui_draw_motor_panel+0x250>)
 8003186:	f7ff fd9d 	bl	8002cc4 <USBCMD_Send>
 800318a:	f44f 738a 	mov.w	r3, #276	@ 0x114
 800318e:	fb03 4305 	mla	r3, r3, r5, r4
 8003192:	789b      	ldrb	r3, [r3, #2]
 8003194:	2b00      	cmp	r3, #0
 8003196:	f040 80a6 	bne.w	80032e6 <tui_draw_motor_panel+0x1a2>
 800319a:	487f      	ldr	r0, [pc, #508]	@ (8003398 <tui_draw_motor_panel+0x254>)
 800319c:	f7ff fd92 	bl	8002cc4 <USBCMD_Send>
 80031a0:	487e      	ldr	r0, [pc, #504]	@ (800339c <tui_draw_motor_panel+0x258>)
 80031a2:	f7ff fd8f 	bl	8002cc4 <USBCMD_Send>
 80031a6:	2007      	movs	r0, #7
 80031a8:	f7ff ff40 	bl	800302c <tui_goto.constprop.0>
 80031ac:	f7ff fd9e 	bl	8002cec <tui_erase_line>
 80031b0:	487b      	ldr	r0, [pc, #492]	@ (80033a0 <tui_draw_motor_panel+0x25c>)
 80031b2:	f7ff fd87 	bl	8002cc4 <USBCMD_Send>
 80031b6:	f44f 738a 	mov.w	r3, #276	@ 0x114
 80031ba:	fb03 4305 	mla	r3, r3, r5, r4
 80031be:	889e      	ldrh	r6, [r3, #4]
 80031c0:	2314      	movs	r3, #20
 80031c2:	435e      	muls	r6, r3
 80031c4:	f44f 63b4 	mov.w	r3, #1440	@ 0x5a0
 80031c8:	4876      	ldr	r0, [pc, #472]	@ (80033a4 <tui_draw_motor_panel+0x260>)
 80031ca:	fbb6 f6f3 	udiv	r6, r6, r3
 80031ce:	2700      	movs	r7, #0
 80031d0:	f7ff fd78 	bl	8002cc4 <USBCMD_Send>
 80031d4:	f8df 81d0 	ldr.w	r8, [pc, #464]	@ 80033a8 <tui_draw_motor_panel+0x264>
 80031d8:	b2f6      	uxtb	r6, r6
 80031da:	4b74      	ldr	r3, [pc, #464]	@ (80033ac <tui_draw_motor_panel+0x268>)
 80031dc:	b2f8      	uxtb	r0, r7
 80031de:	42b0      	cmp	r0, r6
 80031e0:	bf38      	it	cc
 80031e2:	4643      	movcc	r3, r8
 80031e4:	3701      	adds	r7, #1
 80031e6:	4618      	mov	r0, r3
 80031e8:	f7ff fd6c 	bl	8002cc4 <USBCMD_Send>
 80031ec:	2f14      	cmp	r7, #20
 80031ee:	d1f4      	bne.n	80031da <tui_draw_motor_panel+0x96>
 80031f0:	f44f 768a 	mov.w	r6, #276	@ 0x114
 80031f4:	486e      	ldr	r0, [pc, #440]	@ (80033b0 <tui_draw_motor_panel+0x26c>)
 80031f6:	f7ff fd65 	bl	8002cc4 <USBCMD_Send>
 80031fa:	f44f 62b4 	mov.w	r2, #1440	@ 0x5a0
 80031fe:	fb06 4605 	mla	r6, r6, r5, r4
 8003202:	f44f 7100 	mov.w	r1, #512	@ 0x200
 8003206:	88b3      	ldrh	r3, [r6, #4]
 8003208:	486a      	ldr	r0, [pc, #424]	@ (80033b4 <tui_draw_motor_panel+0x270>)
 800320a:	9200      	str	r2, [sp, #0]
 800320c:	4a6a      	ldr	r2, [pc, #424]	@ (80033b8 <tui_draw_motor_panel+0x274>)
 800320e:	f004 fca3 	bl	8007b58 <sniprintf>
 8003212:	4868      	ldr	r0, [pc, #416]	@ (80033b4 <tui_draw_motor_panel+0x270>)
 8003214:	f7ff fd56 	bl	8002cc4 <USBCMD_Send>
 8003218:	2008      	movs	r0, #8
 800321a:	f7ff ff07 	bl	800302c <tui_goto.constprop.0>
 800321e:	f7ff fd65 	bl	8002cec <tui_erase_line>
 8003222:	4628      	mov	r0, r5
 8003224:	f7ff fa86 	bl	8002734 <Motor_ReadHall>
 8003228:	4603      	mov	r3, r0
 800322a:	f3c0 0180 	ubfx	r1, r0, #2, #1
 800322e:	68b6      	ldr	r6, [r6, #8]
 8003230:	4a62      	ldr	r2, [pc, #392]	@ (80033bc <tui_draw_motor_panel+0x278>)
 8003232:	f3c0 0040 	ubfx	r0, r0, #1, #1
 8003236:	f003 0701 	and.w	r7, r3, #1
 800323a:	b123      	cbz	r3, 8003246 <tui_draw_motor_panel+0x102>
 800323c:	f8df c180 	ldr.w	ip, [pc, #384]	@ 80033c0 <tui_draw_motor_panel+0x27c>
 8003240:	2b07      	cmp	r3, #7
 8003242:	bf18      	it	ne
 8003244:	4662      	movne	r2, ip
 8003246:	e9cd 6203 	strd	r6, r2, [sp, #12]
 800324a:	e9cd 0701 	strd	r0, r7, [sp, #4]
 800324e:	4a5d      	ldr	r2, [pc, #372]	@ (80033c4 <tui_draw_motor_panel+0x280>)
 8003250:	9100      	str	r1, [sp, #0]
 8003252:	4858      	ldr	r0, [pc, #352]	@ (80033b4 <tui_draw_motor_panel+0x270>)
 8003254:	f44f 7100 	mov.w	r1, #512	@ 0x200
 8003258:	f004 fc7e 	bl	8007b58 <sniprintf>
 800325c:	4855      	ldr	r0, [pc, #340]	@ (80033b4 <tui_draw_motor_panel+0x270>)
 800325e:	f7ff fd31 	bl	8002cc4 <USBCMD_Send>
 8003262:	2009      	movs	r0, #9
 8003264:	f7ff fee2 	bl	800302c <tui_goto.constprop.0>
 8003268:	f7ff fd40 	bl	8002cec <tui_erase_line>
 800326c:	4856      	ldr	r0, [pc, #344]	@ (80033c8 <tui_draw_motor_panel+0x284>)
 800326e:	f7ff fd29 	bl	8002cc4 <USBCMD_Send>
 8003272:	f44f 738a 	mov.w	r3, #276	@ 0x114
 8003276:	fb03 4305 	mla	r3, r3, r5, r4
 800327a:	f8df 9150 	ldr.w	r9, [pc, #336]	@ 80033cc <tui_draw_motor_panel+0x288>
 800327e:	f8d3 8110 	ldr.w	r8, [r3, #272]	@ 0x110
 8003282:	f859 6025 	ldr.w	r6, [r9, r5, lsl #2]
 8003286:	4546      	cmp	r6, r8
 8003288:	bf28      	it	cs
 800328a:	4646      	movcs	r6, r8
 800328c:	eba8 0706 	sub.w	r7, r8, r6
 8003290:	2f14      	cmp	r7, #20
 8003292:	d92a      	bls.n	80032ea <tui_draw_motor_panel+0x1a6>
 8003294:	f1a7 0314 	sub.w	r3, r7, #20
 8003298:	f44f 7100 	mov.w	r1, #512	@ 0x200
 800329c:	4a4c      	ldr	r2, [pc, #304]	@ (80033d0 <tui_draw_motor_panel+0x28c>)
 800329e:	4845      	ldr	r0, [pc, #276]	@ (80033b4 <tui_draw_motor_panel+0x270>)
 80032a0:	441e      	add	r6, r3
 80032a2:	f004 fc59 	bl	8007b58 <sniprintf>
 80032a6:	4843      	ldr	r0, [pc, #268]	@ (80033b4 <tui_draw_motor_panel+0x270>)
 80032a8:	f7ff fd0c 	bl	8002cc4 <USBCMD_Send>
 80032ac:	2714      	movs	r7, #20
 80032ae:	f44f 7b8a 	mov.w	fp, #276	@ 0x114
 80032b2:	f04f 0a00 	mov.w	sl, #0
 80032b6:	fb0b 4b05 	mla	fp, fp, r5, r4
 80032ba:	eb0a 0306 	add.w	r3, sl, r6
 80032be:	b2db      	uxtb	r3, r3
 80032c0:	445b      	add	r3, fp
 80032c2:	f44f 7100 	mov.w	r1, #512	@ 0x200
 80032c6:	7c1b      	ldrb	r3, [r3, #16]
 80032c8:	4a42      	ldr	r2, [pc, #264]	@ (80033d4 <tui_draw_motor_panel+0x290>)
 80032ca:	483a      	ldr	r0, [pc, #232]	@ (80033b4 <tui_draw_motor_panel+0x270>)
 80032cc:	f004 fc44 	bl	8007b58 <sniprintf>
 80032d0:	f10a 0a01 	add.w	sl, sl, #1
 80032d4:	4837      	ldr	r0, [pc, #220]	@ (80033b4 <tui_draw_motor_panel+0x270>)
 80032d6:	f7ff fcf5 	bl	8002cc4 <USBCMD_Send>
 80032da:	45ba      	cmp	sl, r7
 80032dc:	d1ed      	bne.n	80032ba <tui_draw_motor_panel+0x176>
 80032de:	4456      	add	r6, sl
 80032e0:	e016      	b.n	8003310 <tui_draw_motor_panel+0x1cc>
 80032e2:	483d      	ldr	r0, [pc, #244]	@ (80033d8 <tui_draw_motor_panel+0x294>)
 80032e4:	e744      	b.n	8003170 <tui_draw_motor_panel+0x2c>
 80032e6:	483d      	ldr	r0, [pc, #244]	@ (80033dc <tui_draw_motor_panel+0x298>)
 80032e8:	e758      	b.n	800319c <tui_draw_motor_panel+0x58>
 80032ea:	2f00      	cmp	r7, #0
 80032ec:	d1df      	bne.n	80032ae <tui_draw_motor_panel+0x16a>
 80032ee:	f1b8 0f00 	cmp.w	r8, #0
 80032f2:	d042      	beq.n	800337a <tui_draw_motor_panel+0x236>
 80032f4:	f108 32ff 	add.w	r2, r8, #4294967295
 80032f8:	b2d2      	uxtb	r2, r2
 80032fa:	4413      	add	r3, r2
 80032fc:	f44f 7100 	mov.w	r1, #512	@ 0x200
 8003300:	7c1b      	ldrb	r3, [r3, #16]
 8003302:	4a37      	ldr	r2, [pc, #220]	@ (80033e0 <tui_draw_motor_panel+0x29c>)
 8003304:	482b      	ldr	r0, [pc, #172]	@ (80033b4 <tui_draw_motor_panel+0x270>)
 8003306:	f004 fc27 	bl	8007b58 <sniprintf>
 800330a:	482a      	ldr	r0, [pc, #168]	@ (80033b4 <tui_draw_motor_panel+0x270>)
 800330c:	f7ff fcda 	bl	8002cc4 <USBCMD_Send>
 8003310:	4643      	mov	r3, r8
 8003312:	f44f 7100 	mov.w	r1, #512	@ 0x200
 8003316:	4a33      	ldr	r2, [pc, #204]	@ (80033e4 <tui_draw_motor_panel+0x2a0>)
 8003318:	4826      	ldr	r0, [pc, #152]	@ (80033b4 <tui_draw_motor_panel+0x270>)
 800331a:	f004 fc1d 	bl	8007b58 <sniprintf>
 800331e:	4825      	ldr	r0, [pc, #148]	@ (80033b4 <tui_draw_motor_panel+0x270>)
 8003320:	f7ff fcd0 	bl	8002cc4 <USBCMD_Send>
 8003324:	200b      	movs	r0, #11
 8003326:	f849 6025 	str.w	r6, [r9, r5, lsl #2]
 800332a:	f7ff fe7f 	bl	800302c <tui_goto.constprop.0>
 800332e:	f7ff fcdd 	bl	8002cec <tui_erase_line>
 8003332:	f44f 738a 	mov.w	r3, #276	@ 0x114
 8003336:	fb03 4405 	mla	r4, r3, r5, r4
 800333a:	7ba2      	ldrb	r2, [r4, #14]
 800333c:	7b23      	ldrb	r3, [r4, #12]
 800333e:	9201      	str	r2, [sp, #4]
 8003340:	7b62      	ldrb	r2, [r4, #13]
 8003342:	f44f 7100 	mov.w	r1, #512	@ 0x200
 8003346:	9200      	str	r2, [sp, #0]
 8003348:	481a      	ldr	r0, [pc, #104]	@ (80033b4 <tui_draw_motor_panel+0x270>)
 800334a:	4a27      	ldr	r2, [pc, #156]	@ (80033e8 <tui_draw_motor_panel+0x2a4>)
 800334c:	f004 fc04 	bl	8007b58 <sniprintf>
 8003350:	4818      	ldr	r0, [pc, #96]	@ (80033b4 <tui_draw_motor_panel+0x270>)
 8003352:	f7ff fcb7 	bl	8002cc4 <USBCMD_Send>
 8003356:	200a      	movs	r0, #10
 8003358:	f7ff fe68 	bl	800302c <tui_goto.constprop.0>
 800335c:	f7ff fcc6 	bl	8002cec <tui_erase_line>
 8003360:	f44f 7100 	mov.w	r1, #512	@ 0x200
 8003364:	79e3      	ldrb	r3, [r4, #7]
 8003366:	4a21      	ldr	r2, [pc, #132]	@ (80033ec <tui_draw_motor_panel+0x2a8>)
 8003368:	4812      	ldr	r0, [pc, #72]	@ (80033b4 <tui_draw_motor_panel+0x270>)
 800336a:	f004 fbf5 	bl	8007b58 <sniprintf>
 800336e:	4811      	ldr	r0, [pc, #68]	@ (80033b4 <tui_draw_motor_panel+0x270>)
 8003370:	b007      	add	sp, #28
 8003372:	e8bd 4ff0 	ldmia.w	sp!, {r4, r5, r6, r7, r8, r9, sl, fp, lr}
 8003376:	f7ff bca5 	b.w	8002cc4 <USBCMD_Send>
 800337a:	4646      	mov	r6, r8
 800337c:	e7c8      	b.n	8003310 <tui_draw_motor_panel+0x1cc>
 800337e:	bf00      	nop
 8003380:	2000067c 	.word	0x2000067c
 8003384:	0800906c 	.word	0x0800906c
 8003388:	20000320 	.word	0x20000320
 800338c:	08009076 	.word	0x08009076
 8003390:	0800909e 	.word	0x0800909e
 8003394:	080090de 	.word	0x080090de
 8003398:	080090e8 	.word	0x080090e8
 800339c:	08009102 	.word	0x08009102
 80033a0:	0800912d 	.word	0x0800912d
 80033a4:	08009137 	.word	0x08009137
 80033a8:	08009055 	.word	0x08009055
 80033ac:	08009057 	.word	0x08009057
 80033b0:	08009066 	.word	0x08009066
 80033b4:	2000067e 	.word	0x2000067e
 80033b8:	0800913e 	.word	0x0800913e
 80033bc:	08009059 	.word	0x08009059
 80033c0:	080094fa 	.word	0x080094fa
 80033c4:	080091ab 	.word	0x080091ab
 80033c8:	080091ef 	.word	0x080091ef
 80033cc:	20000664 	.word	0x20000664
 80033d0:	080091f9 	.word	0x080091f9
 80033d4:	08009221 	.word	0x08009221
 80033d8:	0800908a 	.word	0x0800908a
 80033dc:	080090f5 	.word	0x080090f5
 80033e0:	08009212 	.word	0x08009212
 80033e4:	0800922e 	.word	0x0800922e
 80033e8:	08009257 	.word	0x08009257
 80033ec:	08009298 	.word	0x08009298

080033f0 <tui_draw_tabs>:
 80033f0:	b538      	push	{r3, r4, r5, lr}
 80033f2:	2003      	movs	r0, #3
 80033f4:	f7ff fe1a 	bl	800302c <tui_goto.constprop.0>
 80033f8:	2400      	movs	r4, #0
 80033fa:	f7ff fc77 	bl	8002cec <tui_erase_line>
 80033fe:	4d0f      	ldr	r5, [pc, #60]	@ (800343c <tui_draw_tabs+0x4c>)
 8003400:	782a      	ldrb	r2, [r5, #0]
 8003402:	b2e3      	uxtb	r3, r4
 8003404:	429a      	cmp	r2, r3
 8003406:	bf0c      	ite	eq
 8003408:	480d      	ldreq	r0, [pc, #52]	@ (8003440 <tui_draw_tabs+0x50>)
 800340a:	480e      	ldrne	r0, [pc, #56]	@ (8003444 <tui_draw_tabs+0x54>)
 800340c:	3401      	adds	r4, #1
 800340e:	f7ff fc59 	bl	8002cc4 <USBCMD_Send>
 8003412:	4623      	mov	r3, r4
 8003414:	f44f 7100 	mov.w	r1, #512	@ 0x200
 8003418:	4a0b      	ldr	r2, [pc, #44]	@ (8003448 <tui_draw_tabs+0x58>)
 800341a:	480c      	ldr	r0, [pc, #48]	@ (800344c <tui_draw_tabs+0x5c>)
 800341c:	f004 fb9c 	bl	8007b58 <sniprintf>
 8003420:	480a      	ldr	r0, [pc, #40]	@ (800344c <tui_draw_tabs+0x5c>)
 8003422:	f7ff fc4f 	bl	8002cc4 <USBCMD_Send>
 8003426:	480a      	ldr	r0, [pc, #40]	@ (8003450 <tui_draw_tabs+0x60>)
 8003428:	f7ff fc4c 	bl	8002cc4 <USBCMD_Send>
 800342c:	2c03      	cmp	r4, #3
 800342e:	d1e7      	bne.n	8003400 <tui_draw_tabs+0x10>
 8003430:	e8bd 4038 	ldmia.w	sp!, {r3, r4, r5, lr}
 8003434:	4807      	ldr	r0, [pc, #28]	@ (8003454 <tui_draw_tabs+0x64>)
 8003436:	f7ff bc45 	b.w	8002cc4 <USBCMD_Send>
 800343a:	bf00      	nop
 800343c:	2000067c 	.word	0x2000067c
 8003440:	080092be 	.word	0x080092be
 8003444:	08009085 	.word	0x08009085
 8003448:	080092c5 	.word	0x080092c5
 800344c:	2000067e 	.word	0x2000067e
 8003450:	080092cb 	.word	0x080092cb
 8003454:	080092d1 	.word	0x080092d1

08003458 <tui_full_redraw>:
 8003458:	b508      	push	{r3, lr}
 800345a:	481b      	ldr	r0, [pc, #108]	@ (80034c8 <tui_full_redraw+0x70>)
 800345c:	f7ff fc32 	bl	8002cc4 <USBCMD_Send>
 8003460:	2001      	movs	r0, #1
 8003462:	f7ff fde3 	bl	800302c <tui_goto.constprop.0>
 8003466:	4819      	ldr	r0, [pc, #100]	@ (80034cc <tui_full_redraw+0x74>)
 8003468:	f7ff fc2c 	bl	8002cc4 <USBCMD_Send>
 800346c:	4818      	ldr	r0, [pc, #96]	@ (80034d0 <tui_full_redraw+0x78>)
 800346e:	f7ff fc29 	bl	8002cc4 <USBCMD_Send>
 8003472:	f7ff ffbd 	bl	80033f0 <tui_draw_tabs>
 8003476:	2004      	movs	r0, #4
 8003478:	f7ff fdd8 	bl	800302c <tui_goto.constprop.0>
 800347c:	4815      	ldr	r0, [pc, #84]	@ (80034d4 <tui_full_redraw+0x7c>)
 800347e:	f7ff fc21 	bl	8002cc4 <USBCMD_Send>
 8003482:	f7ff fe5f 	bl	8003144 <tui_draw_motor_panel>
 8003486:	200c      	movs	r0, #12
 8003488:	f7ff fdd0 	bl	800302c <tui_goto.constprop.0>
 800348c:	4811      	ldr	r0, [pc, #68]	@ (80034d4 <tui_full_redraw+0x7c>)
 800348e:	f7ff fc19 	bl	8002cc4 <USBCMD_Send>
 8003492:	f7ff fe1b 	bl	80030cc <tui_draw_summary>
 8003496:	f7ff fdf5 	bl	8003084 <tui_draw_gpio>
 800349a:	2010      	movs	r0, #16
 800349c:	f7ff fdc6 	bl	800302c <tui_goto.constprop.0>
 80034a0:	f7ff fc24 	bl	8002cec <tui_erase_line>
 80034a4:	480c      	ldr	r0, [pc, #48]	@ (80034d8 <tui_full_redraw+0x80>)
 80034a6:	f7ff fc0d 	bl	8002cc4 <USBCMD_Send>
 80034aa:	2011      	movs	r0, #17
 80034ac:	f7ff fdbe 	bl	800302c <tui_goto.constprop.0>
 80034b0:	f7ff fc1c 	bl	8002cec <tui_erase_line>
 80034b4:	4809      	ldr	r0, [pc, #36]	@ (80034dc <tui_full_redraw+0x84>)
 80034b6:	f7ff fc05 	bl	8002cc4 <USBCMD_Send>
 80034ba:	f7ff fdcb 	bl	8003054 <tui_draw_status>
 80034be:	e8bd 4008 	ldmia.w	sp!, {r3, lr}
 80034c2:	2013      	movs	r0, #19
 80034c4:	f7ff bdb2 	b.w	800302c <tui_goto.constprop.0>
 80034c8:	08008f82 	.word	0x08008f82
 80034cc:	080092f1 	.word	0x080092f1
 80034d0:	08009312 	.word	0x08009312
 80034d4:	08009338 	.word	0x08009338
 80034d8:	08009372 	.word	0x08009372
 80034dc:	080093e9 	.word	0x080093e9

080034e0 <USBCMD_Init>:
 80034e0:	b510      	push	{r4, lr}
 80034e2:	2400      	movs	r4, #0
 80034e4:	4b0f      	ldr	r3, [pc, #60]	@ (8003524 <USBCMD_Init+0x44>)
 80034e6:	4621      	mov	r1, r4
 80034e8:	801c      	strh	r4, [r3, #0]
 80034ea:	4b0f      	ldr	r3, [pc, #60]	@ (8003528 <USBCMD_Init+0x48>)
 80034ec:	2280      	movs	r2, #128	@ 0x80
 80034ee:	801c      	strh	r4, [r3, #0]
 80034f0:	4b0e      	ldr	r3, [pc, #56]	@ (800352c <USBCMD_Init+0x4c>)
 80034f2:	480f      	ldr	r0, [pc, #60]	@ (8003530 <USBCMD_Init+0x50>)
 80034f4:	801c      	strh	r4, [r3, #0]
 80034f6:	f004 fba9 	bl	8007c4c <memset>
 80034fa:	2201      	movs	r2, #1
 80034fc:	4b0d      	ldr	r3, [pc, #52]	@ (8003534 <USBCMD_Init+0x54>)
 80034fe:	f44f 70fa 	mov.w	r0, #500	@ 0x1f4
 8003502:	e9c3 4400 	strd	r4, r4, [r3]
 8003506:	609c      	str	r4, [r3, #8]
 8003508:	4b0b      	ldr	r3, [pc, #44]	@ (8003538 <USBCMD_Init+0x58>)
 800350a:	701c      	strb	r4, [r3, #0]
 800350c:	4b0b      	ldr	r3, [pc, #44]	@ (800353c <USBCMD_Init+0x5c>)
 800350e:	701a      	strb	r2, [r3, #0]
 8003510:	4b0b      	ldr	r3, [pc, #44]	@ (8003540 <USBCMD_Init+0x60>)
 8003512:	601c      	str	r4, [r3, #0]
 8003514:	4b0b      	ldr	r3, [pc, #44]	@ (8003544 <USBCMD_Init+0x64>)
 8003516:	601c      	str	r4, [r3, #0]
 8003518:	f001 f9b2 	bl	8004880 <HAL_Delay>
 800351c:	e8bd 4010 	ldmia.w	sp!, {r4, lr}
 8003520:	f7ff bf9a 	b.w	8003458 <tui_full_redraw>
 8003524:	2000087e 	.word	0x2000087e
 8003528:	20000900 	.word	0x20000900
 800352c:	20000902 	.word	0x20000902
 8003530:	20000880 	.word	0x20000880
 8003534:	20000664 	.word	0x20000664
 8003538:	2000067d 	.word	0x2000067d
 800353c:	20000050 	.word	0x20000050
 8003540:	20000678 	.word	0x20000678
 8003544:	20000674 	.word	0x20000674

08003548 <USBCMD_Process>:
 8003548:	e92d 4ff0 	stmdb	sp!, {r4, r5, r6, r7, r8, r9, sl, fp, lr}
 800354c:	4ba1      	ldr	r3, [pc, #644]	@ (80037d4 <USBCMD_Process+0x28c>)
 800354e:	4ca2      	ldr	r4, [pc, #648]	@ (80037d8 <USBCMD_Process+0x290>)
 8003550:	781a      	ldrb	r2, [r3, #0]
 8003552:	f8df a288 	ldr.w	sl, [pc, #648]	@ 80037dc <USBCMD_Process+0x294>
 8003556:	b08d      	sub	sp, #52	@ 0x34
 8003558:	2a00      	cmp	r2, #0
 800355a:	f040 80c3 	bne.w	80036e4 <USBCMD_Process+0x19c>
 800355e:	8821      	ldrh	r1, [r4, #0]
 8003560:	f8ba 3000 	ldrh.w	r3, [sl]
 8003564:	b289      	uxth	r1, r1
 8003566:	b29b      	uxth	r3, r3
 8003568:	4299      	cmp	r1, r3
 800356a:	d00f      	beq.n	800358c <USBCMD_Process+0x44>
 800356c:	8823      	ldrh	r3, [r4, #0]
 800356e:	499c      	ldr	r1, [pc, #624]	@ (80037e0 <USBCMD_Process+0x298>)
 8003570:	b29b      	uxth	r3, r3
 8003572:	5ccd      	ldrb	r5, [r1, r3]
 8003574:	8823      	ldrh	r3, [r4, #0]
 8003576:	b2ed      	uxtb	r5, r5
 8003578:	3301      	adds	r3, #1
 800357a:	b2db      	uxtb	r3, r3
 800357c:	8023      	strh	r3, [r4, #0]
 800357e:	4b99      	ldr	r3, [pc, #612]	@ (80037e4 <USBCMD_Process+0x29c>)
 8003580:	7819      	ldrb	r1, [r3, #0]
 8003582:	b9b1      	cbnz	r1, 80035b2 <USBCMD_Process+0x6a>
 8003584:	2d1b      	cmp	r5, #27
 8003586:	d11b      	bne.n	80035c0 <USBCMD_Process+0x78>
 8003588:	2201      	movs	r2, #1
 800358a:	701a      	strb	r2, [r3, #0]
 800358c:	f001 f972 	bl	8004874 <HAL_GetTick>
 8003590:	4a95      	ldr	r2, [pc, #596]	@ (80037e8 <USBCMD_Process+0x2a0>)
 8003592:	6813      	ldr	r3, [r2, #0]
 8003594:	1ac3      	subs	r3, r0, r3
 8003596:	2b63      	cmp	r3, #99	@ 0x63
 8003598:	d908      	bls.n	80035ac <USBCMD_Process+0x64>
 800359a:	4c94      	ldr	r4, [pc, #592]	@ (80037ec <USBCMD_Process+0x2a4>)
 800359c:	6010      	str	r0, [r2, #0]
 800359e:	7823      	ldrb	r3, [r4, #0]
 80035a0:	2b00      	cmp	r3, #0
 80035a2:	d07f      	beq.n	80036a4 <USBCMD_Process+0x15c>
 80035a4:	f7ff ff58 	bl	8003458 <tui_full_redraw>
 80035a8:	2300      	movs	r3, #0
 80035aa:	7023      	strb	r3, [r4, #0]
 80035ac:	b00d      	add	sp, #52	@ 0x34
 80035ae:	e8bd 8ff0 	ldmia.w	sp!, {r4, r5, r6, r7, r8, r9, sl, fp, pc}
 80035b2:	2901      	cmp	r1, #1
 80035b4:	d108      	bne.n	80035c8 <USBCMD_Process+0x80>
 80035b6:	2d5b      	cmp	r5, #91	@ 0x5b
 80035b8:	d101      	bne.n	80035be <USBCMD_Process+0x76>
 80035ba:	2202      	movs	r2, #2
 80035bc:	e7e5      	b.n	800358a <USBCMD_Process+0x42>
 80035be:	701a      	strb	r2, [r3, #0]
 80035c0:	4628      	mov	r0, r5
 80035c2:	f7ff fb99 	bl	8002cf8 <tui_handle_key>
 80035c6:	e7e1      	b.n	800358c <USBCMD_Process+0x44>
 80035c8:	2902      	cmp	r1, #2
 80035ca:	d1df      	bne.n	800358c <USBCMD_Process+0x44>
 80035cc:	701a      	strb	r2, [r3, #0]
 80035ce:	4b88      	ldr	r3, [pc, #544]	@ (80037f0 <USBCMD_Process+0x2a8>)
 80035d0:	781c      	ldrb	r4, [r3, #0]
 80035d2:	f001 f94f 	bl	8004874 <HAL_GetTick>
 80035d6:	2d41      	cmp	r5, #65	@ 0x41
 80035d8:	d032      	beq.n	8003640 <USBCMD_Process+0xf8>
 80035da:	d819      	bhi.n	8003610 <USBCMD_Process+0xc8>
 80035dc:	2d35      	cmp	r5, #53	@ 0x35
 80035de:	d049      	beq.n	8003674 <USBCMD_Process+0x12c>
 80035e0:	2d36      	cmp	r5, #54	@ 0x36
 80035e2:	d1d3      	bne.n	800358c <USBCMD_Process+0x44>
 80035e4:	4a83      	ldr	r2, [pc, #524]	@ (80037f4 <USBCMD_Process+0x2ac>)
 80035e6:	6813      	ldr	r3, [r2, #0]
 80035e8:	1ac3      	subs	r3, r0, r3
 80035ea:	2b4f      	cmp	r3, #79	@ 0x4f
 80035ec:	d9ce      	bls.n	800358c <USBCMD_Process+0x44>
 80035ee:	6010      	str	r0, [r2, #0]
 80035f0:	f44f 728a 	mov.w	r2, #276	@ 0x114
 80035f4:	4b80      	ldr	r3, [pc, #512]	@ (80037f8 <USBCMD_Process+0x2b0>)
 80035f6:	4620      	mov	r0, r4
 80035f8:	fb02 3304 	mla	r3, r2, r4, r3
 80035fc:	8899      	ldrh	r1, [r3, #4]
 80035fe:	2964      	cmp	r1, #100	@ 0x64
 8003600:	bf38      	it	cc
 8003602:	2164      	movcc	r1, #100	@ 0x64
 8003604:	3964      	subs	r1, #100	@ 0x64
 8003606:	b289      	uxth	r1, r1
 8003608:	f7ff f84a 	bl	80026a0 <Motor_SetDuty>
 800360c:	487b      	ldr	r0, [pc, #492]	@ (80037fc <USBCMD_Process+0x2b4>)
 800360e:	e02e      	b.n	800366e <USBCMD_Process+0x126>
 8003610:	2d42      	cmp	r5, #66	@ 0x42
 8003612:	d1bb      	bne.n	800358c <USBCMD_Process+0x44>
 8003614:	4a77      	ldr	r2, [pc, #476]	@ (80037f4 <USBCMD_Process+0x2ac>)
 8003616:	6813      	ldr	r3, [r2, #0]
 8003618:	1ac3      	subs	r3, r0, r3
 800361a:	2b4f      	cmp	r3, #79	@ 0x4f
 800361c:	d9b6      	bls.n	800358c <USBCMD_Process+0x44>
 800361e:	6010      	str	r0, [r2, #0]
 8003620:	f44f 728a 	mov.w	r2, #276	@ 0x114
 8003624:	4b74      	ldr	r3, [pc, #464]	@ (80037f8 <USBCMD_Process+0x2b0>)
 8003626:	4620      	mov	r0, r4
 8003628:	fb02 3304 	mla	r3, r2, r4, r3
 800362c:	8899      	ldrh	r1, [r3, #4]
 800362e:	290a      	cmp	r1, #10
 8003630:	bf38      	it	cc
 8003632:	210a      	movcc	r1, #10
 8003634:	390a      	subs	r1, #10
 8003636:	b289      	uxth	r1, r1
 8003638:	f7ff f832 	bl	80026a0 <Motor_SetDuty>
 800363c:	4870      	ldr	r0, [pc, #448]	@ (8003800 <USBCMD_Process+0x2b8>)
 800363e:	e016      	b.n	800366e <USBCMD_Process+0x126>
 8003640:	4a6c      	ldr	r2, [pc, #432]	@ (80037f4 <USBCMD_Process+0x2ac>)
 8003642:	6813      	ldr	r3, [r2, #0]
 8003644:	1ac3      	subs	r3, r0, r3
 8003646:	2b4f      	cmp	r3, #79	@ 0x4f
 8003648:	d9a0      	bls.n	800358c <USBCMD_Process+0x44>
 800364a:	6010      	str	r0, [r2, #0]
 800364c:	f44f 728a 	mov.w	r2, #276	@ 0x114
 8003650:	4b69      	ldr	r3, [pc, #420]	@ (80037f8 <USBCMD_Process+0x2b0>)
 8003652:	4620      	mov	r0, r4
 8003654:	fb02 3304 	mla	r3, r2, r4, r3
 8003658:	8899      	ldrh	r1, [r3, #4]
 800365a:	310a      	adds	r1, #10
 800365c:	b289      	uxth	r1, r1
 800365e:	f5b1 6fb4 	cmp.w	r1, #1440	@ 0x5a0
 8003662:	bf28      	it	cs
 8003664:	f44f 61b4 	movcs.w	r1, #1440	@ 0x5a0
 8003668:	f7ff f81a 	bl	80026a0 <Motor_SetDuty>
 800366c:	4865      	ldr	r0, [pc, #404]	@ (8003804 <USBCMD_Process+0x2bc>)
 800366e:	f7ff fae5 	bl	8002c3c <tui_set_status>
 8003672:	e78b      	b.n	800358c <USBCMD_Process+0x44>
 8003674:	4a5f      	ldr	r2, [pc, #380]	@ (80037f4 <USBCMD_Process+0x2ac>)
 8003676:	6813      	ldr	r3, [r2, #0]
 8003678:	1ac3      	subs	r3, r0, r3
 800367a:	2b4f      	cmp	r3, #79	@ 0x4f
 800367c:	d986      	bls.n	800358c <USBCMD_Process+0x44>
 800367e:	6010      	str	r0, [r2, #0]
 8003680:	f44f 728a 	mov.w	r2, #276	@ 0x114
 8003684:	4b5c      	ldr	r3, [pc, #368]	@ (80037f8 <USBCMD_Process+0x2b0>)
 8003686:	4620      	mov	r0, r4
 8003688:	fb02 3304 	mla	r3, r2, r4, r3
 800368c:	8899      	ldrh	r1, [r3, #4]
 800368e:	3164      	adds	r1, #100	@ 0x64
 8003690:	b289      	uxth	r1, r1
 8003692:	f5b1 6fb4 	cmp.w	r1, #1440	@ 0x5a0
 8003696:	bf28      	it	cs
 8003698:	f44f 61b4 	movcs.w	r1, #1440	@ 0x5a0
 800369c:	f7ff f800 	bl	80026a0 <Motor_SetDuty>
 80036a0:	4859      	ldr	r0, [pc, #356]	@ (8003808 <USBCMD_Process+0x2c0>)
 80036a2:	e7e4      	b.n	800366e <USBCMD_Process+0x126>
 80036a4:	f7ff fea4 	bl	80033f0 <tui_draw_tabs>
 80036a8:	f7ff fd4c 	bl	8003144 <tui_draw_motor_panel>
 80036ac:	f7ff fd0e 	bl	80030cc <tui_draw_summary>
 80036b0:	f7ff fce8 	bl	8003084 <tui_draw_gpio>
 80036b4:	f7ff fcce 	bl	8003054 <tui_draw_status>
 80036b8:	2013      	movs	r0, #19
 80036ba:	b00d      	add	sp, #52	@ 0x34
 80036bc:	e8bd 4ff0 	ldmia.w	sp!, {r4, r5, r6, r7, r8, r9, sl, fp, lr}
 80036c0:	f7ff bcb4 	b.w	800302c <tui_goto.constprop.0>
 80036c4:	4628      	mov	r0, r5
 80036c6:	4951      	ldr	r1, [pc, #324]	@ (800380c <USBCMD_Process+0x2c4>)
 80036c8:	f7fe fd40 	bl	800214c <strcmp>
 80036cc:	2800      	cmp	r0, #0
 80036ce:	d147      	bne.n	8003760 <USBCMD_Process+0x218>
 80036d0:	2201      	movs	r2, #1
 80036d2:	4b40      	ldr	r3, [pc, #256]	@ (80037d4 <USBCMD_Process+0x28c>)
 80036d4:	7018      	strb	r0, [r3, #0]
 80036d6:	4b45      	ldr	r3, [pc, #276]	@ (80037ec <USBCMD_Process+0x2a4>)
 80036d8:	701a      	strb	r2, [r3, #0]
 80036da:	4b43      	ldr	r3, [pc, #268]	@ (80037e8 <USBCMD_Process+0x2a0>)
 80036dc:	6018      	str	r0, [r3, #0]
 80036de:	2300      	movs	r3, #0
 80036e0:	4a4b      	ldr	r2, [pc, #300]	@ (8003810 <USBCMD_Process+0x2c8>)
 80036e2:	8013      	strh	r3, [r2, #0]
 80036e4:	8822      	ldrh	r2, [r4, #0]
 80036e6:	f8ba 3000 	ldrh.w	r3, [sl]
 80036ea:	b292      	uxth	r2, r2
 80036ec:	b29b      	uxth	r3, r3
 80036ee:	429a      	cmp	r2, r3
 80036f0:	f43f af5c 	beq.w	80035ac <USBCMD_Process+0x64>
 80036f4:	8823      	ldrh	r3, [r4, #0]
 80036f6:	4a3a      	ldr	r2, [pc, #232]	@ (80037e0 <USBCMD_Process+0x298>)
 80036f8:	b29b      	uxth	r3, r3
 80036fa:	5cd1      	ldrb	r1, [r2, r3]
 80036fc:	8823      	ldrh	r3, [r4, #0]
 80036fe:	290d      	cmp	r1, #13
 8003700:	f103 0301 	add.w	r3, r3, #1
 8003704:	b2db      	uxtb	r3, r3
 8003706:	b2ca      	uxtb	r2, r1
 8003708:	8023      	strh	r3, [r4, #0]
 800370a:	d0eb      	beq.n	80036e4 <USBCMD_Process+0x19c>
 800370c:	4b40      	ldr	r3, [pc, #256]	@ (8003810 <USBCMD_Process+0x2c8>)
 800370e:	2a0a      	cmp	r2, #10
 8003710:	8819      	ldrh	r1, [r3, #0]
 8003712:	d002      	beq.n	800371a <USBCMD_Process+0x1d2>
 8003714:	2a00      	cmp	r2, #0
 8003716:	f040 8613 	bne.w	8004340 <USBCMD_Process+0xdf8>
 800371a:	2900      	cmp	r1, #0
 800371c:	d0e2      	beq.n	80036e4 <USBCMD_Process+0x19c>
 800371e:	2300      	movs	r3, #0
 8003720:	4a3c      	ldr	r2, [pc, #240]	@ (8003814 <USBCMD_Process+0x2cc>)
 8003722:	5453      	strb	r3, [r2, r1]
 8003724:	f812 0b01 	ldrb.w	r0, [r2], #1
 8003728:	3301      	adds	r3, #1
 800372a:	f1a0 0561 	sub.w	r5, r0, #97	@ 0x61
 800372e:	2d19      	cmp	r5, #25
 8003730:	bf98      	it	ls
 8003732:	3820      	subls	r0, #32
 8003734:	b29b      	uxth	r3, r3
 8003736:	bf98      	it	ls
 8003738:	f802 0c01 	strbls.w	r0, [r2, #-1]
 800373c:	428b      	cmp	r3, r1
 800373e:	d1f1      	bne.n	8003724 <USBCMD_Process+0x1dc>
 8003740:	4935      	ldr	r1, [pc, #212]	@ (8003818 <USBCMD_Process+0x2d0>)
 8003742:	4834      	ldr	r0, [pc, #208]	@ (8003814 <USBCMD_Process+0x2cc>)
 8003744:	f004 fa9e 	bl	8007c84 <strtok>
 8003748:	4605      	mov	r5, r0
 800374a:	2800      	cmp	r0, #0
 800374c:	d0c7      	beq.n	80036de <USBCMD_Process+0x196>
 800374e:	4933      	ldr	r1, [pc, #204]	@ (800381c <USBCMD_Process+0x2d4>)
 8003750:	f7fe fcfc 	bl	800214c <strcmp>
 8003754:	2800      	cmp	r0, #0
 8003756:	d1b5      	bne.n	80036c4 <USBCMD_Process+0x17c>
 8003758:	4831      	ldr	r0, [pc, #196]	@ (8003820 <USBCMD_Process+0x2d8>)
 800375a:	f7ff fab3 	bl	8002cc4 <USBCMD_Send>
 800375e:	e7be      	b.n	80036de <USBCMD_Process+0x196>
 8003760:	4628      	mov	r0, r5
 8003762:	4930      	ldr	r1, [pc, #192]	@ (8003824 <USBCMD_Process+0x2dc>)
 8003764:	f7fe fcf2 	bl	800214c <strcmp>
 8003768:	b918      	cbnz	r0, 8003772 <USBCMD_Process+0x22a>
 800376a:	f7fe ff87 	bl	800267c <Motor_SafeAll>
 800376e:	482e      	ldr	r0, [pc, #184]	@ (8003828 <USBCMD_Process+0x2e0>)
 8003770:	e7f3      	b.n	800375a <USBCMD_Process+0x212>
 8003772:	4628      	mov	r0, r5
 8003774:	492d      	ldr	r1, [pc, #180]	@ (800382c <USBCMD_Process+0x2e4>)
 8003776:	f7fe fce9 	bl	800214c <strcmp>
 800377a:	4607      	mov	r7, r0
 800377c:	2800      	cmp	r0, #0
 800377e:	d15f      	bne.n	8003840 <USBCMD_Process+0x2f8>
 8003780:	4925      	ldr	r1, [pc, #148]	@ (8003818 <USBCMD_Process+0x2d0>)
 8003782:	f004 fa7f 	bl	8007c84 <strtok>
 8003786:	4924      	ldr	r1, [pc, #144]	@ (8003818 <USBCMD_Process+0x2d0>)
 8003788:	4606      	mov	r6, r0
 800378a:	4638      	mov	r0, r7
 800378c:	f004 fa7a 	bl	8007c84 <strtok>
 8003790:	4605      	mov	r5, r0
 8003792:	b106      	cbz	r6, 8003796 <USBCMD_Process+0x24e>
 8003794:	b908      	cbnz	r0, 800379a <USBCMD_Process+0x252>
 8003796:	4826      	ldr	r0, [pc, #152]	@ (8003830 <USBCMD_Process+0x2e8>)
 8003798:	e7df      	b.n	800375a <USBCMD_Process+0x212>
 800379a:	4630      	mov	r0, r6
 800379c:	f004 f890 	bl	80078c0 <atoi>
 80037a0:	1e47      	subs	r7, r0, #1
 80037a2:	4606      	mov	r6, r0
 80037a4:	4628      	mov	r0, r5
 80037a6:	f004 f88b 	bl	80078c0 <atoi>
 80037aa:	2f02      	cmp	r7, #2
 80037ac:	4605      	mov	r5, r0
 80037ae:	d802      	bhi.n	80037b6 <USBCMD_Process+0x26e>
 80037b0:	f5b0 6fb4 	cmp.w	r0, #1440	@ 0x5a0
 80037b4:	d901      	bls.n	80037ba <USBCMD_Process+0x272>
 80037b6:	481f      	ldr	r0, [pc, #124]	@ (8003834 <USBCMD_Process+0x2ec>)
 80037b8:	e7cf      	b.n	800375a <USBCMD_Process+0x212>
 80037ba:	b281      	uxth	r1, r0
 80037bc:	b2f8      	uxtb	r0, r7
 80037be:	f7fe ff6f 	bl	80026a0 <Motor_SetDuty>
 80037c2:	4633      	mov	r3, r6
 80037c4:	4a1c      	ldr	r2, [pc, #112]	@ (8003838 <USBCMD_Process+0x2f0>)
 80037c6:	9500      	str	r5, [sp, #0]
 80037c8:	f44f 7100 	mov.w	r1, #512	@ 0x200
 80037cc:	481b      	ldr	r0, [pc, #108]	@ (800383c <USBCMD_Process+0x2f4>)
 80037ce:	f004 f9c3 	bl	8007b58 <sniprintf>
 80037d2:	e233      	b.n	8003c3c <USBCMD_Process+0x6f4>
 80037d4:	2000067d 	.word	0x2000067d
 80037d8:	20000900 	.word	0x20000900
 80037dc:	20000902 	.word	0x20000902
 80037e0:	20000904 	.word	0x20000904
 80037e4:	20000670 	.word	0x20000670
 80037e8:	20000678 	.word	0x20000678
 80037ec:	20000050 	.word	0x20000050
 80037f0:	2000067c 	.word	0x2000067c
 80037f4:	20000674 	.word	0x20000674
 80037f8:	20000320 	.word	0x20000320
 80037fc:	080094ed 	.word	0x080094ed
 8003800:	08008f23 	.word	0x08008f23
 8003804:	08008f19 	.word	0x08008f19
 8003808:	080094e2 	.word	0x080094e2
 800380c:	0800950a 	.word	0x0800950a
 8003810:	2000087e 	.word	0x2000087e
 8003814:	20000880 	.word	0x20000880
 8003818:	080094f8 	.word	0x080094f8
 800381c:	080094fb 	.word	0x080094fb
 8003820:	08009500 	.word	0x08009500
 8003824:	0800950e 	.word	0x0800950e
 8003828:	08009513 	.word	0x08009513
 800382c:	08009524 	.word	0x08009524
 8003830:	08009528 	.word	0x08009528
 8003834:	08009553 	.word	0x08009553
 8003838:	08009565 	.word	0x08009565
 800383c:	2000067e 	.word	0x2000067e
 8003840:	4628      	mov	r0, r5
 8003842:	49a6      	ldr	r1, [pc, #664]	@ (8003adc <USBCMD_Process+0x594>)
 8003844:	f7fe fc82 	bl	800214c <strcmp>
 8003848:	4607      	mov	r7, r0
 800384a:	bb30      	cbnz	r0, 800389a <USBCMD_Process+0x352>
 800384c:	49a4      	ldr	r1, [pc, #656]	@ (8003ae0 <USBCMD_Process+0x598>)
 800384e:	f004 fa19 	bl	8007c84 <strtok>
 8003852:	49a3      	ldr	r1, [pc, #652]	@ (8003ae0 <USBCMD_Process+0x598>)
 8003854:	4606      	mov	r6, r0
 8003856:	4638      	mov	r0, r7
 8003858:	f004 fa14 	bl	8007c84 <strtok>
 800385c:	4605      	mov	r5, r0
 800385e:	b106      	cbz	r6, 8003862 <USBCMD_Process+0x31a>
 8003860:	b908      	cbnz	r0, 8003866 <USBCMD_Process+0x31e>
 8003862:	48a0      	ldr	r0, [pc, #640]	@ (8003ae4 <USBCMD_Process+0x59c>)
 8003864:	e779      	b.n	800375a <USBCMD_Process+0x212>
 8003866:	4630      	mov	r0, r6
 8003868:	f004 f82a 	bl	80078c0 <atoi>
 800386c:	1e47      	subs	r7, r0, #1
 800386e:	4606      	mov	r6, r0
 8003870:	4628      	mov	r0, r5
 8003872:	f004 f825 	bl	80078c0 <atoi>
 8003876:	2f02      	cmp	r7, #2
 8003878:	4605      	mov	r5, r0
 800387a:	d89c      	bhi.n	80037b6 <USBCMD_Process+0x26e>
 800387c:	2801      	cmp	r0, #1
 800387e:	d89a      	bhi.n	80037b6 <USBCMD_Process+0x26e>
 8003880:	b2c1      	uxtb	r1, r0
 8003882:	b2f8      	uxtb	r0, r7
 8003884:	f7fe ff1c 	bl	80026c0 <Motor_SetDir>
 8003888:	4a97      	ldr	r2, [pc, #604]	@ (8003ae8 <USBCMD_Process+0x5a0>)
 800388a:	4b98      	ldr	r3, [pc, #608]	@ (8003aec <USBCMD_Process+0x5a4>)
 800388c:	2d00      	cmp	r5, #0
 800388e:	bf08      	it	eq
 8003890:	4613      	moveq	r3, r2
 8003892:	4a97      	ldr	r2, [pc, #604]	@ (8003af0 <USBCMD_Process+0x5a8>)
 8003894:	9300      	str	r3, [sp, #0]
 8003896:	4633      	mov	r3, r6
 8003898:	e796      	b.n	80037c8 <USBCMD_Process+0x280>
 800389a:	4628      	mov	r0, r5
 800389c:	4995      	ldr	r1, [pc, #596]	@ (8003af4 <USBCMD_Process+0x5ac>)
 800389e:	f7fe fc55 	bl	800214c <strcmp>
 80038a2:	b9b8      	cbnz	r0, 80038d4 <USBCMD_Process+0x38c>
 80038a4:	498e      	ldr	r1, [pc, #568]	@ (8003ae0 <USBCMD_Process+0x598>)
 80038a6:	f004 f9ed 	bl	8007c84 <strtok>
 80038aa:	b908      	cbnz	r0, 80038b0 <USBCMD_Process+0x368>
 80038ac:	4892      	ldr	r0, [pc, #584]	@ (8003af8 <USBCMD_Process+0x5b0>)
 80038ae:	e754      	b.n	800375a <USBCMD_Process+0x212>
 80038b0:	f004 f806 	bl	80078c0 <atoi>
 80038b4:	4605      	mov	r5, r0
 80038b6:	3801      	subs	r0, #1
 80038b8:	2802      	cmp	r0, #2
 80038ba:	f63f af7c 	bhi.w	80037b6 <USBCMD_Process+0x26e>
 80038be:	b2c0      	uxtb	r0, r0
 80038c0:	f7fe ff0a 	bl	80026d8 <Motor_Enable>
 80038c4:	462b      	mov	r3, r5
 80038c6:	4a8d      	ldr	r2, [pc, #564]	@ (8003afc <USBCMD_Process+0x5b4>)
 80038c8:	f44f 7100 	mov.w	r1, #512	@ 0x200
 80038cc:	488c      	ldr	r0, [pc, #560]	@ (8003b00 <USBCMD_Process+0x5b8>)
 80038ce:	f004 f943 	bl	8007b58 <sniprintf>
 80038d2:	e1b3      	b.n	8003c3c <USBCMD_Process+0x6f4>
 80038d4:	4628      	mov	r0, r5
 80038d6:	498b      	ldr	r1, [pc, #556]	@ (8003b04 <USBCMD_Process+0x5bc>)
 80038d8:	f7fe fc38 	bl	800214c <strcmp>
 80038dc:	b990      	cbnz	r0, 8003904 <USBCMD_Process+0x3bc>
 80038de:	4980      	ldr	r1, [pc, #512]	@ (8003ae0 <USBCMD_Process+0x598>)
 80038e0:	f004 f9d0 	bl	8007c84 <strtok>
 80038e4:	b908      	cbnz	r0, 80038ea <USBCMD_Process+0x3a2>
 80038e6:	4888      	ldr	r0, [pc, #544]	@ (8003b08 <USBCMD_Process+0x5c0>)
 80038e8:	e737      	b.n	800375a <USBCMD_Process+0x212>
 80038ea:	f003 ffe9 	bl	80078c0 <atoi>
 80038ee:	4605      	mov	r5, r0
 80038f0:	3801      	subs	r0, #1
 80038f2:	2802      	cmp	r0, #2
 80038f4:	f63f af5f 	bhi.w	80037b6 <USBCMD_Process+0x26e>
 80038f8:	b2c0      	uxtb	r0, r0
 80038fa:	f7fe ff07 	bl	800270c <Motor_Disable>
 80038fe:	462b      	mov	r3, r5
 8003900:	4a82      	ldr	r2, [pc, #520]	@ (8003b0c <USBCMD_Process+0x5c4>)
 8003902:	e7e1      	b.n	80038c8 <USBCMD_Process+0x380>
 8003904:	4628      	mov	r0, r5
 8003906:	4982      	ldr	r1, [pc, #520]	@ (8003b10 <USBCMD_Process+0x5c8>)
 8003908:	f7fe fc20 	bl	800214c <strcmp>
 800390c:	2800      	cmp	r0, #0
 800390e:	d12b      	bne.n	8003968 <USBCMD_Process+0x420>
 8003910:	4880      	ldr	r0, [pc, #512]	@ (8003b14 <USBCMD_Process+0x5cc>)
 8003912:	f7ff f9d7 	bl	8002cc4 <USBCMD_Send>
 8003916:	2601      	movs	r6, #1
 8003918:	4d7f      	ldr	r5, [pc, #508]	@ (8003b18 <USBCMD_Process+0x5d0>)
 800391a:	4f73      	ldr	r7, [pc, #460]	@ (8003ae8 <USBCMD_Process+0x5a0>)
 800391c:	78a9      	ldrb	r1, [r5, #2]
 800391e:	4a73      	ldr	r2, [pc, #460]	@ (8003aec <USBCMD_Process+0x5a4>)
 8003920:	782b      	ldrb	r3, [r5, #0]
 8003922:	2900      	cmp	r1, #0
 8003924:	bf08      	it	eq
 8003926:	463a      	moveq	r2, r7
 8003928:	7ba9      	ldrb	r1, [r5, #14]
 800392a:	4875      	ldr	r0, [pc, #468]	@ (8003b00 <USBCMD_Process+0x5b8>)
 800392c:	9108      	str	r1, [sp, #32]
 800392e:	7b69      	ldrb	r1, [r5, #13]
 8003930:	9107      	str	r1, [sp, #28]
 8003932:	7b29      	ldrb	r1, [r5, #12]
 8003934:	9106      	str	r1, [sp, #24]
 8003936:	68a9      	ldr	r1, [r5, #8]
 8003938:	9105      	str	r1, [sp, #20]
 800393a:	79e9      	ldrb	r1, [r5, #7]
 800393c:	9104      	str	r1, [sp, #16]
 800393e:	79a9      	ldrb	r1, [r5, #6]
 8003940:	9103      	str	r1, [sp, #12]
 8003942:	88a9      	ldrh	r1, [r5, #4]
 8003944:	9300      	str	r3, [sp, #0]
 8003946:	e9cd 2101 	strd	r2, r1, [sp, #4]
 800394a:	4633      	mov	r3, r6
 800394c:	f44f 7100 	mov.w	r1, #512	@ 0x200
 8003950:	4a72      	ldr	r2, [pc, #456]	@ (8003b1c <USBCMD_Process+0x5d4>)
 8003952:	f004 f901 	bl	8007b58 <sniprintf>
 8003956:	3601      	adds	r6, #1
 8003958:	4869      	ldr	r0, [pc, #420]	@ (8003b00 <USBCMD_Process+0x5b8>)
 800395a:	f7ff f9b3 	bl	8002cc4 <USBCMD_Send>
 800395e:	2e04      	cmp	r6, #4
 8003960:	f505 758a 	add.w	r5, r5, #276	@ 0x114
 8003964:	d1da      	bne.n	800391c <USBCMD_Process+0x3d4>
 8003966:	e6ba      	b.n	80036de <USBCMD_Process+0x196>
 8003968:	4628      	mov	r0, r5
 800396a:	496d      	ldr	r1, [pc, #436]	@ (8003b20 <USBCMD_Process+0x5d8>)
 800396c:	f7fe fbee 	bl	800214c <strcmp>
 8003970:	b9d8      	cbnz	r0, 80039aa <USBCMD_Process+0x462>
 8003972:	4605      	mov	r5, r0
 8003974:	b2e8      	uxtb	r0, r5
 8003976:	f7fe fedd 	bl	8002734 <Motor_ReadHall>
 800397a:	f000 0301 	and.w	r3, r0, #1
 800397e:	9303      	str	r3, [sp, #12]
 8003980:	f3c0 0340 	ubfx	r3, r0, #1, #1
 8003984:	3501      	adds	r5, #1
 8003986:	9302      	str	r3, [sp, #8]
 8003988:	f3c0 0380 	ubfx	r3, r0, #2, #1
 800398c:	e9cd 0300 	strd	r0, r3, [sp]
 8003990:	f44f 7100 	mov.w	r1, #512	@ 0x200
 8003994:	462b      	mov	r3, r5
 8003996:	4a63      	ldr	r2, [pc, #396]	@ (8003b24 <USBCMD_Process+0x5dc>)
 8003998:	4859      	ldr	r0, [pc, #356]	@ (8003b00 <USBCMD_Process+0x5b8>)
 800399a:	f004 f8dd 	bl	8007b58 <sniprintf>
 800399e:	4858      	ldr	r0, [pc, #352]	@ (8003b00 <USBCMD_Process+0x5b8>)
 80039a0:	f7ff f990 	bl	8002cc4 <USBCMD_Send>
 80039a4:	2d03      	cmp	r5, #3
 80039a6:	d1e5      	bne.n	8003974 <USBCMD_Process+0x42c>
 80039a8:	e699      	b.n	80036de <USBCMD_Process+0x196>
 80039aa:	4628      	mov	r0, r5
 80039ac:	495e      	ldr	r1, [pc, #376]	@ (8003b28 <USBCMD_Process+0x5e0>)
 80039ae:	f7fe fbcd 	bl	800214c <strcmp>
 80039b2:	4606      	mov	r6, r0
 80039b4:	2800      	cmp	r0, #0
 80039b6:	d139      	bne.n	8003a2c <USBCMD_Process+0x4e4>
 80039b8:	4949      	ldr	r1, [pc, #292]	@ (8003ae0 <USBCMD_Process+0x598>)
 80039ba:	f004 f963 	bl	8007c84 <strtok>
 80039be:	b908      	cbnz	r0, 80039c4 <USBCMD_Process+0x47c>
 80039c0:	485a      	ldr	r0, [pc, #360]	@ (8003b2c <USBCMD_Process+0x5e4>)
 80039c2:	e6ca      	b.n	800375a <USBCMD_Process+0x212>
 80039c4:	f003 ff7c 	bl	80078c0 <atoi>
 80039c8:	1e42      	subs	r2, r0, #1
 80039ca:	2a02      	cmp	r2, #2
 80039cc:	4603      	mov	r3, r0
 80039ce:	f63f aef2 	bhi.w	80037b6 <USBCMD_Process+0x26e>
 80039d2:	f44f 718a 	mov.w	r1, #276	@ 0x114
 80039d6:	4d50      	ldr	r5, [pc, #320]	@ (8003b18 <USBCMD_Process+0x5d0>)
 80039d8:	4849      	ldr	r0, [pc, #292]	@ (8003b00 <USBCMD_Process+0x5b8>)
 80039da:	fb01 5502 	mla	r5, r1, r2, r5
 80039de:	f8d5 2110 	ldr.w	r2, [r5, #272]	@ 0x110
 80039e2:	f44f 7100 	mov.w	r1, #512	@ 0x200
 80039e6:	f5b2 7f80 	cmp.w	r2, #256	@ 0x100
 80039ea:	4617      	mov	r7, r2
 80039ec:	bf28      	it	cs
 80039ee:	f44f 7780 	movcs.w	r7, #256	@ 0x100
 80039f2:	9200      	str	r2, [sp, #0]
 80039f4:	eba2 0807 	sub.w	r8, r2, r7
 80039f8:	4a4d      	ldr	r2, [pc, #308]	@ (8003b30 <USBCMD_Process+0x5e8>)
 80039fa:	f004 f8ad 	bl	8007b58 <sniprintf>
 80039fe:	4840      	ldr	r0, [pc, #256]	@ (8003b00 <USBCMD_Process+0x5b8>)
 8003a00:	f7ff f960 	bl	8002cc4 <USBCMD_Send>
 8003a04:	42b7      	cmp	r7, r6
 8003a06:	d101      	bne.n	8003a0c <USBCMD_Process+0x4c4>
 8003a08:	484a      	ldr	r0, [pc, #296]	@ (8003b34 <USBCMD_Process+0x5ec>)
 8003a0a:	e6a6      	b.n	800375a <USBCMD_Process+0x212>
 8003a0c:	eb08 0306 	add.w	r3, r8, r6
 8003a10:	b2db      	uxtb	r3, r3
 8003a12:	442b      	add	r3, r5
 8003a14:	f44f 7100 	mov.w	r1, #512	@ 0x200
 8003a18:	7c1b      	ldrb	r3, [r3, #16]
 8003a1a:	4a47      	ldr	r2, [pc, #284]	@ (8003b38 <USBCMD_Process+0x5f0>)
 8003a1c:	4838      	ldr	r0, [pc, #224]	@ (8003b00 <USBCMD_Process+0x5b8>)
 8003a1e:	f004 f89b 	bl	8007b58 <sniprintf>
 8003a22:	4837      	ldr	r0, [pc, #220]	@ (8003b00 <USBCMD_Process+0x5b8>)
 8003a24:	f7ff f94e 	bl	8002cc4 <USBCMD_Send>
 8003a28:	3601      	adds	r6, #1
 8003a2a:	e7eb      	b.n	8003a04 <USBCMD_Process+0x4bc>
 8003a2c:	4628      	mov	r0, r5
 8003a2e:	4943      	ldr	r1, [pc, #268]	@ (8003b3c <USBCMD_Process+0x5f4>)
 8003a30:	f7fe fb8c 	bl	800214c <strcmp>
 8003a34:	2800      	cmp	r0, #0
 8003a36:	d138      	bne.n	8003aaa <USBCMD_Process+0x562>
 8003a38:	4929      	ldr	r1, [pc, #164]	@ (8003ae0 <USBCMD_Process+0x598>)
 8003a3a:	f004 f923 	bl	8007c84 <strtok>
 8003a3e:	b908      	cbnz	r0, 8003a44 <USBCMD_Process+0x4fc>
 8003a40:	483f      	ldr	r0, [pc, #252]	@ (8003b40 <USBCMD_Process+0x5f8>)
 8003a42:	e68a      	b.n	800375a <USBCMD_Process+0x212>
 8003a44:	f003 ff3c 	bl	80078c0 <atoi>
 8003a48:	1e45      	subs	r5, r0, #1
 8003a4a:	2d02      	cmp	r5, #2
 8003a4c:	f63f aeb3 	bhi.w	80037b6 <USBCMD_Process+0x26e>
 8003a50:	483c      	ldr	r0, [pc, #240]	@ (8003b44 <USBCMD_Process+0x5fc>)
 8003a52:	f7ff f937 	bl	8002cc4 <USBCMD_Send>
 8003a56:	f44f 728a 	mov.w	r2, #276	@ 0x114
 8003a5a:	4b2f      	ldr	r3, [pc, #188]	@ (8003b18 <USBCMD_Process+0x5d0>)
 8003a5c:	fb02 3505 	mla	r5, r2, r5, r3
 8003a60:	f8d5 6110 	ldr.w	r6, [r5, #272]	@ 0x110
 8003a64:	8822      	ldrh	r2, [r4, #0]
 8003a66:	f8ba 3000 	ldrh.w	r3, [sl]
 8003a6a:	b292      	uxth	r2, r2
 8003a6c:	b29b      	uxth	r3, r3
 8003a6e:	429a      	cmp	r2, r3
 8003a70:	d005      	beq.n	8003a7e <USBCMD_Process+0x536>
 8003a72:	8823      	ldrh	r3, [r4, #0]
 8003a74:	4834      	ldr	r0, [pc, #208]	@ (8003b48 <USBCMD_Process+0x600>)
 8003a76:	3301      	adds	r3, #1
 8003a78:	b2db      	uxtb	r3, r3
 8003a7a:	8023      	strh	r3, [r4, #0]
 8003a7c:	e66d      	b.n	800375a <USBCMD_Process+0x212>
 8003a7e:	f8d5 7110 	ldr.w	r7, [r5, #272]	@ 0x110
 8003a82:	42b7      	cmp	r7, r6
 8003a84:	d103      	bne.n	8003a8e <USBCMD_Process+0x546>
 8003a86:	2002      	movs	r0, #2
 8003a88:	f000 fefa 	bl	8004880 <HAL_Delay>
 8003a8c:	e7ea      	b.n	8003a64 <USBCMD_Process+0x51c>
 8003a8e:	b2f3      	uxtb	r3, r6
 8003a90:	442b      	add	r3, r5
 8003a92:	f44f 7100 	mov.w	r1, #512	@ 0x200
 8003a96:	7c1b      	ldrb	r3, [r3, #16]
 8003a98:	4a2c      	ldr	r2, [pc, #176]	@ (8003b4c <USBCMD_Process+0x604>)
 8003a9a:	4819      	ldr	r0, [pc, #100]	@ (8003b00 <USBCMD_Process+0x5b8>)
 8003a9c:	f004 f85c 	bl	8007b58 <sniprintf>
 8003aa0:	4817      	ldr	r0, [pc, #92]	@ (8003b00 <USBCMD_Process+0x5b8>)
 8003aa2:	f7ff f90f 	bl	8002cc4 <USBCMD_Send>
 8003aa6:	3601      	adds	r6, #1
 8003aa8:	e7eb      	b.n	8003a82 <USBCMD_Process+0x53a>
 8003aaa:	4628      	mov	r0, r5
 8003aac:	4928      	ldr	r1, [pc, #160]	@ (8003b50 <USBCMD_Process+0x608>)
 8003aae:	f7fe fb4d 	bl	800214c <strcmp>
 8003ab2:	2800      	cmp	r0, #0
 8003ab4:	d150      	bne.n	8003b58 <USBCMD_Process+0x610>
 8003ab6:	4605      	mov	r5, r0
 8003ab8:	b2e8      	uxtb	r0, r5
 8003aba:	f7fe fe63 	bl	8002784 <Motor_GetTicks>
 8003abe:	3501      	adds	r5, #1
 8003ac0:	462b      	mov	r3, r5
 8003ac2:	f44f 7100 	mov.w	r1, #512	@ 0x200
 8003ac6:	4a23      	ldr	r2, [pc, #140]	@ (8003b54 <USBCMD_Process+0x60c>)
 8003ac8:	9000      	str	r0, [sp, #0]
 8003aca:	480d      	ldr	r0, [pc, #52]	@ (8003b00 <USBCMD_Process+0x5b8>)
 8003acc:	f004 f844 	bl	8007b58 <sniprintf>
 8003ad0:	480b      	ldr	r0, [pc, #44]	@ (8003b00 <USBCMD_Process+0x5b8>)
 8003ad2:	f7ff f8f7 	bl	8002cc4 <USBCMD_Send>
 8003ad6:	2d03      	cmp	r5, #3
 8003ad8:	d1ee      	bne.n	8003ab8 <USBCMD_Process+0x570>
 8003ada:	e600      	b.n	80036de <USBCMD_Process+0x196>
 8003adc:	0800957a 	.word	0x0800957a
 8003ae0:	080094f8 	.word	0x080094f8
 8003ae4:	0800957e 	.word	0x0800957e
 8003ae8:	0800945f 	.word	0x0800945f
 8003aec:	08009463 	.word	0x08009463
 8003af0:	080095a1 	.word	0x080095a1
 8003af4:	080095b5 	.word	0x080095b5
 8003af8:	080095b8 	.word	0x080095b8
 8003afc:	080095d4 	.word	0x080095d4
 8003b00:	2000067e 	.word	0x2000067e
 8003b04:	080094d8 	.word	0x080094d8
 8003b08:	080095e9 	.word	0x080095e9
 8003b0c:	08009606 	.word	0x08009606
 8003b10:	0800961c 	.word	0x0800961c
 8003b14:	08009623 	.word	0x08009623
 8003b18:	20000320 	.word	0x20000320
 8003b1c:	0800963f 	.word	0x0800963f
 8003b20:	0800968b 	.word	0x0800968b
 8003b24:	08009690 	.word	0x08009690
 8003b28:	080096bc 	.word	0x080096bc
 8003b2c:	080096c4 	.word	0x080096c4
 8003b30:	080096e5 	.word	0x080096e5
 8003b34:	0800990a 	.word	0x0800990a
 8003b38:	08009709 	.word	0x08009709
 8003b3c:	0800970d 	.word	0x0800970d
 8003b40:	08009719 	.word	0x08009719
 8003b44:	0800973e 	.word	0x0800973e
 8003b48:	0800977a 	.word	0x0800977a
 8003b4c:	08009770 	.word	0x08009770
 8003b50:	080097ae 	.word	0x080097ae
 8003b54:	08009793 	.word	0x08009793
 8003b58:	4628      	mov	r0, r5
 8003b5a:	4993      	ldr	r1, [pc, #588]	@ (8003da8 <USBCMD_Process+0x860>)
 8003b5c:	f7fe faf6 	bl	800214c <strcmp>
 8003b60:	b9d0      	cbnz	r0, 8003b98 <USBCMD_Process+0x650>
 8003b62:	4992      	ldr	r1, [pc, #584]	@ (8003dac <USBCMD_Process+0x864>)
 8003b64:	f004 f88e 	bl	8007c84 <strtok>
 8003b68:	b948      	cbnz	r0, 8003b7e <USBCMD_Process+0x636>
 8003b6a:	f7fe fe19 	bl	80027a0 <Motor_ResetTicks>
 8003b6e:	2001      	movs	r0, #1
 8003b70:	f7fe fe16 	bl	80027a0 <Motor_ResetTicks>
 8003b74:	2002      	movs	r0, #2
 8003b76:	f7fe fe13 	bl	80027a0 <Motor_ResetTicks>
 8003b7a:	488d      	ldr	r0, [pc, #564]	@ (8003db0 <USBCMD_Process+0x868>)
 8003b7c:	e5ed      	b.n	800375a <USBCMD_Process+0x212>
 8003b7e:	f003 fe9f 	bl	80078c0 <atoi>
 8003b82:	4605      	mov	r5, r0
 8003b84:	3801      	subs	r0, #1
 8003b86:	2802      	cmp	r0, #2
 8003b88:	f63f ae15 	bhi.w	80037b6 <USBCMD_Process+0x26e>
 8003b8c:	b2c0      	uxtb	r0, r0
 8003b8e:	f7fe fe07 	bl	80027a0 <Motor_ResetTicks>
 8003b92:	462b      	mov	r3, r5
 8003b94:	4a87      	ldr	r2, [pc, #540]	@ (8003db4 <USBCMD_Process+0x86c>)
 8003b96:	e697      	b.n	80038c8 <USBCMD_Process+0x380>
 8003b98:	4628      	mov	r0, r5
 8003b9a:	4987      	ldr	r1, [pc, #540]	@ (8003db8 <USBCMD_Process+0x870>)
 8003b9c:	f7fe fad6 	bl	800214c <strcmp>
 8003ba0:	4607      	mov	r7, r0
 8003ba2:	2800      	cmp	r0, #0
 8003ba4:	d14c      	bne.n	8003c40 <USBCMD_Process+0x6f8>
 8003ba6:	4981      	ldr	r1, [pc, #516]	@ (8003dac <USBCMD_Process+0x864>)
 8003ba8:	f004 f86c 	bl	8007c84 <strtok>
 8003bac:	497f      	ldr	r1, [pc, #508]	@ (8003dac <USBCMD_Process+0x864>)
 8003bae:	4680      	mov	r8, r0
 8003bb0:	4638      	mov	r0, r7
 8003bb2:	f004 f867 	bl	8007c84 <strtok>
 8003bb6:	497d      	ldr	r1, [pc, #500]	@ (8003dac <USBCMD_Process+0x864>)
 8003bb8:	4605      	mov	r5, r0
 8003bba:	4638      	mov	r0, r7
 8003bbc:	f004 f862 	bl	8007c84 <strtok>
 8003bc0:	497a      	ldr	r1, [pc, #488]	@ (8003dac <USBCMD_Process+0x864>)
 8003bc2:	4606      	mov	r6, r0
 8003bc4:	4638      	mov	r0, r7
 8003bc6:	f004 f85d 	bl	8007c84 <strtok>
 8003bca:	4607      	mov	r7, r0
 8003bcc:	f1b8 0f00 	cmp.w	r8, #0
 8003bd0:	d002      	beq.n	8003bd8 <USBCMD_Process+0x690>
 8003bd2:	b10d      	cbz	r5, 8003bd8 <USBCMD_Process+0x690>
 8003bd4:	b106      	cbz	r6, 8003bd8 <USBCMD_Process+0x690>
 8003bd6:	b908      	cbnz	r0, 8003bdc <USBCMD_Process+0x694>
 8003bd8:	4878      	ldr	r0, [pc, #480]	@ (8003dbc <USBCMD_Process+0x874>)
 8003bda:	e5be      	b.n	800375a <USBCMD_Process+0x212>
 8003bdc:	4640      	mov	r0, r8
 8003bde:	f003 fe6f 	bl	80078c0 <atoi>
 8003be2:	f100 39ff 	add.w	r9, r0, #4294967295
 8003be6:	4680      	mov	r8, r0
 8003be8:	4628      	mov	r0, r5
 8003bea:	f003 fe69 	bl	80078c0 <atoi>
 8003bee:	4605      	mov	r5, r0
 8003bf0:	4630      	mov	r0, r6
 8003bf2:	f003 fe65 	bl	80078c0 <atoi>
 8003bf6:	4606      	mov	r6, r0
 8003bf8:	4638      	mov	r0, r7
 8003bfa:	f003 fe61 	bl	80078c0 <atoi>
 8003bfe:	f1b9 0f02 	cmp.w	r9, #2
 8003c02:	4607      	mov	r7, r0
 8003c04:	f63f add7 	bhi.w	80037b6 <USBCMD_Process+0x26e>
 8003c08:	2d02      	cmp	r5, #2
 8003c0a:	f63f add4 	bhi.w	80037b6 <USBCMD_Process+0x26e>
 8003c0e:	2e02      	cmp	r6, #2
 8003c10:	f63f add1 	bhi.w	80037b6 <USBCMD_Process+0x26e>
 8003c14:	2802      	cmp	r0, #2
 8003c16:	f63f adce 	bhi.w	80037b6 <USBCMD_Process+0x26e>
 8003c1a:	b2c3      	uxtb	r3, r0
 8003c1c:	b2f2      	uxtb	r2, r6
 8003c1e:	b2e9      	uxtb	r1, r5
 8003c20:	fa5f f089 	uxtb.w	r0, r9
 8003c24:	f7fe fdda 	bl	80027dc <Motor_SetPhaseMap>
 8003c28:	4643      	mov	r3, r8
 8003c2a:	e9cd 6701 	strd	r6, r7, [sp, #4]
 8003c2e:	9500      	str	r5, [sp, #0]
 8003c30:	f44f 7100 	mov.w	r1, #512	@ 0x200
 8003c34:	4a62      	ldr	r2, [pc, #392]	@ (8003dc0 <USBCMD_Process+0x878>)
 8003c36:	4863      	ldr	r0, [pc, #396]	@ (8003dc4 <USBCMD_Process+0x87c>)
 8003c38:	f003 ff8e 	bl	8007b58 <sniprintf>
 8003c3c:	4861      	ldr	r0, [pc, #388]	@ (8003dc4 <USBCMD_Process+0x87c>)
 8003c3e:	e58c      	b.n	800375a <USBCMD_Process+0x212>
 8003c40:	4628      	mov	r0, r5
 8003c42:	4961      	ldr	r1, [pc, #388]	@ (8003dc8 <USBCMD_Process+0x880>)
 8003c44:	f7fe fa82 	bl	800214c <strcmp>
 8003c48:	b9c0      	cbnz	r0, 8003c7c <USBCMD_Process+0x734>
 8003c4a:	4958      	ldr	r1, [pc, #352]	@ (8003dac <USBCMD_Process+0x864>)
 8003c4c:	f004 f81a 	bl	8007c84 <strtok>
 8003c50:	b908      	cbnz	r0, 8003c56 <USBCMD_Process+0x70e>
 8003c52:	485e      	ldr	r0, [pc, #376]	@ (8003dcc <USBCMD_Process+0x884>)
 8003c54:	e581      	b.n	800375a <USBCMD_Process+0x212>
 8003c56:	f003 fe33 	bl	80078c0 <atoi>
 8003c5a:	1e41      	subs	r1, r0, #1
 8003c5c:	2902      	cmp	r1, #2
 8003c5e:	4603      	mov	r3, r0
 8003c60:	f63f ada9 	bhi.w	80037b6 <USBCMD_Process+0x26e>
 8003c64:	f44f 708a 	mov.w	r0, #276	@ 0x114
 8003c68:	4a59      	ldr	r2, [pc, #356]	@ (8003dd0 <USBCMD_Process+0x888>)
 8003c6a:	fb00 2201 	mla	r2, r0, r1, r2
 8003c6e:	7b91      	ldrb	r1, [r2, #14]
 8003c70:	9102      	str	r1, [sp, #8]
 8003c72:	7b51      	ldrb	r1, [r2, #13]
 8003c74:	9101      	str	r1, [sp, #4]
 8003c76:	7b12      	ldrb	r2, [r2, #12]
 8003c78:	9200      	str	r2, [sp, #0]
 8003c7a:	e7d9      	b.n	8003c30 <USBCMD_Process+0x6e8>
 8003c7c:	4628      	mov	r0, r5
 8003c7e:	4955      	ldr	r1, [pc, #340]	@ (8003dd4 <USBCMD_Process+0x88c>)
 8003c80:	f7fe fa64 	bl	800214c <strcmp>
 8003c84:	4606      	mov	r6, r0
 8003c86:	bb58      	cbnz	r0, 8003ce0 <USBCMD_Process+0x798>
 8003c88:	4948      	ldr	r1, [pc, #288]	@ (8003dac <USBCMD_Process+0x864>)
 8003c8a:	f003 fffb 	bl	8007c84 <strtok>
 8003c8e:	4605      	mov	r5, r0
 8003c90:	4946      	ldr	r1, [pc, #280]	@ (8003dac <USBCMD_Process+0x864>)
 8003c92:	4630      	mov	r0, r6
 8003c94:	f003 fff6 	bl	8007c84 <strtok>
 8003c98:	b105      	cbz	r5, 8003c9c <USBCMD_Process+0x754>
 8003c9a:	b908      	cbnz	r0, 8003ca0 <USBCMD_Process+0x758>
 8003c9c:	484e      	ldr	r0, [pc, #312]	@ (8003dd8 <USBCMD_Process+0x890>)
 8003c9e:	e55c      	b.n	800375a <USBCMD_Process+0x212>
 8003ca0:	f003 fe0e 	bl	80078c0 <atoi>
 8003ca4:	2801      	cmp	r0, #1
 8003ca6:	4606      	mov	r6, r0
 8003ca8:	d901      	bls.n	8003cae <USBCMD_Process+0x766>
 8003caa:	484c      	ldr	r0, [pc, #304]	@ (8003ddc <USBCMD_Process+0x894>)
 8003cac:	e555      	b.n	800375a <USBCMD_Process+0x212>
 8003cae:	4628      	mov	r0, r5
 8003cb0:	f7fe ffd2 	bl	8002c58 <find_pin>
 8003cb4:	b908      	cbnz	r0, 8003cba <USBCMD_Process+0x772>
 8003cb6:	462b      	mov	r3, r5
 8003cb8:	e023      	b.n	8003d02 <USBCMD_Process+0x7ba>
 8003cba:	7a83      	ldrb	r3, [r0, #10]
 8003cbc:	b913      	cbnz	r3, 8003cc4 <USBCMD_Process+0x77c>
 8003cbe:	462b      	mov	r3, r5
 8003cc0:	4a47      	ldr	r2, [pc, #284]	@ (8003de0 <USBCMD_Process+0x898>)
 8003cc2:	e601      	b.n	80038c8 <USBCMD_Process+0x380>
 8003cc4:	7ac3      	ldrb	r3, [r0, #11]
 8003cc6:	b113      	cbz	r3, 8003cce <USBCMD_Process+0x786>
 8003cc8:	462b      	mov	r3, r5
 8003cca:	4a46      	ldr	r2, [pc, #280]	@ (8003de4 <USBCMD_Process+0x89c>)
 8003ccc:	e5fc      	b.n	80038c8 <USBCMD_Process+0x380>
 8003cce:	8901      	ldrh	r1, [r0, #8]
 8003cd0:	b2f2      	uxtb	r2, r6
 8003cd2:	6840      	ldr	r0, [r0, #4]
 8003cd4:	f000 ff24 	bl	8004b20 <HAL_GPIO_WritePin>
 8003cd8:	462b      	mov	r3, r5
 8003cda:	4a43      	ldr	r2, [pc, #268]	@ (8003de8 <USBCMD_Process+0x8a0>)
 8003cdc:	9600      	str	r6, [sp, #0]
 8003cde:	e573      	b.n	80037c8 <USBCMD_Process+0x280>
 8003ce0:	4628      	mov	r0, r5
 8003ce2:	4942      	ldr	r1, [pc, #264]	@ (8003dec <USBCMD_Process+0x8a4>)
 8003ce4:	f7fe fa32 	bl	800214c <strcmp>
 8003ce8:	bb38      	cbnz	r0, 8003d3a <USBCMD_Process+0x7f2>
 8003cea:	4930      	ldr	r1, [pc, #192]	@ (8003dac <USBCMD_Process+0x864>)
 8003cec:	f003 ffca 	bl	8007c84 <strtok>
 8003cf0:	4606      	mov	r6, r0
 8003cf2:	b908      	cbnz	r0, 8003cf8 <USBCMD_Process+0x7b0>
 8003cf4:	483e      	ldr	r0, [pc, #248]	@ (8003df0 <USBCMD_Process+0x8a8>)
 8003cf6:	e530      	b.n	800375a <USBCMD_Process+0x212>
 8003cf8:	f7fe ffae 	bl	8002c58 <find_pin>
 8003cfc:	4605      	mov	r5, r0
 8003cfe:	b910      	cbnz	r0, 8003d06 <USBCMD_Process+0x7be>
 8003d00:	4633      	mov	r3, r6
 8003d02:	4a3c      	ldr	r2, [pc, #240]	@ (8003df4 <USBCMD_Process+0x8ac>)
 8003d04:	e5e0      	b.n	80038c8 <USBCMD_Process+0x380>
 8003d06:	8901      	ldrh	r1, [r0, #8]
 8003d08:	6840      	ldr	r0, [r0, #4]
 8003d0a:	f000 ff03 	bl	8004b14 <HAL_GPIO_ReadPin>
 8003d0e:	7aa9      	ldrb	r1, [r5, #10]
 8003d10:	f100 3eff 	add.w	lr, r0, #4294967295
 8003d14:	4a38      	ldr	r2, [pc, #224]	@ (8003df8 <USBCMD_Process+0x8b0>)
 8003d16:	4b39      	ldr	r3, [pc, #228]	@ (8003dfc <USBCMD_Process+0x8b4>)
 8003d18:	f1de 0000 	rsbs	r0, lr, #0
 8003d1c:	eb40 000e 	adc.w	r0, r0, lr
 8003d20:	2900      	cmp	r1, #0
 8003d22:	bf18      	it	ne
 8003d24:	4613      	movne	r3, r2
 8003d26:	f44f 7100 	mov.w	r1, #512	@ 0x200
 8003d2a:	e9cd 0300 	strd	r0, r3, [sp]
 8003d2e:	4a34      	ldr	r2, [pc, #208]	@ (8003e00 <USBCMD_Process+0x8b8>)
 8003d30:	4633      	mov	r3, r6
 8003d32:	4824      	ldr	r0, [pc, #144]	@ (8003dc4 <USBCMD_Process+0x87c>)
 8003d34:	f003 ff10 	bl	8007b58 <sniprintf>
 8003d38:	e780      	b.n	8003c3c <USBCMD_Process+0x6f4>
 8003d3a:	4628      	mov	r0, r5
 8003d3c:	4931      	ldr	r1, [pc, #196]	@ (8003e04 <USBCMD_Process+0x8bc>)
 8003d3e:	f7fe fa05 	bl	800214c <strcmp>
 8003d42:	2800      	cmp	r0, #0
 8003d44:	d16a      	bne.n	8003e1c <USBCMD_Process+0x8d4>
 8003d46:	4830      	ldr	r0, [pc, #192]	@ (8003e08 <USBCMD_Process+0x8c0>)
 8003d48:	f7fe ffbc 	bl	8002cc4 <USBCMD_Send>
 8003d4c:	2600      	movs	r6, #0
 8003d4e:	4d2f      	ldr	r5, [pc, #188]	@ (8003e0c <USBCMD_Process+0x8c4>)
 8003d50:	4f29      	ldr	r7, [pc, #164]	@ (8003df8 <USBCMD_Process+0x8b0>)
 8003d52:	8929      	ldrh	r1, [r5, #8]
 8003d54:	6868      	ldr	r0, [r5, #4]
 8003d56:	f000 fedd 	bl	8004b14 <HAL_GPIO_ReadPin>
 8003d5a:	7aab      	ldrb	r3, [r5, #10]
 8003d5c:	f100 3cff 	add.w	ip, r0, #4294967295
 8003d60:	4a26      	ldr	r2, [pc, #152]	@ (8003dfc <USBCMD_Process+0x8b4>)
 8003d62:	f1dc 0000 	rsbs	r0, ip, #0
 8003d66:	eb40 000c 	adc.w	r0, r0, ip
 8003d6a:	4929      	ldr	r1, [pc, #164]	@ (8003e10 <USBCMD_Process+0x8c8>)
 8003d6c:	f895 c00b 	ldrb.w	ip, [r5, #11]
 8003d70:	2b00      	cmp	r3, #0
 8003d72:	bf18      	it	ne
 8003d74:	463a      	movne	r2, r7
 8003d76:	4b27      	ldr	r3, [pc, #156]	@ (8003e14 <USBCMD_Process+0x8cc>)
 8003d78:	9000      	str	r0, [sp, #0]
 8003d7a:	f1bc 0f00 	cmp.w	ip, #0
 8003d7e:	bf18      	it	ne
 8003d80:	460b      	movne	r3, r1
 8003d82:	e9cd 2301 	strd	r2, r3, [sp, #4]
 8003d86:	f44f 7100 	mov.w	r1, #512	@ 0x200
 8003d8a:	682b      	ldr	r3, [r5, #0]
 8003d8c:	4a22      	ldr	r2, [pc, #136]	@ (8003e18 <USBCMD_Process+0x8d0>)
 8003d8e:	480d      	ldr	r0, [pc, #52]	@ (8003dc4 <USBCMD_Process+0x87c>)
 8003d90:	f003 fee2 	bl	8007b58 <sniprintf>
 8003d94:	3601      	adds	r6, #1
 8003d96:	480b      	ldr	r0, [pc, #44]	@ (8003dc4 <USBCMD_Process+0x87c>)
 8003d98:	f7fe ff94 	bl	8002cc4 <USBCMD_Send>
 8003d9c:	2e1b      	cmp	r6, #27
 8003d9e:	f105 050c 	add.w	r5, r5, #12
 8003da2:	d1d6      	bne.n	8003d52 <USBCMD_Process+0x80a>
 8003da4:	e49b      	b.n	80036de <USBCMD_Process+0x196>
 8003da6:	bf00      	nop
 8003da8:	080097a9 	.word	0x080097a9
 8003dac:	080094f8 	.word	0x080094f8
 8003db0:	080097b4 	.word	0x080097b4
 8003db4:	080097c9 	.word	0x080097c9
 8003db8:	08009825 	.word	0x08009825
 8003dbc:	080097de 	.word	0x080097de
 8003dc0:	0800980a 	.word	0x0800980a
 8003dc4:	2000067e 	.word	0x2000067e
 8003dc8:	08009822 	.word	0x08009822
 8003dcc:	08009829 	.word	0x08009829
 8003dd0:	20000320 	.word	0x20000320
 8003dd4:	08009849 	.word	0x08009849
 8003dd8:	08009850 	.word	0x08009850
 8003ddc:	08009871 	.word	0x08009871
 8003de0:	080098a2 	.word	0x080098a2
 8003de4:	080098b9 	.word	0x080098b9
 8003de8:	080098ce 	.word	0x080098ce
 8003dec:	080098d9 	.word	0x080098d9
 8003df0:	080098e1 	.word	0x080098e1
 8003df4:	0800988c 	.word	0x0800988c
 8003df8:	08009467 	.word	0x08009467
 8003dfc:	080098de 	.word	0x080098de
 8003e00:	080098fd 	.word	0x080098fd
 8003e04:	0800990d 	.word	0x0800990d
 8003e08:	08009912 	.word	0x08009912
 8003e0c:	08009f00 	.word	0x08009f00
 8003e10:	0800946b 	.word	0x0800946b
 8003e14:	080094fa 	.word	0x080094fa
 8003e18:	0800992c 	.word	0x0800992c
 8003e1c:	4628      	mov	r0, r5
 8003e1e:	49a5      	ldr	r1, [pc, #660]	@ (80040b4 <USBCMD_Process+0xb6c>)
 8003e20:	f7fe f994 	bl	800214c <strcmp>
 8003e24:	4606      	mov	r6, r0
 8003e26:	2800      	cmp	r0, #0
 8003e28:	d15b      	bne.n	8003ee2 <USBCMD_Process+0x99a>
 8003e2a:	f8df b28c 	ldr.w	fp, [pc, #652]	@ 80040b8 <USBCMD_Process+0xb70>
 8003e2e:	48a3      	ldr	r0, [pc, #652]	@ (80040bc <USBCMD_Process+0xb74>)
 8003e30:	f8db 300c 	ldr.w	r3, [fp, #12]
 8003e34:	f8db 8008 	ldr.w	r8, [fp, #8]
 8003e38:	930b      	str	r3, [sp, #44]	@ 0x2c
 8003e3a:	4ba1      	ldr	r3, [pc, #644]	@ (80040c0 <USBCMD_Process+0xb78>)
 8003e3c:	4da1      	ldr	r5, [pc, #644]	@ (80040c4 <USBCMD_Process+0xb7c>)
 8003e3e:	f8d3 900c 	ldr.w	r9, [r3, #12]
 8003e42:	689f      	ldr	r7, [r3, #8]
 8003e44:	f7fe ff3e 	bl	8002cc4 <USBCMD_Send>
 8003e48:	9b0b      	ldr	r3, [sp, #44]	@ 0x2c
 8003e4a:	f44f 7100 	mov.w	r1, #512	@ 0x200
 8003e4e:	ea83 0308 	eor.w	r3, r3, r8
 8003e52:	4a9d      	ldr	r2, [pc, #628]	@ (80040c8 <USBCMD_Process+0xb80>)
 8003e54:	e9cd 8300 	strd	r8, r3, [sp]
 8003e58:	489c      	ldr	r0, [pc, #624]	@ (80040cc <USBCMD_Process+0xb84>)
 8003e5a:	9b0b      	ldr	r3, [sp, #44]	@ 0x2c
 8003e5c:	f003 fe7c 	bl	8007b58 <sniprintf>
 8003e60:	489a      	ldr	r0, [pc, #616]	@ (80040cc <USBCMD_Process+0xb84>)
 8003e62:	f7fe ff2f 	bl	8002cc4 <USBCMD_Send>
 8003e66:	ea89 0307 	eor.w	r3, r9, r7
 8003e6a:	f44f 7100 	mov.w	r1, #512	@ 0x200
 8003e6e:	e9cd 7300 	strd	r7, r3, [sp]
 8003e72:	4a97      	ldr	r2, [pc, #604]	@ (80040d0 <USBCMD_Process+0xb88>)
 8003e74:	464b      	mov	r3, r9
 8003e76:	4895      	ldr	r0, [pc, #596]	@ (80040cc <USBCMD_Process+0xb84>)
 8003e78:	f003 fe6e 	bl	8007b58 <sniprintf>
 8003e7c:	4893      	ldr	r0, [pc, #588]	@ (80040cc <USBCMD_Process+0xb84>)
 8003e7e:	f7fe ff21 	bl	8002cc4 <USBCMD_Send>
 8003e82:	7aab      	ldrb	r3, [r5, #10]
 8003e84:	b323      	cbz	r3, 8003ed0 <USBCMD_Process+0x988>
 8003e86:	7aeb      	ldrb	r3, [r5, #11]
 8003e88:	bb13      	cbnz	r3, 8003ed0 <USBCMD_Process+0x988>
 8003e8a:	686b      	ldr	r3, [r5, #4]
 8003e8c:	2100      	movs	r1, #0
 8003e8e:	455b      	cmp	r3, fp
 8003e90:	bf0d      	iteet	eq
 8003e92:	4643      	moveq	r3, r8
 8003e94:	464a      	movne	r2, r9
 8003e96:	463b      	movne	r3, r7
 8003e98:	9a0b      	ldreq	r2, [sp, #44]	@ 0x2c
 8003e9a:	f8b5 c008 	ldrh.w	ip, [r5, #8]
 8003e9e:	fa4c f001 	asr.w	r0, ip, r1
 8003ea2:	07c0      	lsls	r0, r0, #31
 8003ea4:	d402      	bmi.n	8003eac <USBCMD_Process+0x964>
 8003ea6:	3101      	adds	r1, #1
 8003ea8:	2910      	cmp	r1, #16
 8003eaa:	d1f8      	bne.n	8003e9e <USBCMD_Process+0x956>
 8003eac:	40ca      	lsrs	r2, r1
 8003eae:	07d0      	lsls	r0, r2, #31
 8003eb0:	d50e      	bpl.n	8003ed0 <USBCMD_Process+0x988>
 8003eb2:	40cb      	lsrs	r3, r1
 8003eb4:	07da      	lsls	r2, r3, #31
 8003eb6:	d40b      	bmi.n	8003ed0 <USBCMD_Process+0x988>
 8003eb8:	9100      	str	r1, [sp, #0]
 8003eba:	682b      	ldr	r3, [r5, #0]
 8003ebc:	f44f 7100 	mov.w	r1, #512	@ 0x200
 8003ec0:	4a84      	ldr	r2, [pc, #528]	@ (80040d4 <USBCMD_Process+0xb8c>)
 8003ec2:	4882      	ldr	r0, [pc, #520]	@ (80040cc <USBCMD_Process+0xb84>)
 8003ec4:	f003 fe48 	bl	8007b58 <sniprintf>
 8003ec8:	4880      	ldr	r0, [pc, #512]	@ (80040cc <USBCMD_Process+0xb84>)
 8003eca:	f7fe fefb 	bl	8002cc4 <USBCMD_Send>
 8003ece:	2601      	movs	r6, #1
 8003ed0:	4b81      	ldr	r3, [pc, #516]	@ (80040d8 <USBCMD_Process+0xb90>)
 8003ed2:	350c      	adds	r5, #12
 8003ed4:	42ab      	cmp	r3, r5
 8003ed6:	d1d4      	bne.n	8003e82 <USBCMD_Process+0x93a>
 8003ed8:	2e00      	cmp	r6, #0
 8003eda:	f47f ac00 	bne.w	80036de <USBCMD_Process+0x196>
 8003ede:	487f      	ldr	r0, [pc, #508]	@ (80040dc <USBCMD_Process+0xb94>)
 8003ee0:	e43b      	b.n	800375a <USBCMD_Process+0x212>
 8003ee2:	4628      	mov	r0, r5
 8003ee4:	497e      	ldr	r1, [pc, #504]	@ (80040e0 <USBCMD_Process+0xb98>)
 8003ee6:	f7fe f931 	bl	800214c <strcmp>
 8003eea:	2800      	cmp	r0, #0
 8003eec:	f040 808e 	bne.w	800400c <USBCMD_Process+0xac4>
 8003ef0:	497c      	ldr	r1, [pc, #496]	@ (80040e4 <USBCMD_Process+0xb9c>)
 8003ef2:	f003 fec7 	bl	8007c84 <strtok>
 8003ef6:	4605      	mov	r5, r0
 8003ef8:	b148      	cbz	r0, 8003f0e <USBCMD_Process+0x9c6>
 8003efa:	497b      	ldr	r1, [pc, #492]	@ (80040e8 <USBCMD_Process+0xba0>)
 8003efc:	f7fe f926 	bl	800214c <strcmp>
 8003f00:	b138      	cbz	r0, 8003f12 <USBCMD_Process+0x9ca>
 8003f02:	4628      	mov	r0, r5
 8003f04:	4979      	ldr	r1, [pc, #484]	@ (80040ec <USBCMD_Process+0xba4>)
 8003f06:	f7fe f921 	bl	800214c <strcmp>
 8003f0a:	2800      	cmp	r0, #0
 8003f0c:	d03f      	beq.n	8003f8e <USBCMD_Process+0xa46>
 8003f0e:	4878      	ldr	r0, [pc, #480]	@ (80040f0 <USBCMD_Process+0xba8>)
 8003f10:	e423      	b.n	800375a <USBCMD_Process+0x212>
 8003f12:	f8df 91e0 	ldr.w	r9, [pc, #480]	@ 80040f4 <USBCMD_Process+0xbac>
 8003f16:	4f68      	ldr	r7, [pc, #416]	@ (80040b8 <USBCMD_Process+0xb70>)
 8003f18:	683b      	ldr	r3, [r7, #0]
 8003f1a:	687a      	ldr	r2, [r7, #4]
 8003f1c:	68b9      	ldr	r1, [r7, #8]
 8003f1e:	68f8      	ldr	r0, [r7, #12]
 8003f20:	e9cd 3200 	strd	r3, r2, [sp]
 8003f24:	e9cd 1002 	strd	r1, r0, [sp, #8]
 8003f28:	464b      	mov	r3, r9
 8003f2a:	f44f 7100 	mov.w	r1, #512	@ 0x200
 8003f2e:	4a72      	ldr	r2, [pc, #456]	@ (80040f8 <USBCMD_Process+0xbb0>)
 8003f30:	4866      	ldr	r0, [pc, #408]	@ (80040cc <USBCMD_Process+0xb84>)
 8003f32:	f003 fe11 	bl	8007b58 <sniprintf>
 8003f36:	4865      	ldr	r0, [pc, #404]	@ (80040cc <USBCMD_Process+0xb84>)
 8003f38:	f7fe fec4 	bl	8002cc4 <USBCMD_Send>
 8003f3c:	f04f 0800 	mov.w	r8, #0
 8003f40:	4d6e      	ldr	r5, [pc, #440]	@ (80040fc <USBCMD_Process+0xbb4>)
 8003f42:	4e6f      	ldr	r6, [pc, #444]	@ (8004100 <USBCMD_Process+0xbb8>)
 8003f44:	f1b8 0f07 	cmp.w	r8, #7
 8003f48:	fa5f f288 	uxtb.w	r2, r8
 8003f4c:	bf94      	ite	ls
 8003f4e:	683b      	ldrls	r3, [r7, #0]
 8003f50:	687b      	ldrhi	r3, [r7, #4]
 8003f52:	f002 0207 	and.w	r2, r2, #7
 8003f56:	0092      	lsls	r2, r2, #2
 8003f58:	40d3      	lsrs	r3, r2
 8003f5a:	f003 000f 	and.w	r0, r3, #15
 8003f5e:	f3c3 0181 	ubfx	r1, r3, #2, #2
 8003f62:	f013 0303 	ands.w	r3, r3, #3
 8003f66:	d016      	beq.n	8003f96 <USBCMD_Process+0xa4e>
 8003f68:	2b01      	cmp	r3, #1
 8003f6a:	d040      	beq.n	8003fee <USBCMD_Process+0xaa6>
 8003f6c:	4a65      	ldr	r2, [pc, #404]	@ (8004104 <USBCMD_Process+0xbbc>)
 8003f6e:	f8df c198 	ldr.w	ip, [pc, #408]	@ 8004108 <USBCMD_Process+0xbc0>
 8003f72:	2b02      	cmp	r3, #2
 8003f74:	bf08      	it	eq
 8003f76:	4662      	moveq	r2, ip
 8003f78:	2900      	cmp	r1, #0
 8003f7a:	d043      	beq.n	8004004 <USBCMD_Process+0xabc>
 8003f7c:	2901      	cmp	r1, #1
 8003f7e:	d043      	beq.n	8004008 <USBCMD_Process+0xac0>
 8003f80:	4b62      	ldr	r3, [pc, #392]	@ (800410c <USBCMD_Process+0xbc4>)
 8003f82:	f8df c18c 	ldr.w	ip, [pc, #396]	@ 8004110 <USBCMD_Process+0xbc8>
 8003f86:	2902      	cmp	r1, #2
 8003f88:	bf08      	it	eq
 8003f8a:	4663      	moveq	r3, ip
 8003f8c:	e00a      	b.n	8003fa4 <USBCMD_Process+0xa5c>
 8003f8e:	f8df 9184 	ldr.w	r9, [pc, #388]	@ 8004114 <USBCMD_Process+0xbcc>
 8003f92:	4f4b      	ldr	r7, [pc, #300]	@ (80040c0 <USBCMD_Process+0xb78>)
 8003f94:	e7c0      	b.n	8003f18 <USBCMD_Process+0x9d0>
 8003f96:	b361      	cbz	r1, 8003ff2 <USBCMD_Process+0xaaa>
 8003f98:	2901      	cmp	r1, #1
 8003f9a:	d02d      	beq.n	8003ff8 <USBCMD_Process+0xab0>
 8003f9c:	2902      	cmp	r1, #2
 8003f9e:	d12e      	bne.n	8003ffe <USBCMD_Process+0xab6>
 8003fa0:	4a56      	ldr	r2, [pc, #344]	@ (80040fc <USBCMD_Process+0xbb4>)
 8003fa2:	4b5d      	ldr	r3, [pc, #372]	@ (8004118 <USBCMD_Process+0xbd0>)
 8003fa4:	68f9      	ldr	r1, [r7, #12]
 8003fa6:	f8d7 c008 	ldr.w	ip, [r7, #8]
 8003faa:	fa21 f108 	lsr.w	r1, r1, r8
 8003fae:	fa2c fc08 	lsr.w	ip, ip, r8
 8003fb2:	f00c 0c01 	and.w	ip, ip, #1
 8003fb6:	f001 0101 	and.w	r1, r1, #1
 8003fba:	e9cd 3103 	strd	r3, r1, [sp, #12]
 8003fbe:	e9cd 0201 	strd	r0, r2, [sp, #4]
 8003fc2:	f44f 7100 	mov.w	r1, #512	@ 0x200
 8003fc6:	4a55      	ldr	r2, [pc, #340]	@ (800411c <USBCMD_Process+0xbd4>)
 8003fc8:	f8cd c014 	str.w	ip, [sp, #20]
 8003fcc:	f8cd 8000 	str.w	r8, [sp]
 8003fd0:	f109 0304 	add.w	r3, r9, #4
 8003fd4:	483d      	ldr	r0, [pc, #244]	@ (80040cc <USBCMD_Process+0xb84>)
 8003fd6:	f003 fdbf 	bl	8007b58 <sniprintf>
 8003fda:	f108 0801 	add.w	r8, r8, #1
 8003fde:	483b      	ldr	r0, [pc, #236]	@ (80040cc <USBCMD_Process+0xb84>)
 8003fe0:	f7fe fe70 	bl	8002cc4 <USBCMD_Send>
 8003fe4:	f1b8 0f10 	cmp.w	r8, #16
 8003fe8:	d1ac      	bne.n	8003f44 <USBCMD_Process+0x9fc>
 8003fea:	f7ff bb78 	b.w	80036de <USBCMD_Process+0x196>
 8003fee:	4a4c      	ldr	r2, [pc, #304]	@ (8004120 <USBCMD_Process+0xbd8>)
 8003ff0:	e7c2      	b.n	8003f78 <USBCMD_Process+0xa30>
 8003ff2:	462a      	mov	r2, r5
 8003ff4:	4633      	mov	r3, r6
 8003ff6:	e7d5      	b.n	8003fa4 <USBCMD_Process+0xa5c>
 8003ff8:	462a      	mov	r2, r5
 8003ffa:	4b4a      	ldr	r3, [pc, #296]	@ (8004124 <USBCMD_Process+0xbdc>)
 8003ffc:	e7d2      	b.n	8003fa4 <USBCMD_Process+0xa5c>
 8003ffe:	462a      	mov	r2, r5
 8004000:	4b49      	ldr	r3, [pc, #292]	@ (8004128 <USBCMD_Process+0xbe0>)
 8004002:	e7cf      	b.n	8003fa4 <USBCMD_Process+0xa5c>
 8004004:	4b49      	ldr	r3, [pc, #292]	@ (800412c <USBCMD_Process+0xbe4>)
 8004006:	e7cd      	b.n	8003fa4 <USBCMD_Process+0xa5c>
 8004008:	4b49      	ldr	r3, [pc, #292]	@ (8004130 <USBCMD_Process+0xbe8>)
 800400a:	e7cb      	b.n	8003fa4 <USBCMD_Process+0xa5c>
 800400c:	4628      	mov	r0, r5
 800400e:	4949      	ldr	r1, [pc, #292]	@ (8004134 <USBCMD_Process+0xbec>)
 8004010:	f7fe f89c 	bl	800214c <strcmp>
 8004014:	4606      	mov	r6, r0
 8004016:	2800      	cmp	r0, #0
 8004018:	f040 8096 	bne.w	8004148 <USBCMD_Process+0xc00>
 800401c:	4931      	ldr	r1, [pc, #196]	@ (80040e4 <USBCMD_Process+0xb9c>)
 800401e:	f003 fe31 	bl	8007c84 <strtok>
 8004022:	4930      	ldr	r1, [pc, #192]	@ (80040e4 <USBCMD_Process+0xb9c>)
 8004024:	4605      	mov	r5, r0
 8004026:	4630      	mov	r0, r6
 8004028:	f003 fe2c 	bl	8007c84 <strtok>
 800402c:	4606      	mov	r6, r0
 800402e:	b105      	cbz	r5, 8004032 <USBCMD_Process+0xaea>
 8004030:	b910      	cbnz	r0, 8004038 <USBCMD_Process+0xaf0>
 8004032:	4841      	ldr	r0, [pc, #260]	@ (8004138 <USBCMD_Process+0xbf0>)
 8004034:	f7ff bb91 	b.w	800375a <USBCMD_Process+0x212>
 8004038:	4628      	mov	r0, r5
 800403a:	492b      	ldr	r1, [pc, #172]	@ (80040e8 <USBCMD_Process+0xba0>)
 800403c:	f7fe f886 	bl	800214c <strcmp>
 8004040:	b138      	cbz	r0, 8004052 <USBCMD_Process+0xb0a>
 8004042:	4628      	mov	r0, r5
 8004044:	4929      	ldr	r1, [pc, #164]	@ (80040ec <USBCMD_Process+0xba4>)
 8004046:	f7fe f881 	bl	800214c <strcmp>
 800404a:	b160      	cbz	r0, 8004066 <USBCMD_Process+0xb1e>
 800404c:	483b      	ldr	r0, [pc, #236]	@ (800413c <USBCMD_Process+0xbf4>)
 800404e:	f7ff bb84 	b.w	800375a <USBCMD_Process+0x212>
 8004052:	4d25      	ldr	r5, [pc, #148]	@ (80040e8 <USBCMD_Process+0xba0>)
 8004054:	4f18      	ldr	r7, [pc, #96]	@ (80040b8 <USBCMD_Process+0xb70>)
 8004056:	4630      	mov	r0, r6
 8004058:	f003 fc32 	bl	80078c0 <atoi>
 800405c:	280f      	cmp	r0, #15
 800405e:	d905      	bls.n	800406c <USBCMD_Process+0xb24>
 8004060:	4837      	ldr	r0, [pc, #220]	@ (8004140 <USBCMD_Process+0xbf8>)
 8004062:	f7ff bb7a 	b.w	800375a <USBCMD_Process+0x212>
 8004066:	4d21      	ldr	r5, [pc, #132]	@ (80040ec <USBCMD_Process+0xba4>)
 8004068:	4f15      	ldr	r7, [pc, #84]	@ (80040c0 <USBCMD_Process+0xb78>)
 800406a:	e7f4      	b.n	8004056 <USBCMD_Process+0xb0e>
 800406c:	2807      	cmp	r0, #7
 800406e:	bfd4      	ite	le
 8004070:	683a      	ldrle	r2, [r7, #0]
 8004072:	687a      	ldrgt	r2, [r7, #4]
 8004074:	f000 0307 	and.w	r3, r0, #7
 8004078:	009b      	lsls	r3, r3, #2
 800407a:	68f9      	ldr	r1, [r7, #12]
 800407c:	40da      	lsrs	r2, r3
 800407e:	68bb      	ldr	r3, [r7, #8]
 8004080:	f002 060f 	and.w	r6, r2, #15
 8004084:	40c3      	lsrs	r3, r0
 8004086:	f003 0301 	and.w	r3, r3, #1
 800408a:	9305      	str	r3, [sp, #20]
 800408c:	f3c2 0381 	ubfx	r3, r2, #2, #2
 8004090:	9303      	str	r3, [sp, #12]
 8004092:	462b      	mov	r3, r5
 8004094:	f002 0203 	and.w	r2, r2, #3
 8004098:	40c1      	lsrs	r1, r0
 800409a:	e9cd 6201 	strd	r6, r2, [sp, #4]
 800409e:	f001 0101 	and.w	r1, r1, #1
 80040a2:	4a28      	ldr	r2, [pc, #160]	@ (8004144 <USBCMD_Process+0xbfc>)
 80040a4:	9104      	str	r1, [sp, #16]
 80040a6:	9000      	str	r0, [sp, #0]
 80040a8:	f44f 7100 	mov.w	r1, #512	@ 0x200
 80040ac:	4807      	ldr	r0, [pc, #28]	@ (80040cc <USBCMD_Process+0xb84>)
 80040ae:	f003 fd53 	bl	8007b58 <sniprintf>
 80040b2:	e5c3      	b.n	8003c3c <USBCMD_Process+0x6f4>
 80040b4:	08009940 	.word	0x08009940
 80040b8:	40010800 	.word	0x40010800
 80040bc:	08009948 	.word	0x08009948
 80040c0:	40010c00 	.word	0x40010c00
 80040c4:	08009f00 	.word	0x08009f00
 80040c8:	08009962 	.word	0x08009962
 80040cc:	2000067e 	.word	0x2000067e
 80040d0:	08009994 	.word	0x08009994
 80040d4:	080099c6 	.word	0x080099c6
 80040d8:	0800a044 	.word	0x0800a044
 80040dc:	080099ea 	.word	0x080099ea
 80040e0:	08009a03 	.word	0x08009a03
 80040e4:	080094f8 	.word	0x080094f8
 80040e8:	080094b1 	.word	0x080094b1
 80040ec:	080094b4 	.word	0x080094b4
 80040f0:	08009a08 	.word	0x08009a08
 80040f4:	08009470 	.word	0x08009470
 80040f8:	08009a22 	.word	0x08009a22
 80040fc:	080098de 	.word	0x080098de
 8004100:	0800948d 	.word	0x0800948d
 8004104:	08009487 	.word	0x08009487
 8004108:	08009482 	.word	0x08009482
 800410c:	080094ab 	.word	0x080094ab
 8004110:	080094a5 	.word	0x080094a5
 8004114:	08009476 	.word	0x08009476
 8004118:	0800949a 	.word	0x0800949a
 800411c:	08009a5c 	.word	0x08009a5c
 8004120:	0800947c 	.word	0x0800947c
 8004124:	08009494 	.word	0x08009494
 8004128:	0800949f 	.word	0x0800949f
 800412c:	080094a8 	.word	0x080094a8
 8004130:	080094ae 	.word	0x080094ae
 8004134:	08009a88 	.word	0x08009a88
 8004138:	08009a90 	.word	0x08009a90
 800413c:	08009ab3 	.word	0x08009ab3
 8004140:	08009ac7 	.word	0x08009ac7
 8004144:	08009ad6 	.word	0x08009ad6
 8004148:	4628      	mov	r0, r5
 800414a:	4982      	ldr	r1, [pc, #520]	@ (8004354 <USBCMD_Process+0xe0c>)
 800414c:	f7fd fffe 	bl	800214c <strcmp>
 8004150:	4606      	mov	r6, r0
 8004152:	2800      	cmp	r0, #0
 8004154:	d162      	bne.n	800421c <USBCMD_Process+0xcd4>
 8004156:	4980      	ldr	r1, [pc, #512]	@ (8004358 <USBCMD_Process+0xe10>)
 8004158:	f003 fd94 	bl	8007c84 <strtok>
 800415c:	497e      	ldr	r1, [pc, #504]	@ (8004358 <USBCMD_Process+0xe10>)
 800415e:	4605      	mov	r5, r0
 8004160:	4630      	mov	r0, r6
 8004162:	f003 fd8f 	bl	8007c84 <strtok>
 8004166:	497c      	ldr	r1, [pc, #496]	@ (8004358 <USBCMD_Process+0xe10>)
 8004168:	4607      	mov	r7, r0
 800416a:	4630      	mov	r0, r6
 800416c:	f003 fd8a 	bl	8007c84 <strtok>
 8004170:	4606      	mov	r6, r0
 8004172:	b10d      	cbz	r5, 8004178 <USBCMD_Process+0xc30>
 8004174:	b107      	cbz	r7, 8004178 <USBCMD_Process+0xc30>
 8004176:	b910      	cbnz	r0, 800417e <USBCMD_Process+0xc36>
 8004178:	4878      	ldr	r0, [pc, #480]	@ (800435c <USBCMD_Process+0xe14>)
 800417a:	f7ff baee 	b.w	800375a <USBCMD_Process+0x212>
 800417e:	4628      	mov	r0, r5
 8004180:	4977      	ldr	r1, [pc, #476]	@ (8004360 <USBCMD_Process+0xe18>)
 8004182:	f7fd ffe3 	bl	800214c <strcmp>
 8004186:	2800      	cmp	r0, #0
 8004188:	d03f      	beq.n	800420a <USBCMD_Process+0xcc2>
 800418a:	4628      	mov	r0, r5
 800418c:	4975      	ldr	r1, [pc, #468]	@ (8004364 <USBCMD_Process+0xe1c>)
 800418e:	f7fd ffdd 	bl	800214c <strcmp>
 8004192:	2800      	cmp	r0, #0
 8004194:	f47f af5a 	bne.w	800404c <USBCMD_Process+0xb04>
 8004198:	f8df 91c8 	ldr.w	r9, [pc, #456]	@ 8004364 <USBCMD_Process+0xe1c>
 800419c:	f8df 81c8 	ldr.w	r8, [pc, #456]	@ 8004368 <USBCMD_Process+0xe20>
 80041a0:	4638      	mov	r0, r7
 80041a2:	f003 fb8d 	bl	80078c0 <atoi>
 80041a6:	4605      	mov	r5, r0
 80041a8:	4630      	mov	r0, r6
 80041aa:	f003 fb89 	bl	80078c0 <atoi>
 80041ae:	2d0f      	cmp	r5, #15
 80041b0:	f63f ab01 	bhi.w	80037b6 <USBCMD_Process+0x26e>
 80041b4:	2801      	cmp	r0, #1
 80041b6:	f63f aafe 	bhi.w	80037b6 <USBCMD_Process+0x26e>
 80041ba:	2201      	movs	r2, #1
 80041bc:	b350      	cbz	r0, 8004214 <USBCMD_Process+0xccc>
 80041be:	40aa      	lsls	r2, r5
 80041c0:	f8c8 2010 	str.w	r2, [r8, #16]
 80041c4:	f8d8 200c 	ldr.w	r2, [r8, #12]
 80041c8:	f8d8 1008 	ldr.w	r1, [r8, #8]
 80041cc:	f8d8 300c 	ldr.w	r3, [r8, #12]
 80041d0:	f8d8 6008 	ldr.w	r6, [r8, #8]
 80041d4:	40e9      	lsrs	r1, r5
 80041d6:	4073      	eors	r3, r6
 80041d8:	40eb      	lsrs	r3, r5
 80041da:	4e64      	ldr	r6, [pc, #400]	@ (800436c <USBCMD_Process+0xe24>)
 80041dc:	f013 0f01 	tst.w	r3, #1
 80041e0:	4b63      	ldr	r3, [pc, #396]	@ (8004370 <USBCMD_Process+0xe28>)
 80041e2:	bf18      	it	ne
 80041e4:	4633      	movne	r3, r6
 80041e6:	f001 0101 	and.w	r1, r1, #1
 80041ea:	e9cd 1303 	strd	r1, r3, [sp, #12]
 80041ee:	464b      	mov	r3, r9
 80041f0:	40ea      	lsrs	r2, r5
 80041f2:	f002 0201 	and.w	r2, r2, #1
 80041f6:	e9cd 0201 	strd	r0, r2, [sp, #4]
 80041fa:	4a5e      	ldr	r2, [pc, #376]	@ (8004374 <USBCMD_Process+0xe2c>)
 80041fc:	9500      	str	r5, [sp, #0]
 80041fe:	f44f 7100 	mov.w	r1, #512	@ 0x200
 8004202:	485d      	ldr	r0, [pc, #372]	@ (8004378 <USBCMD_Process+0xe30>)
 8004204:	f003 fca8 	bl	8007b58 <sniprintf>
 8004208:	e518      	b.n	8003c3c <USBCMD_Process+0x6f4>
 800420a:	f8df 9154 	ldr.w	r9, [pc, #340]	@ 8004360 <USBCMD_Process+0xe18>
 800420e:	f8df 816c 	ldr.w	r8, [pc, #364]	@ 800437c <USBCMD_Process+0xe34>
 8004212:	e7c5      	b.n	80041a0 <USBCMD_Process+0xc58>
 8004214:	f105 0310 	add.w	r3, r5, #16
 8004218:	409a      	lsls	r2, r3
 800421a:	e7d1      	b.n	80041c0 <USBCMD_Process+0xc78>
 800421c:	4628      	mov	r0, r5
 800421e:	4958      	ldr	r1, [pc, #352]	@ (8004380 <USBCMD_Process+0xe38>)
 8004220:	f7fd ff94 	bl	800214c <strcmp>
 8004224:	4606      	mov	r6, r0
 8004226:	2800      	cmp	r0, #0
 8004228:	d149      	bne.n	80042be <USBCMD_Process+0xd76>
 800422a:	494b      	ldr	r1, [pc, #300]	@ (8004358 <USBCMD_Process+0xe10>)
 800422c:	f003 fd2a 	bl	8007c84 <strtok>
 8004230:	4605      	mov	r5, r0
 8004232:	4949      	ldr	r1, [pc, #292]	@ (8004358 <USBCMD_Process+0xe10>)
 8004234:	4630      	mov	r0, r6
 8004236:	f003 fd25 	bl	8007c84 <strtok>
 800423a:	b105      	cbz	r5, 800423e <USBCMD_Process+0xcf6>
 800423c:	b910      	cbnz	r0, 8004244 <USBCMD_Process+0xcfc>
 800423e:	4851      	ldr	r0, [pc, #324]	@ (8004384 <USBCMD_Process+0xe3c>)
 8004240:	f7ff ba8b 	b.w	800375a <USBCMD_Process+0x212>
 8004244:	f003 fb3c 	bl	80078c0 <atoi>
 8004248:	2801      	cmp	r0, #1
 800424a:	4607      	mov	r7, r0
 800424c:	d902      	bls.n	8004254 <USBCMD_Process+0xd0c>
 800424e:	484e      	ldr	r0, [pc, #312]	@ (8004388 <USBCMD_Process+0xe40>)
 8004250:	f7ff ba83 	b.w	800375a <USBCMD_Process+0x212>
 8004254:	4628      	mov	r0, r5
 8004256:	f7fe fcff 	bl	8002c58 <find_pin>
 800425a:	2800      	cmp	r0, #0
 800425c:	f43f ad2b 	beq.w	8003cb6 <USBCMD_Process+0x76e>
 8004260:	4632      	mov	r2, r6
 8004262:	8901      	ldrh	r1, [r0, #8]
 8004264:	fa41 f302 	asr.w	r3, r1, r2
 8004268:	07db      	lsls	r3, r3, #31
 800426a:	d51f      	bpl.n	80042ac <USBCMD_Process+0xd64>
 800426c:	b2d1      	uxtb	r1, r2
 800426e:	2301      	movs	r3, #1
 8004270:	6840      	ldr	r0, [r0, #4]
 8004272:	b307      	cbz	r7, 80042b6 <USBCMD_Process+0xd6e>
 8004274:	4093      	lsls	r3, r2
 8004276:	6103      	str	r3, [r0, #16]
 8004278:	68c3      	ldr	r3, [r0, #12]
 800427a:	6886      	ldr	r6, [r0, #8]
 800427c:	68c0      	ldr	r0, [r0, #12]
 800427e:	493c      	ldr	r1, [pc, #240]	@ (8004370 <USBCMD_Process+0xe28>)
 8004280:	40d0      	lsrs	r0, r2
 8004282:	f8df c0e8 	ldr.w	ip, [pc, #232]	@ 800436c <USBCMD_Process+0xe24>
 8004286:	f000 0001 	and.w	r0, r0, #1
 800428a:	4287      	cmp	r7, r0
 800428c:	bf18      	it	ne
 800428e:	4661      	movne	r1, ip
 8004290:	40d3      	lsrs	r3, r2
 8004292:	40d6      	lsrs	r6, r2
 8004294:	f003 0301 	and.w	r3, r3, #1
 8004298:	f006 0601 	and.w	r6, r6, #1
 800429c:	e9cd 7301 	strd	r7, r3, [sp, #4]
 80042a0:	9200      	str	r2, [sp, #0]
 80042a2:	462b      	mov	r3, r5
 80042a4:	e9cd 6103 	strd	r6, r1, [sp, #12]
 80042a8:	4a38      	ldr	r2, [pc, #224]	@ (800438c <USBCMD_Process+0xe44>)
 80042aa:	e7a8      	b.n	80041fe <USBCMD_Process+0xcb6>
 80042ac:	3201      	adds	r2, #1
 80042ae:	2a10      	cmp	r2, #16
 80042b0:	d1d8      	bne.n	8004264 <USBCMD_Process+0xd1c>
 80042b2:	4611      	mov	r1, r2
 80042b4:	e7db      	b.n	800426e <USBCMD_Process+0xd26>
 80042b6:	3110      	adds	r1, #16
 80042b8:	b2c9      	uxtb	r1, r1
 80042ba:	408b      	lsls	r3, r1
 80042bc:	e7db      	b.n	8004276 <USBCMD_Process+0xd2e>
 80042be:	4628      	mov	r0, r5
 80042c0:	4933      	ldr	r1, [pc, #204]	@ (8004390 <USBCMD_Process+0xe48>)
 80042c2:	f7fd ff43 	bl	800214c <strcmp>
 80042c6:	bb08      	cbnz	r0, 800430c <USBCMD_Process+0xdc4>
 80042c8:	4b32      	ldr	r3, [pc, #200]	@ (8004394 <USBCMD_Process+0xe4c>)
 80042ca:	685b      	ldr	r3, [r3, #4]
 80042cc:	f013 6fe0 	tst.w	r3, #117440512	@ 0x7000000
 80042d0:	f3c3 6102 	ubfx	r1, r3, #24, #3
 80042d4:	d016      	beq.n	8004304 <USBCMD_Process+0xdbc>
 80042d6:	2902      	cmp	r1, #2
 80042d8:	d016      	beq.n	8004308 <USBCMD_Process+0xdc0>
 80042da:	4a2f      	ldr	r2, [pc, #188]	@ (8004398 <USBCMD_Process+0xe50>)
 80042dc:	482f      	ldr	r0, [pc, #188]	@ (800439c <USBCMD_Process+0xe54>)
 80042de:	2904      	cmp	r1, #4
 80042e0:	bf08      	it	eq
 80042e2:	4602      	moveq	r2, r0
 80042e4:	f3c3 3000 	ubfx	r0, r3, #12, #1
 80042e8:	9005      	str	r0, [sp, #20]
 80042ea:	f3c3 2081 	ubfx	r0, r3, #10, #2
 80042ee:	9004      	str	r0, [sp, #16]
 80042f0:	f3c3 2001 	ubfx	r0, r3, #8, #2
 80042f4:	9003      	str	r0, [sp, #12]
 80042f6:	f3c3 1081 	ubfx	r0, r3, #6, #2
 80042fa:	e9cd 2001 	strd	r2, r0, [sp, #4]
 80042fe:	9100      	str	r1, [sp, #0]
 8004300:	4a27      	ldr	r2, [pc, #156]	@ (80043a0 <USBCMD_Process+0xe58>)
 8004302:	e6d1      	b.n	80040a8 <USBCMD_Process+0xb60>
 8004304:	4a27      	ldr	r2, [pc, #156]	@ (80043a4 <USBCMD_Process+0xe5c>)
 8004306:	e7ed      	b.n	80042e4 <USBCMD_Process+0xd9c>
 8004308:	4a27      	ldr	r2, [pc, #156]	@ (80043a8 <USBCMD_Process+0xe60>)
 800430a:	e7eb      	b.n	80042e4 <USBCMD_Process+0xd9c>
 800430c:	4628      	mov	r0, r5
 800430e:	4927      	ldr	r1, [pc, #156]	@ (80043ac <USBCMD_Process+0xe64>)
 8004310:	f7fd ff1c 	bl	800214c <strcmp>
 8004314:	b910      	cbnz	r0, 800431c <USBCMD_Process+0xdd4>
 8004316:	4826      	ldr	r0, [pc, #152]	@ (80043b0 <USBCMD_Process+0xe68>)
 8004318:	f7ff ba1f 	b.w	800375a <USBCMD_Process+0x212>
 800431c:	4628      	mov	r0, r5
 800431e:	4925      	ldr	r1, [pc, #148]	@ (80043b4 <USBCMD_Process+0xe6c>)
 8004320:	f7fd ff14 	bl	800214c <strcmp>
 8004324:	b940      	cbnz	r0, 8004338 <USBCMD_Process+0xdf0>
 8004326:	4824      	ldr	r0, [pc, #144]	@ (80043b8 <USBCMD_Process+0xe70>)
 8004328:	f7fe fccc 	bl	8002cc4 <USBCMD_Send>
 800432c:	4823      	ldr	r0, [pc, #140]	@ (80043bc <USBCMD_Process+0xe74>)
 800432e:	f7fe fcc9 	bl	8002cc4 <USBCMD_Send>
 8004332:	4823      	ldr	r0, [pc, #140]	@ (80043c0 <USBCMD_Process+0xe78>)
 8004334:	f7ff ba11 	b.w	800375a <USBCMD_Process+0x212>
 8004338:	462b      	mov	r3, r5
 800433a:	4a22      	ldr	r2, [pc, #136]	@ (80043c4 <USBCMD_Process+0xe7c>)
 800433c:	f7ff bac4 	b.w	80038c8 <USBCMD_Process+0x380>
 8004340:	297e      	cmp	r1, #126	@ 0x7e
 8004342:	f63f a9cf 	bhi.w	80036e4 <USBCMD_Process+0x19c>
 8004346:	4820      	ldr	r0, [pc, #128]	@ (80043c8 <USBCMD_Process+0xe80>)
 8004348:	1c4b      	adds	r3, r1, #1
 800434a:	8003      	strh	r3, [r0, #0]
 800434c:	4b1f      	ldr	r3, [pc, #124]	@ (80043cc <USBCMD_Process+0xe84>)
 800434e:	545a      	strb	r2, [r3, r1]
 8004350:	f7ff b9c8 	b.w	80036e4 <USBCMD_Process+0x19c>
 8004354:	08009b0a 	.word	0x08009b0a
 8004358:	080094f8 	.word	0x080094f8
 800435c:	08009b12 	.word	0x08009b12
 8004360:	080094b1 	.word	0x080094b1
 8004364:	080094b4 	.word	0x080094b4
 8004368:	40010c00 	.word	0x40010c00
 800436c:	080094b7 	.word	0x080094b7
 8004370:	080094fa 	.word	0x080094fa
 8004374:	08009b3b 	.word	0x08009b3b
 8004378:	2000067e 	.word	0x2000067e
 800437c:	40010800 	.word	0x40010800
 8004380:	08009b5f 	.word	0x08009b5f
 8004384:	08009b69 	.word	0x08009b69
 8004388:	08009b8d 	.word	0x08009b8d
 800438c:	08009b9e 	.word	0x08009b9e
 8004390:	08009bc8 	.word	0x08009bc8
 8004394:	40010000 	.word	0x40010000
 8004398:	080094dc 	.word	0x080094dc
 800439c:	080094d4 	.word	0x080094d4
 80043a0:	08009bcd 	.word	0x08009bcd
 80043a4:	080094c1 	.word	0x080094c1
 80043a8:	080094cb 	.word	0x080094cb
 80043ac:	08009b65 	.word	0x08009b65
 80043b0:	08009c10 	.word	0x08009c10
 80043b4:	08009c29 	.word	0x08009c29
 80043b8:	08009c2e 	.word	0x08009c2e
 80043bc:	08009c87 	.word	0x08009c87
 80043c0:	08009cd5 	.word	0x08009cd5
 80043c4:	08009d1c 	.word	0x08009d1c
 80043c8:	2000087e 	.word	0x2000087e
 80043cc:	20000880 	.word	0x20000880

080043d0 <Reset_Handler>:
 80043d0:	f000 fa06 	bl	80047e0 <SystemInit>
 80043d4:	480b      	ldr	r0, [pc, #44]	@ (8004404 <LoopFillZerobss+0xe>)
 80043d6:	490c      	ldr	r1, [pc, #48]	@ (8004408 <LoopFillZerobss+0x12>)
 80043d8:	4a0c      	ldr	r2, [pc, #48]	@ (800440c <LoopFillZerobss+0x16>)
 80043da:	2300      	movs	r3, #0
 80043dc:	e002      	b.n	80043e4 <LoopCopyDataInit>

080043de <CopyDataInit>:
 80043de:	58d4      	ldr	r4, [r2, r3]
 80043e0:	50c4      	str	r4, [r0, r3]
 80043e2:	3304      	adds	r3, #4

080043e4 <LoopCopyDataInit>:
 80043e4:	18c4      	adds	r4, r0, r3
 80043e6:	428c      	cmp	r4, r1
 80043e8:	d3f9      	bcc.n	80043de <CopyDataInit>
 80043ea:	4a09      	ldr	r2, [pc, #36]	@ (8004410 <LoopFillZerobss+0x1a>)
 80043ec:	4c09      	ldr	r4, [pc, #36]	@ (8004414 <LoopFillZerobss+0x1e>)
 80043ee:	2300      	movs	r3, #0
 80043f0:	e001      	b.n	80043f6 <LoopFillZerobss>

080043f2 <FillZerobss>:
 80043f2:	6013      	str	r3, [r2, #0]
 80043f4:	3204      	adds	r2, #4

080043f6 <LoopFillZerobss>:
 80043f6:	42a2      	cmp	r2, r4
 80043f8:	d3fb      	bcc.n	80043f2 <FillZerobss>
 80043fa:	f003 fcf5 	bl	8007de8 <__libc_init_array>
 80043fe:	f7fd fef5 	bl	80021ec <main>
 8004402:	4770      	bx	lr
 8004404:	20000000 	.word	0x20000000
 8004408:	2000022c 	.word	0x2000022c
 800440c:	0800a178 	.word	0x0800a178
 8004410:	2000022c 	.word	0x2000022c
 8004414:	20001d14 	.word	0x20001d14

08004418 <ADC1_2_IRQHandler>:
 8004418:	e7fe      	b.n	8004418 <ADC1_2_IRQHandler>
	...

0800441c <MX_USB_DEVICE_Init>:
 800441c:	b508      	push	{r3, lr}
 800441e:	2200      	movs	r2, #0
 8004420:	490e      	ldr	r1, [pc, #56]	@ (800445c <MX_USB_DEVICE_Init+0x40>)
 8004422:	480f      	ldr	r0, [pc, #60]	@ (8004460 <MX_USB_DEVICE_Init+0x44>)
 8004424:	f002 fe98 	bl	8007158 <USBD_Init>
 8004428:	b108      	cbz	r0, 800442e <MX_USB_DEVICE_Init+0x12>
 800442a:	f7fe f875 	bl	8002518 <Error_Handler>
 800442e:	490d      	ldr	r1, [pc, #52]	@ (8004464 <MX_USB_DEVICE_Init+0x48>)
 8004430:	480b      	ldr	r0, [pc, #44]	@ (8004460 <MX_USB_DEVICE_Init+0x44>)
 8004432:	f002 fea6 	bl	8007182 <USBD_RegisterClass>
 8004436:	b108      	cbz	r0, 800443c <MX_USB_DEVICE_Init+0x20>
 8004438:	f7fe f86e 	bl	8002518 <Error_Handler>
 800443c:	490a      	ldr	r1, [pc, #40]	@ (8004468 <MX_USB_DEVICE_Init+0x4c>)
 800443e:	4808      	ldr	r0, [pc, #32]	@ (8004460 <MX_USB_DEVICE_Init+0x44>)
 8004440:	f002 fe49 	bl	80070d6 <USBD_CDC_RegisterInterface>
 8004444:	b108      	cbz	r0, 800444a <MX_USB_DEVICE_Init+0x2e>
 8004446:	f7fe f867 	bl	8002518 <Error_Handler>
 800444a:	4805      	ldr	r0, [pc, #20]	@ (8004460 <MX_USB_DEVICE_Init+0x44>)
 800444c:	f002 fea0 	bl	8007190 <USBD_Start>
 8004450:	b118      	cbz	r0, 800445a <MX_USB_DEVICE_Init+0x3e>
 8004452:	e8bd 4008 	ldmia.w	sp!, {r3, lr}
 8004456:	f7fe b85f 	b.w	8002518 <Error_Handler>
 800445a:	bd08      	pop	{r3, pc}
 800445c:	20000098 	.word	0x20000098
 8004460:	20000a04 	.word	0x20000a04
 8004464:	2000018c 	.word	0x2000018c
 8004468:	20000054 	.word	0x20000054

0800446c <CDC_DeInit_FS>:
 800446c:	2000      	movs	r0, #0
 800446e:	4770      	bx	lr

08004470 <CDC_Control_FS>:
 8004470:	2000      	movs	r0, #0
 8004472:	4770      	bx	lr

08004474 <CDC_Receive_FS>:
 8004474:	b510      	push	{r4, lr}
 8004476:	4604      	mov	r4, r0
 8004478:	6809      	ldr	r1, [r1, #0]
 800447a:	f7fe fc07 	bl	8002c8c <USBCMD_OnReceive>
 800447e:	4621      	mov	r1, r4
 8004480:	4803      	ldr	r0, [pc, #12]	@ (8004490 <CDC_Receive_FS+0x1c>)
 8004482:	f002 fe37 	bl	80070f4 <USBD_CDC_SetRxBuffer>
 8004486:	4802      	ldr	r0, [pc, #8]	@ (8004490 <CDC_Receive_FS+0x1c>)
 8004488:	f002 fe53 	bl	8007132 <USBD_CDC_ReceivePacket>
 800448c:	2000      	movs	r0, #0
 800448e:	bd10      	pop	{r4, pc}
 8004490:	20000a04 	.word	0x20000a04

08004494 <CDC_Init_FS>:
 8004494:	b508      	push	{r3, lr}
 8004496:	2200      	movs	r2, #0
 8004498:	4904      	ldr	r1, [pc, #16]	@ (80044ac <CDC_Init_FS+0x18>)
 800449a:	4805      	ldr	r0, [pc, #20]	@ (80044b0 <CDC_Init_FS+0x1c>)
 800449c:	f002 fe22 	bl	80070e4 <USBD_CDC_SetTxBuffer>
 80044a0:	4904      	ldr	r1, [pc, #16]	@ (80044b4 <CDC_Init_FS+0x20>)
 80044a2:	4803      	ldr	r0, [pc, #12]	@ (80044b0 <CDC_Init_FS+0x1c>)
 80044a4:	f002 fe26 	bl	80070f4 <USBD_CDC_SetRxBuffer>
 80044a8:	2000      	movs	r0, #0
 80044aa:	bd08      	pop	{r3, pc}
 80044ac:	20000cc8 	.word	0x20000cc8
 80044b0:	20000a04 	.word	0x20000a04
 80044b4:	200010c8 	.word	0x200010c8

080044b8 <CDC_Transmit_FS>:
 80044b8:	b510      	push	{r4, lr}
 80044ba:	4c09      	ldr	r4, [pc, #36]	@ (80044e0 <CDC_Transmit_FS+0x28>)
 80044bc:	460a      	mov	r2, r1
 80044be:	f8d4 32b8 	ldr.w	r3, [r4, #696]	@ 0x2b8
 80044c2:	f8d3 3214 	ldr.w	r3, [r3, #532]	@ 0x214
 80044c6:	b943      	cbnz	r3, 80044da <CDC_Transmit_FS+0x22>
 80044c8:	4601      	mov	r1, r0
 80044ca:	4620      	mov	r0, r4
 80044cc:	f002 fe0a 	bl	80070e4 <USBD_CDC_SetTxBuffer>
 80044d0:	4620      	mov	r0, r4
 80044d2:	e8bd 4010 	ldmia.w	sp!, {r4, lr}
 80044d6:	f002 be13 	b.w	8007100 <USBD_CDC_TransmitPacket>
 80044da:	2001      	movs	r0, #1
 80044dc:	bd10      	pop	{r4, pc}
 80044de:	bf00      	nop
 80044e0:	20000a04 	.word	0x20000a04

080044e4 <USBD_FS_DeviceDescriptor>:
 80044e4:	2312      	movs	r3, #18
 80044e6:	4801      	ldr	r0, [pc, #4]	@ (80044ec <USBD_FS_DeviceDescriptor+0x8>)
 80044e8:	800b      	strh	r3, [r1, #0]
 80044ea:	4770      	bx	lr
 80044ec:	20000084 	.word	0x20000084

080044f0 <USBD_FS_LangIDStrDescriptor>:
 80044f0:	2304      	movs	r3, #4
 80044f2:	4801      	ldr	r0, [pc, #4]	@ (80044f8 <USBD_FS_LangIDStrDescriptor+0x8>)
 80044f4:	800b      	strh	r3, [r1, #0]
 80044f6:	4770      	bx	lr
 80044f8:	20000080 	.word	0x20000080

080044fc <IntToUnicode>:
 80044fc:	2300      	movs	r3, #0
 80044fe:	b570      	push	{r4, r5, r6, lr}
 8004500:	461e      	mov	r6, r3
 8004502:	1c4d      	adds	r5, r1, #1
 8004504:	0f04      	lsrs	r4, r0, #28
 8004506:	f1b0 4f20 	cmp.w	r0, #2684354560	@ 0xa0000000
 800450a:	bf34      	ite	cc
 800450c:	3430      	addcc	r4, #48	@ 0x30
 800450e:	3437      	addcs	r4, #55	@ 0x37
 8004510:	f801 4013 	strb.w	r4, [r1, r3, lsl #1]
 8004514:	f805 6013 	strb.w	r6, [r5, r3, lsl #1]
 8004518:	3301      	adds	r3, #1
 800451a:	b2dc      	uxtb	r4, r3
 800451c:	42a2      	cmp	r2, r4
 800451e:	ea4f 1000 	mov.w	r0, r0, lsl #4
 8004522:	d8ef      	bhi.n	8004504 <IntToUnicode+0x8>
 8004524:	bd70      	pop	{r4, r5, r6, pc}
	...

08004528 <USBD_FS_SerialStrDescriptor>:
 8004528:	231a      	movs	r3, #26
 800452a:	b510      	push	{r4, lr}
 800452c:	800b      	strh	r3, [r1, #0]
 800452e:	4b0a      	ldr	r3, [pc, #40]	@ (8004558 <USBD_FS_SerialStrDescriptor+0x30>)
 8004530:	f8d3 07e8 	ldr.w	r0, [r3, #2024]	@ 0x7e8
 8004534:	f8d3 27f0 	ldr.w	r2, [r3, #2032]	@ 0x7f0
 8004538:	1880      	adds	r0, r0, r2
 800453a:	d00a      	beq.n	8004552 <USBD_FS_SerialStrDescriptor+0x2a>
 800453c:	f8d3 47ec 	ldr.w	r4, [r3, #2028]	@ 0x7ec
 8004540:	4906      	ldr	r1, [pc, #24]	@ (800455c <USBD_FS_SerialStrDescriptor+0x34>)
 8004542:	2208      	movs	r2, #8
 8004544:	f7ff ffda 	bl	80044fc <IntToUnicode>
 8004548:	2204      	movs	r2, #4
 800454a:	4620      	mov	r0, r4
 800454c:	3110      	adds	r1, #16
 800454e:	f7ff ffd5 	bl	80044fc <IntToUnicode>
 8004552:	4803      	ldr	r0, [pc, #12]	@ (8004560 <USBD_FS_SerialStrDescriptor+0x38>)
 8004554:	bd10      	pop	{r4, pc}
 8004556:	bf00      	nop
 8004558:	1ffff000 	.word	0x1ffff000
 800455c:	20000066 	.word	0x20000066
 8004560:	20000064 	.word	0x20000064

08004564 <USBD_FS_ManufacturerStrDescriptor>:
 8004564:	b508      	push	{r3, lr}
 8004566:	460a      	mov	r2, r1
 8004568:	4802      	ldr	r0, [pc, #8]	@ (8004574 <USBD_FS_ManufacturerStrDescriptor+0x10>)
 800456a:	4903      	ldr	r1, [pc, #12]	@ (8004578 <USBD_FS_ManufacturerStrDescriptor+0x14>)
 800456c:	f003 f94c 	bl	8007808 <USBD_GetString>
 8004570:	4801      	ldr	r0, [pc, #4]	@ (8004578 <USBD_FS_ManufacturerStrDescriptor+0x14>)
 8004572:	bd08      	pop	{r3, pc}
 8004574:	08009dcb 	.word	0x08009dcb
 8004578:	200014c8 	.word	0x200014c8

0800457c <USBD_FS_ProductStrDescriptor>:
 800457c:	b508      	push	{r3, lr}
 800457e:	460a      	mov	r2, r1
 8004580:	4802      	ldr	r0, [pc, #8]	@ (800458c <USBD_FS_ProductStrDescriptor+0x10>)
 8004582:	4903      	ldr	r1, [pc, #12]	@ (8004590 <USBD_FS_ProductStrDescriptor+0x14>)
 8004584:	f003 f940 	bl	8007808 <USBD_GetString>
 8004588:	4801      	ldr	r0, [pc, #4]	@ (8004590 <USBD_FS_ProductStrDescriptor+0x14>)
 800458a:	bd08      	pop	{r3, pc}
 800458c:	08009dde 	.word	0x08009dde
 8004590:	200014c8 	.word	0x200014c8

08004594 <USBD_FS_ConfigStrDescriptor>:
 8004594:	b508      	push	{r3, lr}
 8004596:	460a      	mov	r2, r1
 8004598:	4802      	ldr	r0, [pc, #8]	@ (80045a4 <USBD_FS_ConfigStrDescriptor+0x10>)
 800459a:	4903      	ldr	r1, [pc, #12]	@ (80045a8 <USBD_FS_ConfigStrDescriptor+0x14>)
 800459c:	f003 f934 	bl	8007808 <USBD_GetString>
 80045a0:	4801      	ldr	r0, [pc, #4]	@ (80045a8 <USBD_FS_ConfigStrDescriptor+0x14>)
 80045a2:	bd08      	pop	{r3, pc}
 80045a4:	08009df4 	.word	0x08009df4
 80045a8:	200014c8 	.word	0x200014c8

080045ac <USBD_FS_InterfaceStrDescriptor>:
 80045ac:	b508      	push	{r3, lr}
 80045ae:	460a      	mov	r2, r1
 80045b0:	4802      	ldr	r0, [pc, #8]	@ (80045bc <USBD_FS_InterfaceStrDescriptor+0x10>)
 80045b2:	4903      	ldr	r1, [pc, #12]	@ (80045c0 <USBD_FS_InterfaceStrDescriptor+0x14>)
 80045b4:	f003 f928 	bl	8007808 <USBD_GetString>
 80045b8:	4801      	ldr	r0, [pc, #4]	@ (80045c0 <USBD_FS_InterfaceStrDescriptor+0x14>)
 80045ba:	bd08      	pop	{r3, pc}
 80045bc:	08009dff 	.word	0x08009dff
 80045c0:	200014c8 	.word	0x200014c8

080045c4 <USBD_Get_USB_Status>:
 80045c4:	b118      	cbz	r0, 80045ce <USBD_Get_USB_Status+0xa>
 80045c6:	2802      	cmp	r0, #2
 80045c8:	bf0c      	ite	eq
 80045ca:	2001      	moveq	r0, #1
 80045cc:	2002      	movne	r0, #2
 80045ce:	4770      	bx	lr

080045d0 <HAL_PCD_MspInit>:
 80045d0:	b507      	push	{r0, r1, r2, lr}
 80045d2:	4b0e      	ldr	r3, [pc, #56]	@ (800460c <HAL_PCD_MspInit+0x3c>)
 80045d4:	6802      	ldr	r2, [r0, #0]
 80045d6:	429a      	cmp	r2, r3
 80045d8:	d115      	bne.n	8004606 <HAL_PCD_MspInit+0x36>
 80045da:	f503 33da 	add.w	r3, r3, #111616	@ 0x1b400
 80045de:	69da      	ldr	r2, [r3, #28]
 80045e0:	2014      	movs	r0, #20
 80045e2:	f442 0200 	orr.w	r2, r2, #8388608	@ 0x800000
 80045e6:	61da      	str	r2, [r3, #28]
 80045e8:	2200      	movs	r2, #0
 80045ea:	69db      	ldr	r3, [r3, #28]
 80045ec:	4611      	mov	r1, r2
 80045ee:	f403 0300 	and.w	r3, r3, #8388608	@ 0x800000
 80045f2:	9301      	str	r3, [sp, #4]
 80045f4:	9b01      	ldr	r3, [sp, #4]
 80045f6:	f000 f967 	bl	80048c8 <HAL_NVIC_SetPriority>
 80045fa:	2014      	movs	r0, #20
 80045fc:	b003      	add	sp, #12
 80045fe:	f85d eb04 	ldr.w	lr, [sp], #4
 8004602:	f000 b991 	b.w	8004928 <HAL_NVIC_EnableIRQ>
 8004606:	b003      	add	sp, #12
 8004608:	bd00      	pop	{pc}
 800460a:	bf00      	nop
 800460c:	40005c00 	.word	0x40005c00

08004610 <HAL_PCD_SetupStageCallback>:
 8004610:	f500 7126 	add.w	r1, r0, #664	@ 0x298
 8004614:	f8d0 02d4 	ldr.w	r0, [r0, #724]	@ 0x2d4
 8004618:	f002 bdd3 	b.w	80071c2 <USBD_LL_SetupStage>

0800461c <HAL_PCD_DataOutStageCallback>:
 800461c:	2328      	movs	r3, #40	@ 0x28
 800461e:	fb03 0301 	mla	r3, r3, r1, r0
 8004622:	f8d0 02d4 	ldr.w	r0, [r0, #724]	@ 0x2d4
 8004626:	f8d3 2164 	ldr.w	r2, [r3, #356]	@ 0x164
 800462a:	f002 bdf7 	b.w	800721c <USBD_LL_DataOutStage>

0800462e <HAL_PCD_DataInStageCallback>:
 800462e:	2328      	movs	r3, #40	@ 0x28
 8004630:	fb03 0301 	mla	r3, r3, r1, r0
 8004634:	f8d0 02d4 	ldr.w	r0, [r0, #724]	@ 0x2d4
 8004638:	6a5a      	ldr	r2, [r3, #36]	@ 0x24
 800463a:	f002 be27 	b.w	800728c <USBD_LL_DataInStage>

0800463e <HAL_PCD_SOFCallback>:
 800463e:	f8d0 02d4 	ldr.w	r0, [r0, #724]	@ 0x2d4
 8004642:	f002 bebc 	b.w	80073be <USBD_LL_SOF>

08004646 <HAL_PCD_ResetCallback>:
 8004646:	b510      	push	{r4, lr}
 8004648:	7983      	ldrb	r3, [r0, #6]
 800464a:	4604      	mov	r4, r0
 800464c:	2b02      	cmp	r3, #2
 800464e:	d001      	beq.n	8004654 <HAL_PCD_ResetCallback+0xe>
 8004650:	f7fd ff62 	bl	8002518 <Error_Handler>
 8004654:	f8d4 02d4 	ldr.w	r0, [r4, #724]	@ 0x2d4
 8004658:	2101      	movs	r1, #1
 800465a:	f002 fe9a 	bl	8007392 <USBD_LL_SetSpeed>
 800465e:	f8d4 02d4 	ldr.w	r0, [r4, #724]	@ 0x2d4
 8004662:	e8bd 4010 	ldmia.w	sp!, {r4, lr}
 8004666:	f002 be6d 	b.w	8007344 <USBD_LL_Reset>
	...

0800466c <HAL_PCD_SuspendCallback>:
 800466c:	b510      	push	{r4, lr}
 800466e:	4604      	mov	r4, r0
 8004670:	f8d0 02d4 	ldr.w	r0, [r0, #724]	@ 0x2d4
 8004674:	f002 fe90 	bl	8007398 <USBD_LL_Suspend>
 8004678:	7aa3      	ldrb	r3, [r4, #10]
 800467a:	b123      	cbz	r3, 8004686 <HAL_PCD_SuspendCallback+0x1a>
 800467c:	4a02      	ldr	r2, [pc, #8]	@ (8004688 <HAL_PCD_SuspendCallback+0x1c>)
 800467e:	6913      	ldr	r3, [r2, #16]
 8004680:	f043 0306 	orr.w	r3, r3, #6
 8004684:	6113      	str	r3, [r2, #16]
 8004686:	bd10      	pop	{r4, pc}
 8004688:	e000ed00 	.word	0xe000ed00

0800468c <HAL_PCD_ResumeCallback>:
 800468c:	f8d0 02d4 	ldr.w	r0, [r0, #724]	@ 0x2d4
 8004690:	f002 be8b 	b.w	80073aa <USBD_LL_Resume>

08004694 <USBD_LL_Init>:
 8004694:	b510      	push	{r4, lr}
 8004696:	4b1d      	ldr	r3, [pc, #116]	@ (800470c <USBD_LL_Init+0x78>)
 8004698:	4604      	mov	r4, r0
 800469a:	481d      	ldr	r0, [pc, #116]	@ (8004710 <USBD_LL_Init+0x7c>)
 800469c:	6003      	str	r3, [r0, #0]
 800469e:	2308      	movs	r3, #8
 80046a0:	7103      	strb	r3, [r0, #4]
 80046a2:	2302      	movs	r3, #2
 80046a4:	7183      	strb	r3, [r0, #6]
 80046a6:	2300      	movs	r3, #0
 80046a8:	f8c0 42d4 	str.w	r4, [r0, #724]	@ 0x2d4
 80046ac:	f8c4 02c0 	str.w	r0, [r4, #704]	@ 0x2c0
 80046b0:	8143      	strh	r3, [r0, #10]
 80046b2:	7303      	strb	r3, [r0, #12]
 80046b4:	f000 fa39 	bl	8004b2a <HAL_PCD_Init>
 80046b8:	b108      	cbz	r0, 80046be <USBD_LL_Init+0x2a>
 80046ba:	f7fd ff2d 	bl	8002518 <Error_Handler>
 80046be:	2200      	movs	r2, #0
 80046c0:	2318      	movs	r3, #24
 80046c2:	4611      	mov	r1, r2
 80046c4:	f8d4 02c0 	ldr.w	r0, [r4, #704]	@ 0x2c0
 80046c8:	f001 f88f 	bl	80057ea <HAL_PCDEx_PMAConfig>
 80046cc:	2358      	movs	r3, #88	@ 0x58
 80046ce:	2200      	movs	r2, #0
 80046d0:	2180      	movs	r1, #128	@ 0x80
 80046d2:	f8d4 02c0 	ldr.w	r0, [r4, #704]	@ 0x2c0
 80046d6:	f001 f888 	bl	80057ea <HAL_PCDEx_PMAConfig>
 80046da:	23c0      	movs	r3, #192	@ 0xc0
 80046dc:	2200      	movs	r2, #0
 80046de:	2181      	movs	r1, #129	@ 0x81
 80046e0:	f8d4 02c0 	ldr.w	r0, [r4, #704]	@ 0x2c0
 80046e4:	f001 f881 	bl	80057ea <HAL_PCDEx_PMAConfig>
 80046e8:	f44f 7388 	mov.w	r3, #272	@ 0x110
 80046ec:	2200      	movs	r2, #0
 80046ee:	2101      	movs	r1, #1
 80046f0:	f8d4 02c0 	ldr.w	r0, [r4, #704]	@ 0x2c0
 80046f4:	f001 f879 	bl	80057ea <HAL_PCDEx_PMAConfig>
 80046f8:	f44f 7380 	mov.w	r3, #256	@ 0x100
 80046fc:	2200      	movs	r2, #0
 80046fe:	2182      	movs	r1, #130	@ 0x82
 8004700:	f8d4 02c0 	ldr.w	r0, [r4, #704]	@ 0x2c0
 8004704:	f001 f871 	bl	80057ea <HAL_PCDEx_PMAConfig>
 8004708:	2000      	movs	r0, #0
 800470a:	bd10      	pop	{r4, pc}
 800470c:	40005c00 	.word	0x40005c00
 8004710:	200018e8 	.word	0x200018e8

08004714 <USBD_LL_Start>:
 8004714:	b508      	push	{r3, lr}
 8004716:	f8d0 02c0 	ldr.w	r0, [r0, #704]	@ 0x2c0
 800471a:	f000 fa69 	bl	8004bf0 <HAL_PCD_Start>
 800471e:	e8bd 4008 	ldmia.w	sp!, {r3, lr}
 8004722:	f7ff bf4f 	b.w	80045c4 <USBD_Get_USB_Status>

08004726 <USBD_LL_OpenEP>:
 8004726:	b510      	push	{r4, lr}
 8004728:	4614      	mov	r4, r2
 800472a:	f8d0 02c0 	ldr.w	r0, [r0, #704]	@ 0x2c0
 800472e:	461a      	mov	r2, r3
 8004730:	4623      	mov	r3, r4
 8004732:	f000 ff63 	bl	80055fc <HAL_PCD_EP_Open>
 8004736:	e8bd 4010 	ldmia.w	sp!, {r4, lr}
 800473a:	f7ff bf43 	b.w	80045c4 <USBD_Get_USB_Status>

0800473e <USBD_LL_CloseEP>:
 800473e:	b508      	push	{r3, lr}
 8004740:	f8d0 02c0 	ldr.w	r0, [r0, #704]	@ 0x2c0
 8004744:	f000 ff8a 	bl	800565c <HAL_PCD_EP_Close>
 8004748:	e8bd 4008 	ldmia.w	sp!, {r3, lr}
 800474c:	f7ff bf3a 	b.w	80045c4 <USBD_Get_USB_Status>

08004750 <USBD_LL_StallEP>:
 8004750:	b508      	push	{r3, lr}
 8004752:	f8d0 02c0 	ldr.w	r0, [r0, #704]	@ 0x2c0
 8004756:	f000 ffe0 	bl	800571a <HAL_PCD_EP_SetStall>
 800475a:	e8bd 4008 	ldmia.w	sp!, {r3, lr}
 800475e:	f7ff bf31 	b.w	80045c4 <USBD_Get_USB_Status>

08004762 <USBD_LL_ClearStallEP>:
 8004762:	b508      	push	{r3, lr}
 8004764:	f8d0 02c0 	ldr.w	r0, [r0, #704]	@ 0x2c0
 8004768:	f001 f80d 	bl	8005786 <HAL_PCD_EP_ClrStall>
 800476c:	e8bd 4008 	ldmia.w	sp!, {r3, lr}
 8004770:	f7ff bf28 	b.w	80045c4 <USBD_Get_USB_Status>

08004774 <USBD_LL_IsStallEP>:
 8004774:	2228      	movs	r2, #40	@ 0x28
 8004776:	f011 0f80 	tst.w	r1, #128	@ 0x80
 800477a:	f8d0 32c0 	ldr.w	r3, [r0, #704]	@ 0x2c0
 800477e:	bf1b      	ittet	ne
 8004780:	f001 017f 	andne.w	r1, r1, #127	@ 0x7f
 8004784:	fb02 3301 	mlane	r3, r2, r1, r3
 8004788:	fb02 3301 	mlaeq	r3, r2, r1, r3
 800478c:	7c98      	ldrbne	r0, [r3, #18]
 800478e:	bf08      	it	eq
 8004790:	f893 0152 	ldrbeq.w	r0, [r3, #338]	@ 0x152
 8004794:	4770      	bx	lr

08004796 <USBD_LL_SetUSBAddress>:
 8004796:	b508      	push	{r3, lr}
 8004798:	f8d0 02c0 	ldr.w	r0, [r0, #704]	@ 0x2c0
 800479c:	f000 fa41 	bl	8004c22 <HAL_PCD_SetAddress>
 80047a0:	e8bd 4008 	ldmia.w	sp!, {r3, lr}
 80047a4:	f7ff bf0e 	b.w	80045c4 <USBD_Get_USB_Status>

080047a8 <USBD_LL_Transmit>:
 80047a8:	b508      	push	{r3, lr}
 80047aa:	f8d0 02c0 	ldr.w	r0, [r0, #704]	@ 0x2c0
 80047ae:	f000 ff9c 	bl	80056ea <HAL_PCD_EP_Transmit>
 80047b2:	e8bd 4008 	ldmia.w	sp!, {r3, lr}
 80047b6:	f7ff bf05 	b.w	80045c4 <USBD_Get_USB_Status>

080047ba <USBD_LL_PrepareReceive>:
 80047ba:	b508      	push	{r3, lr}
 80047bc:	f8d0 02c0 	ldr.w	r0, [r0, #704]	@ 0x2c0
 80047c0:	f000 ff74 	bl	80056ac <HAL_PCD_EP_Receive>
 80047c4:	e8bd 4008 	ldmia.w	sp!, {r3, lr}
 80047c8:	f7ff befc 	b.w	80045c4 <USBD_Get_USB_Status>

080047cc <USBD_LL_GetRxDataSize>:
 80047cc:	f8d0 02c0 	ldr.w	r0, [r0, #704]	@ 0x2c0
 80047d0:	f000 bf83 	b.w	80056da <HAL_PCD_EP_GetRxCount>

080047d4 <USBD_static_malloc>:
 80047d4:	4800      	ldr	r0, [pc, #0]	@ (80047d8 <USBD_static_malloc+0x4>)
 80047d6:	4770      	bx	lr
 80047d8:	200016c8 	.word	0x200016c8

080047dc <USBD_static_free>:
 80047dc:	4770      	bx	lr

080047de <HAL_PCDEx_SetConnectionState>:
 80047de:	4770      	bx	lr

080047e0 <SystemInit>:
 80047e0:	4b01      	ldr	r3, [pc, #4]	@ (80047e8 <SystemInit+0x8>)
 80047e2:	4a02      	ldr	r2, [pc, #8]	@ (80047ec <SystemInit+0xc>)
 80047e4:	609a      	str	r2, [r3, #8]
 80047e6:	4770      	bx	lr
 80047e8:	e000ed00 	.word	0xe000ed00
 80047ec:	08002000 	.word	0x08002000

080047f0 <HAL_InitTick>:
 80047f0:	b538      	push	{r3, r4, r5, lr}
 80047f2:	4b0e      	ldr	r3, [pc, #56]	@ (800482c <HAL_InitTick+0x3c>)
 80047f4:	4605      	mov	r5, r0
 80047f6:	781a      	ldrb	r2, [r3, #0]
 80047f8:	f44f 737a 	mov.w	r3, #1000	@ 0x3e8
 80047fc:	fbb3 f3f2 	udiv	r3, r3, r2
 8004800:	4a0b      	ldr	r2, [pc, #44]	@ (8004830 <HAL_InitTick+0x40>)
 8004802:	6810      	ldr	r0, [r2, #0]
 8004804:	fbb0 f0f3 	udiv	r0, r0, r3
 8004808:	f000 f89c 	bl	8004944 <HAL_SYSTICK_Config>
 800480c:	4604      	mov	r4, r0
 800480e:	b958      	cbnz	r0, 8004828 <HAL_InitTick+0x38>
 8004810:	2d0f      	cmp	r5, #15
 8004812:	d809      	bhi.n	8004828 <HAL_InitTick+0x38>
 8004814:	4602      	mov	r2, r0
 8004816:	4629      	mov	r1, r5
 8004818:	f04f 30ff 	mov.w	r0, #4294967295
 800481c:	f000 f854 	bl	80048c8 <HAL_NVIC_SetPriority>
 8004820:	4620      	mov	r0, r4
 8004822:	4b04      	ldr	r3, [pc, #16]	@ (8004834 <HAL_InitTick+0x44>)
 8004824:	601d      	str	r5, [r3, #0]
 8004826:	bd38      	pop	{r3, r4, r5, pc}
 8004828:	2001      	movs	r0, #1
 800482a:	e7fc      	b.n	8004826 <HAL_InitTick+0x36>
 800482c:	200000b8 	.word	0x200000b8
 8004830:	200000b4 	.word	0x200000b4
 8004834:	200000bc 	.word	0x200000bc

08004838 <HAL_Init>:
 8004838:	4a07      	ldr	r2, [pc, #28]	@ (8004858 <HAL_Init+0x20>)
 800483a:	b508      	push	{r3, lr}
 800483c:	6813      	ldr	r3, [r2, #0]
 800483e:	2003      	movs	r0, #3
 8004840:	f043 0310 	orr.w	r3, r3, #16
 8004844:	6013      	str	r3, [r2, #0]
 8004846:	f000 f82d 	bl	80048a4 <HAL_NVIC_SetPriorityGrouping>
 800484a:	200f      	movs	r0, #15
 800484c:	f7ff ffd0 	bl	80047f0 <HAL_InitTick>
 8004850:	f7fe f8a2 	bl	8002998 <HAL_MspInit>
 8004854:	2000      	movs	r0, #0
 8004856:	bd08      	pop	{r3, pc}
 8004858:	40022000 	.word	0x40022000

0800485c <HAL_IncTick>:
 800485c:	4a03      	ldr	r2, [pc, #12]	@ (800486c <HAL_IncTick+0x10>)
 800485e:	4b04      	ldr	r3, [pc, #16]	@ (8004870 <HAL_IncTick+0x14>)
 8004860:	6811      	ldr	r1, [r2, #0]
 8004862:	781b      	ldrb	r3, [r3, #0]
 8004864:	440b      	add	r3, r1
 8004866:	6013      	str	r3, [r2, #0]
 8004868:	4770      	bx	lr
 800486a:	bf00      	nop
 800486c:	20001bc0 	.word	0x20001bc0
 8004870:	200000b8 	.word	0x200000b8

08004874 <HAL_GetTick>:
 8004874:	4b01      	ldr	r3, [pc, #4]	@ (800487c <HAL_GetTick+0x8>)
 8004876:	6818      	ldr	r0, [r3, #0]
 8004878:	4770      	bx	lr
 800487a:	bf00      	nop
 800487c:	20001bc0 	.word	0x20001bc0

08004880 <HAL_Delay>:
 8004880:	b538      	push	{r3, r4, r5, lr}
 8004882:	4604      	mov	r4, r0
 8004884:	f7ff fff6 	bl	8004874 <HAL_GetTick>
 8004888:	4605      	mov	r5, r0
 800488a:	1c63      	adds	r3, r4, #1
 800488c:	bf1e      	ittt	ne
 800488e:	4b04      	ldrne	r3, [pc, #16]	@ (80048a0 <HAL_Delay+0x20>)
 8004890:	781b      	ldrbne	r3, [r3, #0]
 8004892:	18e4      	addne	r4, r4, r3
 8004894:	f7ff ffee 	bl	8004874 <HAL_GetTick>
 8004898:	1b43      	subs	r3, r0, r5
 800489a:	42a3      	cmp	r3, r4
 800489c:	d3fa      	bcc.n	8004894 <HAL_Delay+0x14>
 800489e:	bd38      	pop	{r3, r4, r5, pc}
 80048a0:	200000b8 	.word	0x200000b8

080048a4 <HAL_NVIC_SetPriorityGrouping>:
 80048a4:	4907      	ldr	r1, [pc, #28]	@ (80048c4 <HAL_NVIC_SetPriorityGrouping+0x20>)
 80048a6:	0203      	lsls	r3, r0, #8
 80048a8:	68ca      	ldr	r2, [r1, #12]
 80048aa:	f403 63e0 	and.w	r3, r3, #1792	@ 0x700
 80048ae:	f422 62e0 	bic.w	r2, r2, #1792	@ 0x700
 80048b2:	0412      	lsls	r2, r2, #16
 80048b4:	0c12      	lsrs	r2, r2, #16
 80048b6:	4313      	orrs	r3, r2
 80048b8:	f043 63bf 	orr.w	r3, r3, #100139008	@ 0x5f80000
 80048bc:	f443 3300 	orr.w	r3, r3, #131072	@ 0x20000
 80048c0:	60cb      	str	r3, [r1, #12]
 80048c2:	4770      	bx	lr
 80048c4:	e000ed00 	.word	0xe000ed00

080048c8 <HAL_NVIC_SetPriority>:
 80048c8:	4b15      	ldr	r3, [pc, #84]	@ (8004920 <HAL_NVIC_SetPriority+0x58>)
 80048ca:	b530      	push	{r4, r5, lr}
 80048cc:	68dc      	ldr	r4, [r3, #12]
 80048ce:	f3c4 2402 	ubfx	r4, r4, #8, #3
 80048d2:	f1c4 0307 	rsb	r3, r4, #7
 80048d6:	1d25      	adds	r5, r4, #4
 80048d8:	2b04      	cmp	r3, #4
 80048da:	bf28      	it	cs
 80048dc:	2304      	movcs	r3, #4
 80048de:	2d06      	cmp	r5, #6
 80048e0:	f04f 35ff 	mov.w	r5, #4294967295
 80048e4:	bf94      	ite	ls
 80048e6:	2400      	movls	r4, #0
 80048e8:	3c03      	subhi	r4, #3
 80048ea:	fa05 f303 	lsl.w	r3, r5, r3
 80048ee:	ea21 0303 	bic.w	r3, r1, r3
 80048f2:	40a5      	lsls	r5, r4
 80048f4:	ea22 0205 	bic.w	r2, r2, r5
 80048f8:	40a3      	lsls	r3, r4
 80048fa:	2800      	cmp	r0, #0
 80048fc:	ea43 0302 	orr.w	r3, r3, r2
 8004900:	bfac      	ite	ge
 8004902:	f100 4060 	addge.w	r0, r0, #3758096384	@ 0xe0000000
 8004906:	4a07      	ldrlt	r2, [pc, #28]	@ (8004924 <HAL_NVIC_SetPriority+0x5c>)
 8004908:	ea4f 1303 	mov.w	r3, r3, lsl #4
 800490c:	b2db      	uxtb	r3, r3
 800490e:	bfab      	itete	ge
 8004910:	f500 4061 	addge.w	r0, r0, #57600	@ 0xe100
 8004914:	f000 000f 	andlt.w	r0, r0, #15
 8004918:	f880 3300 	strbge.w	r3, [r0, #768]	@ 0x300
 800491c:	5413      	strblt	r3, [r2, r0]
 800491e:	bd30      	pop	{r4, r5, pc}
 8004920:	e000ed00 	.word	0xe000ed00
 8004924:	e000ed14 	.word	0xe000ed14

08004928 <HAL_NVIC_EnableIRQ>:
 8004928:	2800      	cmp	r0, #0
 800492a:	db07      	blt.n	800493c <HAL_NVIC_EnableIRQ+0x14>
 800492c:	2301      	movs	r3, #1
 800492e:	0941      	lsrs	r1, r0, #5
 8004930:	4a03      	ldr	r2, [pc, #12]	@ (8004940 <HAL_NVIC_EnableIRQ+0x18>)
 8004932:	f000 001f 	and.w	r0, r0, #31
 8004936:	4083      	lsls	r3, r0
 8004938:	f842 3021 	str.w	r3, [r2, r1, lsl #2]
 800493c:	4770      	bx	lr
 800493e:	bf00      	nop
 8004940:	e000e100 	.word	0xe000e100

08004944 <HAL_SYSTICK_Config>:
 8004944:	3801      	subs	r0, #1
 8004946:	f1b0 7f80 	cmp.w	r0, #16777216	@ 0x1000000
 800494a:	d20b      	bcs.n	8004964 <HAL_SYSTICK_Config+0x20>
 800494c:	f04f 23e0 	mov.w	r3, #3758153728	@ 0xe000e000
 8004950:	21f0      	movs	r1, #240	@ 0xf0
 8004952:	4a05      	ldr	r2, [pc, #20]	@ (8004968 <HAL_SYSTICK_Config+0x24>)
 8004954:	6158      	str	r0, [r3, #20]
 8004956:	f882 1023 	strb.w	r1, [r2, #35]	@ 0x23
 800495a:	2000      	movs	r0, #0
 800495c:	2207      	movs	r2, #7
 800495e:	6198      	str	r0, [r3, #24]
 8004960:	611a      	str	r2, [r3, #16]
 8004962:	4770      	bx	lr
 8004964:	2001      	movs	r0, #1
 8004966:	4770      	bx	lr
 8004968:	e000ed00 	.word	0xe000ed00

0800496c <HAL_GPIO_Init>:
 800496c:	e92d 4ff7 	stmdb	sp!, {r0, r1, r2, r4, r5, r6, r7, r8, r9, sl, fp, lr}
 8004970:	2400      	movs	r4, #0
 8004972:	f04f 0e0f 	mov.w	lr, #15
 8004976:	4626      	mov	r6, r4
 8004978:	f8df c184 	ldr.w	ip, [pc, #388]	@ 8004b00 <HAL_GPIO_Init+0x194>
 800497c:	4b61      	ldr	r3, [pc, #388]	@ (8004b04 <HAL_GPIO_Init+0x198>)
 800497e:	f100 0804 	add.w	r8, r0, #4
 8004982:	680a      	ldr	r2, [r1, #0]
 8004984:	fa32 f506 	lsrs.w	r5, r2, r6
 8004988:	d102      	bne.n	8004990 <HAL_GPIO_Init+0x24>
 800498a:	b003      	add	sp, #12
 800498c:	e8bd 8ff0 	ldmia.w	sp!, {r4, r5, r6, r7, r8, r9, sl, fp, pc}
 8004990:	2501      	movs	r5, #1
 8004992:	fa05 f706 	lsl.w	r7, r5, r6
 8004996:	ea02 0507 	and.w	r5, r2, r7
 800499a:	ea37 0202 	bics.w	r2, r7, r2
 800499e:	d176      	bne.n	8004a8e <HAL_GPIO_Init+0x122>
 80049a0:	684a      	ldr	r2, [r1, #4]
 80049a2:	2a03      	cmp	r2, #3
 80049a4:	d807      	bhi.n	80049b6 <HAL_GPIO_Init+0x4a>
 80049a6:	3a01      	subs	r2, #1
 80049a8:	2a02      	cmp	r2, #2
 80049aa:	f200 8083 	bhi.w	8004ab4 <HAL_GPIO_Init+0x148>
 80049ae:	e8df f002 	tbb	[pc, r2]
 80049b2:	9691      	.short	0x9691
 80049b4:	9c          	.byte	0x9c
 80049b5:	00          	.byte	0x00
 80049b6:	2a12      	cmp	r2, #18
 80049b8:	f000 8094 	beq.w	8004ae4 <HAL_GPIO_Init+0x178>
 80049bc:	d869      	bhi.n	8004a92 <HAL_GPIO_Init+0x126>
 80049be:	2a11      	cmp	r2, #17
 80049c0:	f000 808a 	beq.w	8004ad8 <HAL_GPIO_Init+0x16c>
 80049c4:	2dff      	cmp	r5, #255	@ 0xff
 80049c6:	bf94      	ite	ls
 80049c8:	4681      	movls	r9, r0
 80049ca:	46c1      	movhi	r9, r8
 80049cc:	ea4f 0286 	mov.w	r2, r6, lsl #2
 80049d0:	f8d9 7000 	ldr.w	r7, [r9]
 80049d4:	bf88      	it	hi
 80049d6:	3a20      	subhi	r2, #32
 80049d8:	fa0e fa02 	lsl.w	sl, lr, r2
 80049dc:	ea27 070a 	bic.w	r7, r7, sl
 80049e0:	fa04 f202 	lsl.w	r2, r4, r2
 80049e4:	4317      	orrs	r7, r2
 80049e6:	f8c9 7000 	str.w	r7, [r9]
 80049ea:	f8d1 9004 	ldr.w	r9, [r1, #4]
 80049ee:	f019 5f80 	tst.w	r9, #268435456	@ 0x10000000
 80049f2:	d04c      	beq.n	8004a8e <HAL_GPIO_Init+0x122>
 80049f4:	f8dc 2018 	ldr.w	r2, [ip, #24]
 80049f8:	f026 0703 	bic.w	r7, r6, #3
 80049fc:	f042 0201 	orr.w	r2, r2, #1
 8004a00:	f8cc 2018 	str.w	r2, [ip, #24]
 8004a04:	f8dc 2018 	ldr.w	r2, [ip, #24]
 8004a08:	f107 4780 	add.w	r7, r7, #1073741824	@ 0x40000000
 8004a0c:	f002 0201 	and.w	r2, r2, #1
 8004a10:	9201      	str	r2, [sp, #4]
 8004a12:	f507 3780 	add.w	r7, r7, #65536	@ 0x10000
 8004a16:	f006 0a03 	and.w	sl, r6, #3
 8004a1a:	9a01      	ldr	r2, [sp, #4]
 8004a1c:	ea4f 0a8a 	mov.w	sl, sl, lsl #2
 8004a20:	68ba      	ldr	r2, [r7, #8]
 8004a22:	fa0e fb0a 	lsl.w	fp, lr, sl
 8004a26:	ea22 0b0b 	bic.w	fp, r2, fp
 8004a2a:	4a37      	ldr	r2, [pc, #220]	@ (8004b08 <HAL_GPIO_Init+0x19c>)
 8004a2c:	4290      	cmp	r0, r2
 8004a2e:	d060      	beq.n	8004af2 <HAL_GPIO_Init+0x186>
 8004a30:	f502 6280 	add.w	r2, r2, #1024	@ 0x400
 8004a34:	4290      	cmp	r0, r2
 8004a36:	d05e      	beq.n	8004af6 <HAL_GPIO_Init+0x18a>
 8004a38:	f502 6280 	add.w	r2, r2, #1024	@ 0x400
 8004a3c:	4290      	cmp	r0, r2
 8004a3e:	d05c      	beq.n	8004afa <HAL_GPIO_Init+0x18e>
 8004a40:	f502 6280 	add.w	r2, r2, #1024	@ 0x400
 8004a44:	4290      	cmp	r0, r2
 8004a46:	bf14      	ite	ne
 8004a48:	2204      	movne	r2, #4
 8004a4a:	2203      	moveq	r2, #3
 8004a4c:	fa02 f20a 	lsl.w	r2, r2, sl
 8004a50:	ea42 020b 	orr.w	r2, r2, fp
 8004a54:	60ba      	str	r2, [r7, #8]
 8004a56:	689a      	ldr	r2, [r3, #8]
 8004a58:	f419 1f80 	tst.w	r9, #1048576	@ 0x100000
 8004a5c:	bf14      	ite	ne
 8004a5e:	432a      	orrne	r2, r5
 8004a60:	43aa      	biceq	r2, r5
 8004a62:	609a      	str	r2, [r3, #8]
 8004a64:	68da      	ldr	r2, [r3, #12]
 8004a66:	f419 1f00 	tst.w	r9, #2097152	@ 0x200000
 8004a6a:	bf14      	ite	ne
 8004a6c:	432a      	orrne	r2, r5
 8004a6e:	43aa      	biceq	r2, r5
 8004a70:	60da      	str	r2, [r3, #12]
 8004a72:	685a      	ldr	r2, [r3, #4]
 8004a74:	f419 3f00 	tst.w	r9, #131072	@ 0x20000
 8004a78:	bf14      	ite	ne
 8004a7a:	432a      	orrne	r2, r5
 8004a7c:	43aa      	biceq	r2, r5
 8004a7e:	605a      	str	r2, [r3, #4]
 8004a80:	681a      	ldr	r2, [r3, #0]
 8004a82:	f419 3f80 	tst.w	r9, #65536	@ 0x10000
 8004a86:	bf14      	ite	ne
 8004a88:	432a      	orrne	r2, r5
 8004a8a:	43aa      	biceq	r2, r5
 8004a8c:	601a      	str	r2, [r3, #0]
 8004a8e:	3601      	adds	r6, #1
 8004a90:	e777      	b.n	8004982 <HAL_GPIO_Init+0x16>
 8004a92:	f8df 9078 	ldr.w	r9, [pc, #120]	@ 8004b0c <HAL_GPIO_Init+0x1a0>
 8004a96:	454a      	cmp	r2, r9
 8004a98:	d00c      	beq.n	8004ab4 <HAL_GPIO_Init+0x148>
 8004a9a:	d814      	bhi.n	8004ac6 <HAL_GPIO_Init+0x15a>
 8004a9c:	f5a9 1980 	sub.w	r9, r9, #1048576	@ 0x100000
 8004aa0:	454a      	cmp	r2, r9
 8004aa2:	d007      	beq.n	8004ab4 <HAL_GPIO_Init+0x148>
 8004aa4:	f509 2970 	add.w	r9, r9, #983040	@ 0xf0000
 8004aa8:	454a      	cmp	r2, r9
 8004aaa:	d003      	beq.n	8004ab4 <HAL_GPIO_Init+0x148>
 8004aac:	f5a9 1980 	sub.w	r9, r9, #1048576	@ 0x100000
 8004ab0:	454a      	cmp	r2, r9
 8004ab2:	d187      	bne.n	80049c4 <HAL_GPIO_Init+0x58>
 8004ab4:	688a      	ldr	r2, [r1, #8]
 8004ab6:	b1d2      	cbz	r2, 8004aee <HAL_GPIO_Init+0x182>
 8004ab8:	2a01      	cmp	r2, #1
 8004aba:	f04f 0408 	mov.w	r4, #8
 8004abe:	bf0c      	ite	eq
 8004ac0:	6107      	streq	r7, [r0, #16]
 8004ac2:	6147      	strne	r7, [r0, #20]
 8004ac4:	e77e      	b.n	80049c4 <HAL_GPIO_Init+0x58>
 8004ac6:	f8df 9048 	ldr.w	r9, [pc, #72]	@ 8004b10 <HAL_GPIO_Init+0x1a4>
 8004aca:	454a      	cmp	r2, r9
 8004acc:	d0f2      	beq.n	8004ab4 <HAL_GPIO_Init+0x148>
 8004ace:	f509 3980 	add.w	r9, r9, #65536	@ 0x10000
 8004ad2:	e7ed      	b.n	8004ab0 <HAL_GPIO_Init+0x144>
 8004ad4:	68cc      	ldr	r4, [r1, #12]
 8004ad6:	e775      	b.n	80049c4 <HAL_GPIO_Init+0x58>
 8004ad8:	68cc      	ldr	r4, [r1, #12]
 8004ada:	3404      	adds	r4, #4
 8004adc:	e772      	b.n	80049c4 <HAL_GPIO_Init+0x58>
 8004ade:	68cc      	ldr	r4, [r1, #12]
 8004ae0:	3408      	adds	r4, #8
 8004ae2:	e76f      	b.n	80049c4 <HAL_GPIO_Init+0x58>
 8004ae4:	68cc      	ldr	r4, [r1, #12]
 8004ae6:	340c      	adds	r4, #12
 8004ae8:	e76c      	b.n	80049c4 <HAL_GPIO_Init+0x58>
 8004aea:	2400      	movs	r4, #0
 8004aec:	e76a      	b.n	80049c4 <HAL_GPIO_Init+0x58>
 8004aee:	2404      	movs	r4, #4
 8004af0:	e768      	b.n	80049c4 <HAL_GPIO_Init+0x58>
 8004af2:	2200      	movs	r2, #0
 8004af4:	e7aa      	b.n	8004a4c <HAL_GPIO_Init+0xe0>
 8004af6:	2201      	movs	r2, #1
 8004af8:	e7a8      	b.n	8004a4c <HAL_GPIO_Init+0xe0>
 8004afa:	2202      	movs	r2, #2
 8004afc:	e7a6      	b.n	8004a4c <HAL_GPIO_Init+0xe0>
 8004afe:	bf00      	nop
 8004b00:	40021000 	.word	0x40021000
 8004b04:	40010400 	.word	0x40010400
 8004b08:	40010800 	.word	0x40010800
 8004b0c:	10220000 	.word	0x10220000
 8004b10:	10310000 	.word	0x10310000

08004b14 <HAL_GPIO_ReadPin>:
 8004b14:	6880      	ldr	r0, [r0, #8]
 8004b16:	4008      	ands	r0, r1
 8004b18:	3800      	subs	r0, #0
 8004b1a:	bf18      	it	ne
 8004b1c:	2001      	movne	r0, #1
 8004b1e:	4770      	bx	lr

08004b20 <HAL_GPIO_WritePin>:
 8004b20:	b10a      	cbz	r2, 8004b26 <HAL_GPIO_WritePin+0x6>
 8004b22:	6101      	str	r1, [r0, #16]
 8004b24:	4770      	bx	lr
 8004b26:	0409      	lsls	r1, r1, #16
 8004b28:	e7fb      	b.n	8004b22 <HAL_GPIO_WritePin+0x2>

08004b2a <HAL_PCD_Init>:
 8004b2a:	b5f8      	push	{r3, r4, r5, r6, r7, lr}
 8004b2c:	4604      	mov	r4, r0
 8004b2e:	b1e0      	cbz	r0, 8004b6a <HAL_PCD_Init+0x40>
 8004b30:	f890 3291 	ldrb.w	r3, [r0, #657]	@ 0x291
 8004b34:	f003 02ff 	and.w	r2, r3, #255	@ 0xff
 8004b38:	b91b      	cbnz	r3, 8004b42 <HAL_PCD_Init+0x18>
 8004b3a:	f880 2290 	strb.w	r2, [r0, #656]	@ 0x290
 8004b3e:	f7ff fd47 	bl	80045d0 <HAL_PCD_MspInit>
 8004b42:	2303      	movs	r3, #3
 8004b44:	f884 3291 	strb.w	r3, [r4, #657]	@ 0x291
 8004b48:	2300      	movs	r3, #0
 8004b4a:	4625      	mov	r5, r4
 8004b4c:	7163      	strb	r3, [r4, #5]
 8004b4e:	f855 0b04 	ldr.w	r0, [r5], #4
 8004b52:	f001 fc7d 	bl	8006450 <USB_DisableGlobalInt>
 8004b56:	e895 000e 	ldmia.w	r5, {r1, r2, r3}
 8004b5a:	6820      	ldr	r0, [r4, #0]
 8004b5c:	f001 fc68 	bl	8006430 <USB_CoreInit>
 8004b60:	4601      	mov	r1, r0
 8004b62:	b128      	cbz	r0, 8004b70 <HAL_PCD_Init+0x46>
 8004b64:	2302      	movs	r3, #2
 8004b66:	f884 3291 	strb.w	r3, [r4, #657]	@ 0x291
 8004b6a:	2501      	movs	r5, #1
 8004b6c:	4628      	mov	r0, r5
 8004b6e:	bdf8      	pop	{r3, r4, r5, r6, r7, pc}
 8004b70:	6820      	ldr	r0, [r4, #0]
 8004b72:	f001 fc77 	bl	8006464 <USB_SetCurrentMode>
 8004b76:	2800      	cmp	r0, #0
 8004b78:	d1f4      	bne.n	8004b64 <HAL_PCD_Init+0x3a>
 8004b7a:	4602      	mov	r2, r0
 8004b7c:	2701      	movs	r7, #1
 8004b7e:	7926      	ldrb	r6, [r4, #4]
 8004b80:	f104 0310 	add.w	r3, r4, #16
 8004b84:	b2c1      	uxtb	r1, r0
 8004b86:	428e      	cmp	r6, r1
 8004b88:	f103 0328 	add.w	r3, r3, #40	@ 0x28
 8004b8c:	d818      	bhi.n	8004bc0 <HAL_PCD_Init+0x96>
 8004b8e:	2100      	movs	r1, #0
 8004b90:	460a      	mov	r2, r1
 8004b92:	f504 73a8 	add.w	r3, r4, #336	@ 0x150
 8004b96:	b2c8      	uxtb	r0, r1
 8004b98:	4286      	cmp	r6, r0
 8004b9a:	f103 0328 	add.w	r3, r3, #40	@ 0x28
 8004b9e:	d81b      	bhi.n	8004bd8 <HAL_PCD_Init+0xae>
 8004ba0:	e895 000e 	ldmia.w	r5, {r1, r2, r3}
 8004ba4:	6820      	ldr	r0, [r4, #0]
 8004ba6:	f001 fc5f 	bl	8006468 <USB_DevInit>
 8004baa:	4605      	mov	r5, r0
 8004bac:	2800      	cmp	r0, #0
 8004bae:	d1d9      	bne.n	8004b64 <HAL_PCD_Init+0x3a>
 8004bb0:	2301      	movs	r3, #1
 8004bb2:	7360      	strb	r0, [r4, #13]
 8004bb4:	6820      	ldr	r0, [r4, #0]
 8004bb6:	f884 3291 	strb.w	r3, [r4, #657]	@ 0x291
 8004bba:	f001 ff0b 	bl	80069d4 <USB_DevDisconnect>
 8004bbe:	e7d5      	b.n	8004b6c <HAL_PCD_Init+0x42>
 8004bc0:	e943 2206 	strd	r2, r2, [r3, #-24]
 8004bc4:	f803 7c27 	strb.w	r7, [r3, #-39]
 8004bc8:	f803 1c28 	strb.w	r1, [r3, #-40]
 8004bcc:	f803 2c25 	strb.w	r2, [r3, #-37]
 8004bd0:	f843 2c10 	str.w	r2, [r3, #-16]
 8004bd4:	3001      	adds	r0, #1
 8004bd6:	e7d5      	b.n	8004b84 <HAL_PCD_Init+0x5a>
 8004bd8:	e943 2206 	strd	r2, r2, [r3, #-24]
 8004bdc:	f803 2c27 	strb.w	r2, [r3, #-39]
 8004be0:	f803 0c28 	strb.w	r0, [r3, #-40]
 8004be4:	f803 2c25 	strb.w	r2, [r3, #-37]
 8004be8:	f843 2c10 	str.w	r2, [r3, #-16]
 8004bec:	3101      	adds	r1, #1
 8004bee:	e7d2      	b.n	8004b96 <HAL_PCD_Init+0x6c>

08004bf0 <HAL_PCD_Start>:
 8004bf0:	b538      	push	{r3, r4, r5, lr}
 8004bf2:	f890 3290 	ldrb.w	r3, [r0, #656]	@ 0x290
 8004bf6:	4604      	mov	r4, r0
 8004bf8:	2b01      	cmp	r3, #1
 8004bfa:	d010      	beq.n	8004c1e <HAL_PCD_Start+0x2e>
 8004bfc:	2501      	movs	r5, #1
 8004bfe:	f880 5290 	strb.w	r5, [r0, #656]	@ 0x290
 8004c02:	6800      	ldr	r0, [r0, #0]
 8004c04:	f001 fc1b 	bl	800643e <USB_EnableGlobalInt>
 8004c08:	4629      	mov	r1, r5
 8004c0a:	4620      	mov	r0, r4
 8004c0c:	f7ff fde7 	bl	80047de <HAL_PCDEx_SetConnectionState>
 8004c10:	6820      	ldr	r0, [r4, #0]
 8004c12:	f001 fedd 	bl	80069d0 <USB_DevConnect>
 8004c16:	2000      	movs	r0, #0
 8004c18:	f884 0290 	strb.w	r0, [r4, #656]	@ 0x290
 8004c1c:	bd38      	pop	{r3, r4, r5, pc}
 8004c1e:	2002      	movs	r0, #2
 8004c20:	e7fc      	b.n	8004c1c <HAL_PCD_Start+0x2c>

08004c22 <HAL_PCD_SetAddress>:
 8004c22:	b510      	push	{r4, lr}
 8004c24:	f890 2290 	ldrb.w	r2, [r0, #656]	@ 0x290
 8004c28:	4604      	mov	r4, r0
 8004c2a:	2a01      	cmp	r2, #1
 8004c2c:	d00a      	beq.n	8004c44 <HAL_PCD_SetAddress+0x22>
 8004c2e:	2201      	movs	r2, #1
 8004c30:	7341      	strb	r1, [r0, #13]
 8004c32:	f880 2290 	strb.w	r2, [r0, #656]	@ 0x290
 8004c36:	6800      	ldr	r0, [r0, #0]
 8004c38:	f001 fec4 	bl	80069c4 <USB_SetDevAddress>
 8004c3c:	2000      	movs	r0, #0
 8004c3e:	f884 0290 	strb.w	r0, [r4, #656]	@ 0x290
 8004c42:	bd10      	pop	{r4, pc}
 8004c44:	2002      	movs	r0, #2
 8004c46:	e7fc      	b.n	8004c42 <HAL_PCD_SetAddress+0x20>

08004c48 <HAL_PCD_IRQHandler>:
 8004c48:	e92d 4ff0 	stmdb	sp!, {r4, r5, r6, r7, r8, r9, sl, fp, lr}
 8004c4c:	4604      	mov	r4, r0
 8004c4e:	b087      	sub	sp, #28
 8004c50:	6800      	ldr	r0, [r0, #0]
 8004c52:	f001 fec1 	bl	80069d8 <USB_ReadInterrupts>
 8004c56:	f410 4500 	ands.w	r5, r0, #32768	@ 0x8000
 8004c5a:	f000 8425 	beq.w	80054a8 <HAL_PCD_IRQHandler+0x860>
 8004c5e:	f04f 0928 	mov.w	r9, #40	@ 0x28
 8004c62:	4ec5      	ldr	r6, [pc, #788]	@ (8004f78 <HAL_PCD_IRQHandler+0x330>)
 8004c64:	6820      	ldr	r0, [r4, #0]
 8004c66:	f8b0 3044 	ldrh.w	r3, [r0, #68]	@ 0x44
 8004c6a:	0419      	lsls	r1, r3, #16
 8004c6c:	d402      	bmi.n	8004c74 <HAL_PCD_IRQHandler+0x2c>
 8004c6e:	b007      	add	sp, #28
 8004c70:	e8bd 8ff0 	ldmia.w	sp!, {r4, r5, r6, r7, r8, r9, sl, fp, pc}
 8004c74:	f8b0 7044 	ldrh.w	r7, [r0, #68]	@ 0x44
 8004c78:	b2b9      	uxth	r1, r7
 8004c7a:	f017 070f 	ands.w	r7, r7, #15
 8004c7e:	f040 80bf 	bne.w	8004e00 <HAL_PCD_IRQHandler+0x1b8>
 8004c82:	f011 0110 	ands.w	r1, r1, #16
 8004c86:	d126      	bne.n	8004cd6 <HAL_PCD_IRQHandler+0x8e>
 8004c88:	8803      	ldrh	r3, [r0, #0]
 8004c8a:	b29b      	uxth	r3, r3
 8004c8c:	4033      	ands	r3, r6
 8004c8e:	f443 4300 	orr.w	r3, r3, #32768	@ 0x8000
 8004c92:	8003      	strh	r3, [r0, #0]
 8004c94:	f8b0 3050 	ldrh.w	r3, [r0, #80]	@ 0x50
 8004c98:	7c22      	ldrb	r2, [r4, #16]
 8004c9a:	b29b      	uxth	r3, r3
 8004c9c:	eb03 03c2 	add.w	r3, r3, r2, lsl #3
 8004ca0:	eb00 0343 	add.w	r3, r0, r3, lsl #1
 8004ca4:	f8b3 3404 	ldrh.w	r3, [r3, #1028]	@ 0x404
 8004ca8:	6a62      	ldr	r2, [r4, #36]	@ 0x24
 8004caa:	f3c3 0309 	ubfx	r3, r3, #0, #10
 8004cae:	441a      	add	r2, r3
 8004cb0:	62e3      	str	r3, [r4, #44]	@ 0x2c
 8004cb2:	4620      	mov	r0, r4
 8004cb4:	6262      	str	r2, [r4, #36]	@ 0x24
 8004cb6:	f7ff fcba 	bl	800462e <HAL_PCD_DataInStageCallback>
 8004cba:	7b63      	ldrb	r3, [r4, #13]
 8004cbc:	2b00      	cmp	r3, #0
 8004cbe:	d0d1      	beq.n	8004c64 <HAL_PCD_IRQHandler+0x1c>
 8004cc0:	6aa2      	ldr	r2, [r4, #40]	@ 0x28
 8004cc2:	2a00      	cmp	r2, #0
 8004cc4:	d1ce      	bne.n	8004c64 <HAL_PCD_IRQHandler+0x1c>
 8004cc6:	7b63      	ldrb	r3, [r4, #13]
 8004cc8:	6821      	ldr	r1, [r4, #0]
 8004cca:	f043 0380 	orr.w	r3, r3, #128	@ 0x80
 8004cce:	f8a1 304c 	strh.w	r3, [r1, #76]	@ 0x4c
 8004cd2:	7362      	strb	r2, [r4, #13]
 8004cd4:	e7c6      	b.n	8004c64 <HAL_PCD_IRQHandler+0x1c>
 8004cd6:	8805      	ldrh	r5, [r0, #0]
 8004cd8:	b2ab      	uxth	r3, r5
 8004cda:	f415 6500 	ands.w	r5, r5, #2048	@ 0x800
 8004cde:	d021      	beq.n	8004d24 <HAL_PCD_IRQHandler+0xdc>
 8004ce0:	f8b0 3050 	ldrh.w	r3, [r0, #80]	@ 0x50
 8004ce4:	f894 2150 	ldrb.w	r2, [r4, #336]	@ 0x150
 8004ce8:	b29b      	uxth	r3, r3
 8004cea:	eb03 03c2 	add.w	r3, r3, r2, lsl #3
 8004cee:	eb00 0343 	add.w	r3, r0, r3, lsl #1
 8004cf2:	f8b3 340c 	ldrh.w	r3, [r3, #1036]	@ 0x40c
 8004cf6:	f8b4 2156 	ldrh.w	r2, [r4, #342]	@ 0x156
 8004cfa:	f3c3 0309 	ubfx	r3, r3, #0, #10
 8004cfe:	f8c4 316c 	str.w	r3, [r4, #364]	@ 0x16c
 8004d02:	f504 7126 	add.w	r1, r4, #664	@ 0x298
 8004d06:	f002 f8ae 	bl	8006e66 <USB_ReadPMA>
 8004d0a:	6822      	ldr	r2, [r4, #0]
 8004d0c:	4620      	mov	r0, r4
 8004d0e:	8813      	ldrh	r3, [r2, #0]
 8004d10:	f023 0370 	bic.w	r3, r3, #112	@ 0x70
 8004d14:	051b      	lsls	r3, r3, #20
 8004d16:	0d1b      	lsrs	r3, r3, #20
 8004d18:	f043 0380 	orr.w	r3, r3, #128	@ 0x80
 8004d1c:	8013      	strh	r3, [r2, #0]
 8004d1e:	f7ff fc77 	bl	8004610 <HAL_PCD_SetupStageCallback>
 8004d22:	e79f      	b.n	8004c64 <HAL_PCD_IRQHandler+0x1c>
 8004d24:	041b      	lsls	r3, r3, #16
 8004d26:	d59d      	bpl.n	8004c64 <HAL_PCD_IRQHandler+0x1c>
 8004d28:	8803      	ldrh	r3, [r0, #0]
 8004d2a:	f023 0370 	bic.w	r3, r3, #112	@ 0x70
 8004d2e:	051b      	lsls	r3, r3, #20
 8004d30:	0d1b      	lsrs	r3, r3, #20
 8004d32:	f043 0380 	orr.w	r3, r3, #128	@ 0x80
 8004d36:	8003      	strh	r3, [r0, #0]
 8004d38:	f8b0 3050 	ldrh.w	r3, [r0, #80]	@ 0x50
 8004d3c:	f894 2150 	ldrb.w	r2, [r4, #336]	@ 0x150
 8004d40:	b29b      	uxth	r3, r3
 8004d42:	eb03 03c2 	add.w	r3, r3, r2, lsl #3
 8004d46:	eb00 0343 	add.w	r3, r0, r3, lsl #1
 8004d4a:	f8b3 340c 	ldrh.w	r3, [r3, #1036]	@ 0x40c
 8004d4e:	f3c3 0309 	ubfx	r3, r3, #0, #10
 8004d52:	f8c4 316c 	str.w	r3, [r4, #364]	@ 0x16c
 8004d56:	b18b      	cbz	r3, 8004d7c <HAL_PCD_IRQHandler+0x134>
 8004d58:	f8d4 1164 	ldr.w	r1, [r4, #356]	@ 0x164
 8004d5c:	b171      	cbz	r1, 8004d7c <HAL_PCD_IRQHandler+0x134>
 8004d5e:	f8b4 2156 	ldrh.w	r2, [r4, #342]	@ 0x156
 8004d62:	f002 f880 	bl	8006e66 <USB_ReadPMA>
 8004d66:	f8d4 3164 	ldr.w	r3, [r4, #356]	@ 0x164
 8004d6a:	f8d4 216c 	ldr.w	r2, [r4, #364]	@ 0x16c
 8004d6e:	4629      	mov	r1, r5
 8004d70:	4413      	add	r3, r2
 8004d72:	4620      	mov	r0, r4
 8004d74:	f8c4 3164 	str.w	r3, [r4, #356]	@ 0x164
 8004d78:	f7ff fc50 	bl	800461c <HAL_PCD_DataOutStageCallback>
 8004d7c:	6821      	ldr	r1, [r4, #0]
 8004d7e:	880a      	ldrh	r2, [r1, #0]
 8004d80:	0517      	lsls	r7, r2, #20
 8004d82:	b293      	uxth	r3, r2
 8004d84:	f53f af6e 	bmi.w	8004c64 <HAL_PCD_IRQHandler+0x1c>
 8004d88:	f403 5340 	and.w	r3, r3, #12288	@ 0x3000
 8004d8c:	f5b3 5f40 	cmp.w	r3, #12288	@ 0x3000
 8004d90:	f43f af68 	beq.w	8004c64 <HAL_PCD_IRQHandler+0x1c>
 8004d94:	f8b1 2050 	ldrh.w	r2, [r1, #80]	@ 0x50
 8004d98:	f201 400c 	addw	r0, r1, #1036	@ 0x40c
 8004d9c:	b292      	uxth	r2, r2
 8004d9e:	5a83      	ldrh	r3, [r0, r2]
 8004da0:	f8d4 5160 	ldr.w	r5, [r4, #352]	@ 0x160
 8004da4:	f3c3 0309 	ubfx	r3, r3, #0, #10
 8004da8:	2d3e      	cmp	r5, #62	@ 0x3e
 8004daa:	5283      	strh	r3, [r0, r2]
 8004dac:	d91d      	bls.n	8004dea <HAL_PCD_IRQHandler+0x1a2>
 8004dae:	5a83      	ldrh	r3, [r0, r2]
 8004db0:	096f      	lsrs	r7, r5, #5
 8004db2:	06ed      	lsls	r5, r5, #27
 8004db4:	bf08      	it	eq
 8004db6:	f107 37ff 	addeq.w	r7, r7, #4294967295
 8004dba:	b29b      	uxth	r3, r3
 8004dbc:	ea43 2387 	orr.w	r3, r3, r7, lsl #10
 8004dc0:	ea6f 4343 	mvn.w	r3, r3, lsl #17
 8004dc4:	ea6f 4353 	mvn.w	r3, r3, lsr #17
 8004dc8:	b29b      	uxth	r3, r3
 8004dca:	5283      	strh	r3, [r0, r2]
 8004dcc:	880b      	ldrh	r3, [r1, #0]
 8004dce:	f423 4380 	bic.w	r3, r3, #16384	@ 0x4000
 8004dd2:	f023 0370 	bic.w	r3, r3, #112	@ 0x70
 8004dd6:	041b      	lsls	r3, r3, #16
 8004dd8:	0c1b      	lsrs	r3, r3, #16
 8004dda:	f483 5340 	eor.w	r3, r3, #12288	@ 0x3000
 8004dde:	f443 4300 	orr.w	r3, r3, #32768	@ 0x8000
 8004de2:	f043 0380 	orr.w	r3, r3, #128	@ 0x80
 8004de6:	800b      	strh	r3, [r1, #0]
 8004de8:	e73c      	b.n	8004c64 <HAL_PCD_IRQHandler+0x1c>
 8004dea:	5a83      	ldrh	r3, [r0, r2]
 8004dec:	2d00      	cmp	r5, #0
 8004dee:	d0e7      	beq.n	8004dc0 <HAL_PCD_IRQHandler+0x178>
 8004df0:	f005 0701 	and.w	r7, r5, #1
 8004df4:	b29b      	uxth	r3, r3
 8004df6:	eb07 0555 	add.w	r5, r7, r5, lsr #1
 8004dfa:	ea43 2385 	orr.w	r3, r3, r5, lsl #10
 8004dfe:	e7e3      	b.n	8004dc8 <HAL_PCD_IRQHandler+0x180>
 8004e00:	f830 3027 	ldrh.w	r3, [r0, r7, lsl #2]
 8004e04:	0419      	lsls	r1, r3, #16
 8004e06:	fa1f f883 	uxth.w	r8, r3
 8004e0a:	f140 80f3 	bpl.w	8004ff4 <HAL_PCD_IRQHandler+0x3ac>
 8004e0e:	f830 3027 	ldrh.w	r3, [r0, r7, lsl #2]
 8004e12:	fb09 4207 	mla	r2, r9, r7, r4
 8004e16:	f023 0370 	bic.w	r3, r3, #112	@ 0x70
 8004e1a:	051b      	lsls	r3, r3, #20
 8004e1c:	0d1b      	lsrs	r3, r3, #20
 8004e1e:	f043 0380 	orr.w	r3, r3, #128	@ 0x80
 8004e22:	f820 3027 	strh.w	r3, [r0, r7, lsl #2]
 8004e26:	f892 515c 	ldrb.w	r5, [r2, #348]	@ 0x15c
 8004e2a:	f892 3150 	ldrb.w	r3, [r2, #336]	@ 0x150
 8004e2e:	f8d2 1164 	ldr.w	r1, [r2, #356]	@ 0x164
 8004e32:	f500 6e80 	add.w	lr, r0, #1024	@ 0x400
 8004e36:	b995      	cbnz	r5, 8004e5e <HAL_PCD_IRQHandler+0x216>
 8004e38:	f8b0 5050 	ldrh.w	r5, [r0, #80]	@ 0x50
 8004e3c:	b2ad      	uxth	r5, r5
 8004e3e:	3506      	adds	r5, #6
 8004e40:	eb05 03c3 	add.w	r3, r5, r3, lsl #3
 8004e44:	f83e 5013 	ldrh.w	r5, [lr, r3, lsl #1]
 8004e48:	f3c5 0509 	ubfx	r5, r5, #0, #10
 8004e4c:	2d00      	cmp	r5, #0
 8004e4e:	f000 80b6 	beq.w	8004fbe <HAL_PCD_IRQHandler+0x376>
 8004e52:	462b      	mov	r3, r5
 8004e54:	f8b2 2156 	ldrh.w	r2, [r2, #342]	@ 0x156
 8004e58:	f002 f805 	bl	8006e66 <USB_ReadPMA>
 8004e5c:	e0af      	b.n	8004fbe <HAL_PCD_IRQHandler+0x376>
 8004e5e:	f892 5153 	ldrb.w	r5, [r2, #339]	@ 0x153
 8004e62:	2d02      	cmp	r5, #2
 8004e64:	f040 808a 	bne.w	8004f7c <HAL_PCD_IRQHandler+0x334>
 8004e68:	f418 4580 	ands.w	r5, r8, #16384	@ 0x4000
 8004e6c:	9501      	str	r5, [sp, #4]
 8004e6e:	f8b0 5050 	ldrh.w	r5, [r0, #80]	@ 0x50
 8004e72:	ea4f 0bc3 	mov.w	fp, r3, lsl #3
 8004e76:	b2ad      	uxth	r5, r5
 8004e78:	f8d2 c168 	ldr.w	ip, [r2, #360]	@ 0x168
 8004e7c:	f008 0a40 	and.w	sl, r8, #64	@ 0x40
 8004e80:	445d      	add	r5, fp
 8004e82:	d03c      	beq.n	8004efe <HAL_PCD_IRQHandler+0x2b6>
 8004e84:	3502      	adds	r5, #2
 8004e86:	f83e 5015 	ldrh.w	r5, [lr, r5, lsl #1]
 8004e8a:	f3c5 0509 	ubfx	r5, r5, #0, #10
 8004e8e:	4565      	cmp	r5, ip
 8004e90:	d914      	bls.n	8004ebc <HAL_PCD_IRQHandler+0x274>
 8004e92:	f04f 0c00 	mov.w	ip, #0
 8004e96:	f8c2 c168 	str.w	ip, [r2, #360]	@ 0x168
 8004e9a:	f830 2023 	ldrh.w	r2, [r0, r3, lsl #2]
 8004e9e:	f422 4280 	bic.w	r2, r2, #16384	@ 0x4000
 8004ea2:	f022 0270 	bic.w	r2, r2, #112	@ 0x70
 8004ea6:	0412      	lsls	r2, r2, #16
 8004ea8:	0c12      	lsrs	r2, r2, #16
 8004eaa:	f482 5200 	eor.w	r2, r2, #8192	@ 0x2000
 8004eae:	f442 4200 	orr.w	r2, r2, #32768	@ 0x8000
 8004eb2:	f042 0280 	orr.w	r2, r2, #128	@ 0x80
 8004eb6:	f820 2023 	strh.w	r2, [r0, r3, lsl #2]
 8004eba:	e006      	b.n	8004eca <HAL_PCD_IRQHandler+0x282>
 8004ebc:	ebac 0c05 	sub.w	ip, ip, r5
 8004ec0:	f8c2 c168 	str.w	ip, [r2, #360]	@ 0x168
 8004ec4:	f1bc 0f00 	cmp.w	ip, #0
 8004ec8:	d0e7      	beq.n	8004e9a <HAL_PCD_IRQHandler+0x252>
 8004eca:	f1ba 0f00 	cmp.w	sl, #0
 8004ece:	d00d      	beq.n	8004eec <HAL_PCD_IRQHandler+0x2a4>
 8004ed0:	f830 2023 	ldrh.w	r2, [r0, r3, lsl #2]
 8004ed4:	f422 42e0 	bic.w	r2, r2, #28672	@ 0x7000
 8004ed8:	f022 0270 	bic.w	r2, r2, #112	@ 0x70
 8004edc:	0412      	lsls	r2, r2, #16
 8004ede:	0c12      	lsrs	r2, r2, #16
 8004ee0:	f442 4200 	orr.w	r2, r2, #32768	@ 0x8000
 8004ee4:	f042 02c0 	orr.w	r2, r2, #192	@ 0xc0
 8004ee8:	f820 2023 	strh.w	r2, [r0, r3, lsl #2]
 8004eec:	2d00      	cmp	r5, #0
 8004eee:	d066      	beq.n	8004fbe <HAL_PCD_IRQHandler+0x376>
 8004ef0:	2228      	movs	r2, #40	@ 0x28
 8004ef2:	fb02 4207 	mla	r2, r2, r7, r4
 8004ef6:	462b      	mov	r3, r5
 8004ef8:	f8b2 2158 	ldrh.w	r2, [r2, #344]	@ 0x158
 8004efc:	e7ac      	b.n	8004e58 <HAL_PCD_IRQHandler+0x210>
 8004efe:	3506      	adds	r5, #6
 8004f00:	f83e 5015 	ldrh.w	r5, [lr, r5, lsl #1]
 8004f04:	f3c5 0509 	ubfx	r5, r5, #0, #10
 8004f08:	4565      	cmp	r5, ip
 8004f0a:	d914      	bls.n	8004f36 <HAL_PCD_IRQHandler+0x2ee>
 8004f0c:	f8dd c004 	ldr.w	ip, [sp, #4]
 8004f10:	f8c2 c168 	str.w	ip, [r2, #360]	@ 0x168
 8004f14:	f830 2023 	ldrh.w	r2, [r0, r3, lsl #2]
 8004f18:	f422 4280 	bic.w	r2, r2, #16384	@ 0x4000
 8004f1c:	f022 0270 	bic.w	r2, r2, #112	@ 0x70
 8004f20:	0412      	lsls	r2, r2, #16
 8004f22:	0c12      	lsrs	r2, r2, #16
 8004f24:	f482 5200 	eor.w	r2, r2, #8192	@ 0x2000
 8004f28:	f442 4200 	orr.w	r2, r2, #32768	@ 0x8000
 8004f2c:	f042 0280 	orr.w	r2, r2, #128	@ 0x80
 8004f30:	f820 2023 	strh.w	r2, [r0, r3, lsl #2]
 8004f34:	e006      	b.n	8004f44 <HAL_PCD_IRQHandler+0x2fc>
 8004f36:	ebac 0c05 	sub.w	ip, ip, r5
 8004f3a:	f8c2 c168 	str.w	ip, [r2, #360]	@ 0x168
 8004f3e:	f1bc 0f00 	cmp.w	ip, #0
 8004f42:	d0e7      	beq.n	8004f14 <HAL_PCD_IRQHandler+0x2cc>
 8004f44:	f1ba 0f00 	cmp.w	sl, #0
 8004f48:	d10d      	bne.n	8004f66 <HAL_PCD_IRQHandler+0x31e>
 8004f4a:	f830 2023 	ldrh.w	r2, [r0, r3, lsl #2]
 8004f4e:	f422 42e0 	bic.w	r2, r2, #28672	@ 0x7000
 8004f52:	f022 0270 	bic.w	r2, r2, #112	@ 0x70
 8004f56:	0412      	lsls	r2, r2, #16
 8004f58:	0c12      	lsrs	r2, r2, #16
 8004f5a:	f442 4200 	orr.w	r2, r2, #32768	@ 0x8000
 8004f5e:	f042 02c0 	orr.w	r2, r2, #192	@ 0xc0
 8004f62:	f820 2023 	strh.w	r2, [r0, r3, lsl #2]
 8004f66:	b355      	cbz	r5, 8004fbe <HAL_PCD_IRQHandler+0x376>
 8004f68:	2228      	movs	r2, #40	@ 0x28
 8004f6a:	fb02 4207 	mla	r2, r2, r7, r4
 8004f6e:	462b      	mov	r3, r5
 8004f70:	f8b2 215a 	ldrh.w	r2, [r2, #346]	@ 0x15a
 8004f74:	e770      	b.n	8004e58 <HAL_PCD_IRQHandler+0x210>
 8004f76:	bf00      	nop
 8004f78:	ffff8f0f 	.word	0xffff8f0f
 8004f7c:	f830 5023 	ldrh.w	r5, [r0, r3, lsl #2]
 8004f80:	f425 45e0 	bic.w	r5, r5, #28672	@ 0x7000
 8004f84:	f025 0570 	bic.w	r5, r5, #112	@ 0x70
 8004f88:	042d      	lsls	r5, r5, #16
 8004f8a:	0c2d      	lsrs	r5, r5, #16
 8004f8c:	f445 4500 	orr.w	r5, r5, #32768	@ 0x8000
 8004f90:	f045 05c0 	orr.w	r5, r5, #192	@ 0xc0
 8004f94:	f820 5023 	strh.w	r5, [r0, r3, lsl #2]
 8004f98:	f892 5150 	ldrb.w	r5, [r2, #336]	@ 0x150
 8004f9c:	f830 3025 	ldrh.w	r3, [r0, r5, lsl #2]
 8004fa0:	00ed      	lsls	r5, r5, #3
 8004fa2:	f413 4f80 	tst.w	r3, #16384	@ 0x4000
 8004fa6:	f8b0 3050 	ldrh.w	r3, [r0, #80]	@ 0x50
 8004faa:	b29b      	uxth	r3, r3
 8004fac:	442b      	add	r3, r5
 8004fae:	d052      	beq.n	8005056 <HAL_PCD_IRQHandler+0x40e>
 8004fb0:	3302      	adds	r3, #2
 8004fb2:	f83e 5013 	ldrh.w	r5, [lr, r3, lsl #1]
 8004fb6:	f3c5 0509 	ubfx	r5, r5, #0, #10
 8004fba:	2d00      	cmp	r5, #0
 8004fbc:	d19b      	bne.n	8004ef6 <HAL_PCD_IRQHandler+0x2ae>
 8004fbe:	fb09 f107 	mul.w	r1, r9, r7
 8004fc2:	1863      	adds	r3, r4, r1
 8004fc4:	f8d3 216c 	ldr.w	r2, [r3, #364]	@ 0x16c
 8004fc8:	442a      	add	r2, r5
 8004fca:	f8c3 216c 	str.w	r2, [r3, #364]	@ 0x16c
 8004fce:	f8d3 2164 	ldr.w	r2, [r3, #356]	@ 0x164
 8004fd2:	442a      	add	r2, r5
 8004fd4:	f8c3 2164 	str.w	r2, [r3, #356]	@ 0x164
 8004fd8:	f8d3 2168 	ldr.w	r2, [r3, #360]	@ 0x168
 8004fdc:	b11a      	cbz	r2, 8004fe6 <HAL_PCD_IRQHandler+0x39e>
 8004fde:	f8d3 3160 	ldr.w	r3, [r3, #352]	@ 0x160
 8004fe2:	429d      	cmp	r5, r3
 8004fe4:	d23f      	bcs.n	8005066 <HAL_PCD_IRQHandler+0x41e>
 8004fe6:	fb09 4307 	mla	r3, r9, r7, r4
 8004fea:	4620      	mov	r0, r4
 8004fec:	f893 1150 	ldrb.w	r1, [r3, #336]	@ 0x150
 8004ff0:	f7ff fb14 	bl	800461c <HAL_PCD_DataOutStageCallback>
 8004ff4:	f018 0f80 	tst.w	r8, #128	@ 0x80
 8004ff8:	f43f ae34 	beq.w	8004c64 <HAL_PCD_IRQHandler+0x1c>
 8004ffc:	6820      	ldr	r0, [r4, #0]
 8004ffe:	fb09 fc07 	mul.w	ip, r9, r7
 8005002:	f830 3027 	ldrh.w	r3, [r0, r7, lsl #2]
 8005006:	b29b      	uxth	r3, r3
 8005008:	4033      	ands	r3, r6
 800500a:	f443 4300 	orr.w	r3, r3, #32768	@ 0x8000
 800500e:	f820 3027 	strh.w	r3, [r0, r7, lsl #2]
 8005012:	eb04 030c 	add.w	r3, r4, ip
 8005016:	7cda      	ldrb	r2, [r3, #19]
 8005018:	2a01      	cmp	r2, #1
 800501a:	d154      	bne.n	80050c6 <HAL_PCD_IRQHandler+0x47e>
 800501c:	2100      	movs	r1, #0
 800501e:	fb07 9209 	mla	r2, r7, r9, r9
 8005022:	50a1      	str	r1, [r4, r2]
 8005024:	7f1a      	ldrb	r2, [r3, #28]
 8005026:	b382      	cbz	r2, 800508a <HAL_PCD_IRQHandler+0x442>
 8005028:	f018 0840 	ands.w	r8, r8, #64	@ 0x40
 800502c:	7c5a      	ldrb	r2, [r3, #17]
 800502e:	d034      	beq.n	800509a <HAL_PCD_IRQHandler+0x452>
 8005030:	bb02      	cbnz	r2, 8005074 <HAL_PCD_IRQHandler+0x42c>
 8005032:	f8b0 2050 	ldrh.w	r2, [r0, #80]	@ 0x50
 8005036:	7c1b      	ldrb	r3, [r3, #16]
 8005038:	b292      	uxth	r2, r2
 800503a:	011b      	lsls	r3, r3, #4
 800503c:	f200 4004 	addw	r0, r0, #1028	@ 0x404
 8005040:	4410      	add	r0, r2
 8005042:	5a1a      	ldrh	r2, [r3, r0]
 8005044:	f3c2 0209 	ubfx	r2, r2, #0, #10
 8005048:	521a      	strh	r2, [r3, r0]
 800504a:	5a1a      	ldrh	r2, [r3, r0]
 800504c:	b292      	uxth	r2, r2
 800504e:	f442 4200 	orr.w	r2, r2, #32768	@ 0x8000
 8005052:	521a      	strh	r2, [r3, r0]
 8005054:	e019      	b.n	800508a <HAL_PCD_IRQHandler+0x442>
 8005056:	3306      	adds	r3, #6
 8005058:	f83e 5013 	ldrh.w	r5, [lr, r3, lsl #1]
 800505c:	f3c5 0509 	ubfx	r5, r5, #0, #10
 8005060:	2d00      	cmp	r5, #0
 8005062:	d0ac      	beq.n	8004fbe <HAL_PCD_IRQHandler+0x376>
 8005064:	e783      	b.n	8004f6e <HAL_PCD_IRQHandler+0x326>
 8005066:	f501 71a8 	add.w	r1, r1, #336	@ 0x150
 800506a:	6820      	ldr	r0, [r4, #0]
 800506c:	4421      	add	r1, r4
 800506e:	f001 fcc9 	bl	8006a04 <USB_EPStartXfer>
 8005072:	e7bf      	b.n	8004ff4 <HAL_PCD_IRQHandler+0x3ac>
 8005074:	2a01      	cmp	r2, #1
 8005076:	d108      	bne.n	800508a <HAL_PCD_IRQHandler+0x442>
 8005078:	f8b0 2050 	ldrh.w	r2, [r0, #80]	@ 0x50
 800507c:	7c1b      	ldrb	r3, [r3, #16]
 800507e:	b292      	uxth	r2, r2
 8005080:	f200 4004 	addw	r0, r0, #1028	@ 0x404
 8005084:	011b      	lsls	r3, r3, #4
 8005086:	4410      	add	r0, r2
 8005088:	5219      	strh	r1, [r3, r0]
 800508a:	2328      	movs	r3, #40	@ 0x28
 800508c:	fb03 4307 	mla	r3, r3, r7, r4
 8005090:	7c19      	ldrb	r1, [r3, #16]
 8005092:	4620      	mov	r0, r4
 8005094:	f7ff facb 	bl	800462e <HAL_PCD_DataInStageCallback>
 8005098:	e5e4      	b.n	8004c64 <HAL_PCD_IRQHandler+0x1c>
 800509a:	b93a      	cbnz	r2, 80050ac <HAL_PCD_IRQHandler+0x464>
 800509c:	f8b0 2050 	ldrh.w	r2, [r0, #80]	@ 0x50
 80050a0:	7c1b      	ldrb	r3, [r3, #16]
 80050a2:	b292      	uxth	r2, r2
 80050a4:	011b      	lsls	r3, r3, #4
 80050a6:	f200 400c 	addw	r0, r0, #1036	@ 0x40c
 80050aa:	e7c9      	b.n	8005040 <HAL_PCD_IRQHandler+0x3f8>
 80050ac:	2a01      	cmp	r2, #1
 80050ae:	d1ec      	bne.n	800508a <HAL_PCD_IRQHandler+0x442>
 80050b0:	f8b0 2050 	ldrh.w	r2, [r0, #80]	@ 0x50
 80050b4:	7c1b      	ldrb	r3, [r3, #16]
 80050b6:	b292      	uxth	r2, r2
 80050b8:	f200 400c 	addw	r0, r0, #1036	@ 0x40c
 80050bc:	011b      	lsls	r3, r3, #4
 80050be:	4410      	add	r0, r2
 80050c0:	f823 8000 	strh.w	r8, [r3, r0]
 80050c4:	e7e1      	b.n	800508a <HAL_PCD_IRQHandler+0x442>
 80050c6:	7c19      	ldrb	r1, [r3, #16]
 80050c8:	f8b0 5050 	ldrh.w	r5, [r0, #80]	@ 0x50
 80050cc:	ea4f 0ac1 	mov.w	sl, r1, lsl #3
 80050d0:	b2ad      	uxth	r5, r5
 80050d2:	f418 7b80 	ands.w	fp, r8, #256	@ 0x100
 80050d6:	6a9a      	ldr	r2, [r3, #40]	@ 0x28
 80050d8:	f500 6e80 	add.w	lr, r0, #1024	@ 0x400
 80050dc:	4455      	add	r5, sl
 80050de:	d117      	bne.n	8005110 <HAL_PCD_IRQHandler+0x4c8>
 80050e0:	3502      	adds	r5, #2
 80050e2:	f83e 5015 	ldrh.w	r5, [lr, r5, lsl #1]
 80050e6:	f3c5 0509 	ubfx	r5, r5, #0, #10
 80050ea:	4295      	cmp	r5, r2
 80050ec:	d302      	bcc.n	80050f4 <HAL_PCD_IRQHandler+0x4ac>
 80050ee:	f8c3 b028 	str.w	fp, [r3, #40]	@ 0x28
 80050f2:	e7ce      	b.n	8005092 <HAL_PCD_IRQHandler+0x44a>
 80050f4:	1b52      	subs	r2, r2, r5
 80050f6:	629a      	str	r2, [r3, #40]	@ 0x28
 80050f8:	6a5a      	ldr	r2, [r3, #36]	@ 0x24
 80050fa:	f10c 0110 	add.w	r1, ip, #16
 80050fe:	442a      	add	r2, r5
 8005100:	625a      	str	r2, [r3, #36]	@ 0x24
 8005102:	6ada      	ldr	r2, [r3, #44]	@ 0x2c
 8005104:	4421      	add	r1, r4
 8005106:	442a      	add	r2, r5
 8005108:	62da      	str	r2, [r3, #44]	@ 0x2c
 800510a:	f001 fc7b 	bl	8006a04 <USB_EPStartXfer>
 800510e:	e5a9      	b.n	8004c64 <HAL_PCD_IRQHandler+0x1c>
 8005110:	f018 0c40 	ands.w	ip, r8, #64	@ 0x40
 8005114:	f408 4880 	and.w	r8, r8, #16384	@ 0x4000
 8005118:	f000 80e4 	beq.w	80052e4 <HAL_PCD_IRQHandler+0x69c>
 800511c:	3502      	adds	r5, #2
 800511e:	f83e 5015 	ldrh.w	r5, [lr, r5, lsl #1]
 8005122:	fa1f f888 	uxth.w	r8, r8
 8005126:	f3c5 0509 	ubfx	r5, r5, #0, #10
 800512a:	4295      	cmp	r5, r2
 800512c:	bf2c      	ite	cs
 800512e:	2200      	movcs	r2, #0
 8005130:	1b52      	subcc	r2, r2, r5
 8005132:	629a      	str	r2, [r3, #40]	@ 0x28
 8005134:	2a00      	cmp	r2, #0
 8005136:	d155      	bne.n	80051e4 <HAL_PCD_IRQHandler+0x59c>
 8005138:	2328      	movs	r3, #40	@ 0x28
 800513a:	fb03 4307 	mla	r3, r3, r7, r4
 800513e:	7c5b      	ldrb	r3, [r3, #17]
 8005140:	2b00      	cmp	r3, #0
 8005142:	d13d      	bne.n	80051c0 <HAL_PCD_IRQHandler+0x578>
 8005144:	f8b0 2050 	ldrh.w	r2, [r0, #80]	@ 0x50
 8005148:	f200 4504 	addw	r5, r0, #1028	@ 0x404
 800514c:	b292      	uxth	r2, r2
 800514e:	010b      	lsls	r3, r1, #4
 8005150:	4415      	add	r5, r2
 8005152:	5aea      	ldrh	r2, [r5, r3]
 8005154:	f3c2 0209 	ubfx	r2, r2, #0, #10
 8005158:	52ea      	strh	r2, [r5, r3]
 800515a:	5aea      	ldrh	r2, [r5, r3]
 800515c:	ea6f 4242 	mvn.w	r2, r2, lsl #17
 8005160:	ea6f 4252 	mvn.w	r2, r2, lsr #17
 8005164:	b292      	uxth	r2, r2
 8005166:	52ea      	strh	r2, [r5, r3]
 8005168:	f8b0 2050 	ldrh.w	r2, [r0, #80]	@ 0x50
 800516c:	f200 400c 	addw	r0, r0, #1036	@ 0x40c
 8005170:	b292      	uxth	r2, r2
 8005172:	4410      	add	r0, r2
 8005174:	5ac2      	ldrh	r2, [r0, r3]
 8005176:	f3c2 0209 	ubfx	r2, r2, #0, #10
 800517a:	52c2      	strh	r2, [r0, r3]
 800517c:	5ac2      	ldrh	r2, [r0, r3]
 800517e:	ea6f 4242 	mvn.w	r2, r2, lsl #17
 8005182:	ea6f 4252 	mvn.w	r2, r2, lsr #17
 8005186:	b292      	uxth	r2, r2
 8005188:	52c2      	strh	r2, [r0, r3]
 800518a:	4620      	mov	r0, r4
 800518c:	f7ff fa4f 	bl	800462e <HAL_PCD_DataInStageCallback>
 8005190:	f1b8 0f00 	cmp.w	r8, #0
 8005194:	f000 80e4 	beq.w	8005360 <HAL_PCD_IRQHandler+0x718>
 8005198:	2328      	movs	r3, #40	@ 0x28
 800519a:	fb03 4307 	mla	r3, r3, r7, r4
 800519e:	6822      	ldr	r2, [r4, #0]
 80051a0:	7c19      	ldrb	r1, [r3, #16]
 80051a2:	f832 3021 	ldrh.w	r3, [r2, r1, lsl #2]
 80051a6:	f423 43e0 	bic.w	r3, r3, #28672	@ 0x7000
 80051aa:	f023 0370 	bic.w	r3, r3, #112	@ 0x70
 80051ae:	041b      	lsls	r3, r3, #16
 80051b0:	0c1b      	lsrs	r3, r3, #16
 80051b2:	f443 4340 	orr.w	r3, r3, #49152	@ 0xc000
 80051b6:	f043 0380 	orr.w	r3, r3, #128	@ 0x80
 80051ba:	f822 3021 	strh.w	r3, [r2, r1, lsl #2]
 80051be:	e0cf      	b.n	8005360 <HAL_PCD_IRQHandler+0x718>
 80051c0:	2b01      	cmp	r3, #1
 80051c2:	d1e2      	bne.n	800518a <HAL_PCD_IRQHandler+0x542>
 80051c4:	f8b0 c050 	ldrh.w	ip, [r0, #80]	@ 0x50
 80051c8:	f200 4504 	addw	r5, r0, #1028	@ 0x404
 80051cc:	fa1f fc8c 	uxth.w	ip, ip
 80051d0:	4465      	add	r5, ip
 80051d2:	010b      	lsls	r3, r1, #4
 80051d4:	52ea      	strh	r2, [r5, r3]
 80051d6:	f8b0 5050 	ldrh.w	r5, [r0, #80]	@ 0x50
 80051da:	f200 400c 	addw	r0, r0, #1036	@ 0x40c
 80051de:	b2ad      	uxth	r5, r5
 80051e0:	4428      	add	r0, r5
 80051e2:	e7d1      	b.n	8005188 <HAL_PCD_IRQHandler+0x540>
 80051e4:	f1b8 0f00 	cmp.w	r8, #0
 80051e8:	d00d      	beq.n	8005206 <HAL_PCD_IRQHandler+0x5be>
 80051ea:	f830 2021 	ldrh.w	r2, [r0, r1, lsl #2]
 80051ee:	f422 42e0 	bic.w	r2, r2, #28672	@ 0x7000
 80051f2:	f022 0270 	bic.w	r2, r2, #112	@ 0x70
 80051f6:	0412      	lsls	r2, r2, #16
 80051f8:	0c12      	lsrs	r2, r2, #16
 80051fa:	f442 4240 	orr.w	r2, r2, #49152	@ 0xc000
 80051fe:	f042 0280 	orr.w	r2, r2, #128	@ 0x80
 8005202:	f820 2021 	strh.w	r2, [r0, r1, lsl #2]
 8005206:	f04f 0e28 	mov.w	lr, #40	@ 0x28
 800520a:	fb0e 4e07 	mla	lr, lr, r7, r4
 800520e:	f89e 2034 	ldrb.w	r2, [lr, #52]	@ 0x34
 8005212:	2a01      	cmp	r2, #1
 8005214:	f040 80a4 	bne.w	8005360 <HAL_PCD_IRQHandler+0x718>
 8005218:	f8de 2024 	ldr.w	r2, [lr, #36]	@ 0x24
 800521c:	eb02 0c05 	add.w	ip, r2, r5
 8005220:	f8ce c024 	str.w	ip, [lr, #36]	@ 0x24
 8005224:	6ada      	ldr	r2, [r3, #44]	@ 0x2c
 8005226:	442a      	add	r2, r5
 8005228:	62da      	str	r2, [r3, #44]	@ 0x2c
 800522a:	f8de 3030 	ldr.w	r3, [lr, #48]	@ 0x30
 800522e:	f8de 2020 	ldr.w	r2, [lr, #32]
 8005232:	4293      	cmp	r3, r2
 8005234:	d331      	bcc.n	800529a <HAL_PCD_IRQHandler+0x652>
 8005236:	1a9b      	subs	r3, r3, r2
 8005238:	f8ce 3030 	str.w	r3, [lr, #48]	@ 0x30
 800523c:	2328      	movs	r3, #40	@ 0x28
 800523e:	fb03 4307 	mla	r3, r3, r7, r4
 8005242:	7c5d      	ldrb	r5, [r3, #17]
 8005244:	b293      	uxth	r3, r2
 8005246:	2d00      	cmp	r5, #0
 8005248:	d141      	bne.n	80052ce <HAL_PCD_IRQHandler+0x686>
 800524a:	f8b0 e050 	ldrh.w	lr, [r0, #80]	@ 0x50
 800524e:	f200 4504 	addw	r5, r0, #1028	@ 0x404
 8005252:	fa1f fe8e 	uxth.w	lr, lr
 8005256:	4475      	add	r5, lr
 8005258:	0109      	lsls	r1, r1, #4
 800525a:	f835 e001 	ldrh.w	lr, [r5, r1]
 800525e:	2a3e      	cmp	r2, #62	@ 0x3e
 8005260:	f3ce 0e09 	ubfx	lr, lr, #0, #10
 8005264:	f825 e001 	strh.w	lr, [r5, r1]
 8005268:	d923      	bls.n	80052b2 <HAL_PCD_IRQHandler+0x66a>
 800526a:	ea4f 1e52 	mov.w	lr, r2, lsr #5
 800526e:	06d2      	lsls	r2, r2, #27
 8005270:	5a6a      	ldrh	r2, [r5, r1]
 8005272:	bf08      	it	eq
 8005274:	f10e 3eff 	addeq.w	lr, lr, #4294967295
 8005278:	b292      	uxth	r2, r2
 800527a:	ea42 228e 	orr.w	r2, r2, lr, lsl #10
 800527e:	ea6f 4242 	mvn.w	r2, r2, lsl #17
 8005282:	ea6f 4252 	mvn.w	r2, r2, lsr #17
 8005286:	b292      	uxth	r2, r2
 8005288:	526a      	strh	r2, [r5, r1]
 800528a:	2228      	movs	r2, #40	@ 0x28
 800528c:	fb02 4207 	mla	r2, r2, r7, r4
 8005290:	8b12      	ldrh	r2, [r2, #24]
 8005292:	4661      	mov	r1, ip
 8005294:	f001 fba6 	bl	80069e4 <USB_WritePMA>
 8005298:	e062      	b.n	8005360 <HAL_PCD_IRQHandler+0x718>
 800529a:	b91b      	cbnz	r3, 80052a4 <HAL_PCD_IRQHandler+0x65c>
 800529c:	462a      	mov	r2, r5
 800529e:	f88e 3034 	strb.w	r3, [lr, #52]	@ 0x34
 80052a2:	e7cb      	b.n	800523c <HAL_PCD_IRQHandler+0x5f4>
 80052a4:	2200      	movs	r2, #0
 80052a6:	f88e 2034 	strb.w	r2, [lr, #52]	@ 0x34
 80052aa:	f8ce 2030 	str.w	r2, [lr, #48]	@ 0x30
 80052ae:	461a      	mov	r2, r3
 80052b0:	e7c4      	b.n	800523c <HAL_PCD_IRQHandler+0x5f4>
 80052b2:	b90a      	cbnz	r2, 80052b8 <HAL_PCD_IRQHandler+0x670>
 80052b4:	5a6a      	ldrh	r2, [r5, r1]
 80052b6:	e7e2      	b.n	800527e <HAL_PCD_IRQHandler+0x636>
 80052b8:	f835 e001 	ldrh.w	lr, [r5, r1]
 80052bc:	f002 0801 	and.w	r8, r2, #1
 80052c0:	fa1f fe8e 	uxth.w	lr, lr
 80052c4:	eb08 0252 	add.w	r2, r8, r2, lsr #1
 80052c8:	ea4e 2282 	orr.w	r2, lr, r2, lsl #10
 80052cc:	e7db      	b.n	8005286 <HAL_PCD_IRQHandler+0x63e>
 80052ce:	2d01      	cmp	r5, #1
 80052d0:	d1db      	bne.n	800528a <HAL_PCD_IRQHandler+0x642>
 80052d2:	f8b0 5050 	ldrh.w	r5, [r0, #80]	@ 0x50
 80052d6:	f200 4204 	addw	r2, r0, #1028	@ 0x404
 80052da:	b2ad      	uxth	r5, r5
 80052dc:	442a      	add	r2, r5
 80052de:	0109      	lsls	r1, r1, #4
 80052e0:	5253      	strh	r3, [r2, r1]
 80052e2:	e7d2      	b.n	800528a <HAL_PCD_IRQHandler+0x642>
 80052e4:	3506      	adds	r5, #6
 80052e6:	f83e 5015 	ldrh.w	r5, [lr, r5, lsl #1]
 80052ea:	fa1f f888 	uxth.w	r8, r8
 80052ee:	f3c5 0509 	ubfx	r5, r5, #0, #10
 80052f2:	4295      	cmp	r5, r2
 80052f4:	bf8c      	ite	hi
 80052f6:	4662      	movhi	r2, ip
 80052f8:	1b52      	subls	r2, r2, r5
 80052fa:	629a      	str	r2, [r3, #40]	@ 0x28
 80052fc:	2a00      	cmp	r2, #0
 80052fe:	d157      	bne.n	80053b0 <HAL_PCD_IRQHandler+0x768>
 8005300:	2328      	movs	r3, #40	@ 0x28
 8005302:	fb03 4307 	mla	r3, r3, r7, r4
 8005306:	7c5b      	ldrb	r3, [r3, #17]
 8005308:	2b00      	cmp	r3, #0
 800530a:	d13f      	bne.n	800538c <HAL_PCD_IRQHandler+0x744>
 800530c:	f8b0 2050 	ldrh.w	r2, [r0, #80]	@ 0x50
 8005310:	f200 4504 	addw	r5, r0, #1028	@ 0x404
 8005314:	b292      	uxth	r2, r2
 8005316:	010b      	lsls	r3, r1, #4
 8005318:	4415      	add	r5, r2
 800531a:	5aea      	ldrh	r2, [r5, r3]
 800531c:	f3c2 0209 	ubfx	r2, r2, #0, #10
 8005320:	52ea      	strh	r2, [r5, r3]
 8005322:	5aea      	ldrh	r2, [r5, r3]
 8005324:	ea6f 4242 	mvn.w	r2, r2, lsl #17
 8005328:	ea6f 4252 	mvn.w	r2, r2, lsr #17
 800532c:	b292      	uxth	r2, r2
 800532e:	52ea      	strh	r2, [r5, r3]
 8005330:	f8b0 2050 	ldrh.w	r2, [r0, #80]	@ 0x50
 8005334:	f200 400c 	addw	r0, r0, #1036	@ 0x40c
 8005338:	b292      	uxth	r2, r2
 800533a:	4410      	add	r0, r2
 800533c:	5ac2      	ldrh	r2, [r0, r3]
 800533e:	f3c2 0209 	ubfx	r2, r2, #0, #10
 8005342:	52c2      	strh	r2, [r0, r3]
 8005344:	5ac2      	ldrh	r2, [r0, r3]
 8005346:	ea6f 4242 	mvn.w	r2, r2, lsl #17
 800534a:	ea6f 4252 	mvn.w	r2, r2, lsr #17
 800534e:	b292      	uxth	r2, r2
 8005350:	52c2      	strh	r2, [r0, r3]
 8005352:	4620      	mov	r0, r4
 8005354:	f7ff f96b 	bl	800462e <HAL_PCD_DataInStageCallback>
 8005358:	f1b8 0f00 	cmp.w	r8, #0
 800535c:	f43f af1c 	beq.w	8005198 <HAL_PCD_IRQHandler+0x550>
 8005360:	2328      	movs	r3, #40	@ 0x28
 8005362:	fb03 4707 	mla	r7, r3, r7, r4
 8005366:	6822      	ldr	r2, [r4, #0]
 8005368:	7c39      	ldrb	r1, [r7, #16]
 800536a:	f832 3021 	ldrh.w	r3, [r2, r1, lsl #2]
 800536e:	f423 43e0 	bic.w	r3, r3, #28672	@ 0x7000
 8005372:	f023 0340 	bic.w	r3, r3, #64	@ 0x40
 8005376:	041b      	lsls	r3, r3, #16
 8005378:	0c1b      	lsrs	r3, r3, #16
 800537a:	f083 0330 	eor.w	r3, r3, #48	@ 0x30
 800537e:	f443 4300 	orr.w	r3, r3, #32768	@ 0x8000
 8005382:	f043 0380 	orr.w	r3, r3, #128	@ 0x80
 8005386:	f822 3021 	strh.w	r3, [r2, r1, lsl #2]
 800538a:	e46b      	b.n	8004c64 <HAL_PCD_IRQHandler+0x1c>
 800538c:	2b01      	cmp	r3, #1
 800538e:	d1e0      	bne.n	8005352 <HAL_PCD_IRQHandler+0x70a>
 8005390:	f8b0 c050 	ldrh.w	ip, [r0, #80]	@ 0x50
 8005394:	f200 4504 	addw	r5, r0, #1028	@ 0x404
 8005398:	fa1f fc8c 	uxth.w	ip, ip
 800539c:	4465      	add	r5, ip
 800539e:	010b      	lsls	r3, r1, #4
 80053a0:	52ea      	strh	r2, [r5, r3]
 80053a2:	f8b0 5050 	ldrh.w	r5, [r0, #80]	@ 0x50
 80053a6:	f200 400c 	addw	r0, r0, #1036	@ 0x40c
 80053aa:	b2ad      	uxth	r5, r5
 80053ac:	4428      	add	r0, r5
 80053ae:	e7cf      	b.n	8005350 <HAL_PCD_IRQHandler+0x708>
 80053b0:	f1b8 0f00 	cmp.w	r8, #0
 80053b4:	d10d      	bne.n	80053d2 <HAL_PCD_IRQHandler+0x78a>
 80053b6:	f830 2021 	ldrh.w	r2, [r0, r1, lsl #2]
 80053ba:	f422 42e0 	bic.w	r2, r2, #28672	@ 0x7000
 80053be:	f022 0270 	bic.w	r2, r2, #112	@ 0x70
 80053c2:	0412      	lsls	r2, r2, #16
 80053c4:	0c12      	lsrs	r2, r2, #16
 80053c6:	f442 4240 	orr.w	r2, r2, #49152	@ 0xc000
 80053ca:	f042 0280 	orr.w	r2, r2, #128	@ 0x80
 80053ce:	f820 2021 	strh.w	r2, [r0, r1, lsl #2]
 80053d2:	f04f 0e28 	mov.w	lr, #40	@ 0x28
 80053d6:	fb0e 4e07 	mla	lr, lr, r7, r4
 80053da:	f89e 2034 	ldrb.w	r2, [lr, #52]	@ 0x34
 80053de:	2a01      	cmp	r2, #1
 80053e0:	d1be      	bne.n	8005360 <HAL_PCD_IRQHandler+0x718>
 80053e2:	f8de 2024 	ldr.w	r2, [lr, #36]	@ 0x24
 80053e6:	eb02 0c05 	add.w	ip, r2, r5
 80053ea:	f8ce c024 	str.w	ip, [lr, #36]	@ 0x24
 80053ee:	6ada      	ldr	r2, [r3, #44]	@ 0x2c
 80053f0:	442a      	add	r2, r5
 80053f2:	62da      	str	r2, [r3, #44]	@ 0x2c
 80053f4:	f8de 3030 	ldr.w	r3, [lr, #48]	@ 0x30
 80053f8:	f8de 2020 	ldr.w	r2, [lr, #32]
 80053fc:	4293      	cmp	r3, r2
 80053fe:	d32e      	bcc.n	800545e <HAL_PCD_IRQHandler+0x816>
 8005400:	1a9b      	subs	r3, r3, r2
 8005402:	f8ce 3030 	str.w	r3, [lr, #48]	@ 0x30
 8005406:	2328      	movs	r3, #40	@ 0x28
 8005408:	fb03 4307 	mla	r3, r3, r7, r4
 800540c:	7c5d      	ldrb	r5, [r3, #17]
 800540e:	b293      	uxth	r3, r2
 8005410:	2d00      	cmp	r5, #0
 8005412:	d13e      	bne.n	8005492 <HAL_PCD_IRQHandler+0x84a>
 8005414:	f8b0 e050 	ldrh.w	lr, [r0, #80]	@ 0x50
 8005418:	f200 450c 	addw	r5, r0, #1036	@ 0x40c
 800541c:	fa1f fe8e 	uxth.w	lr, lr
 8005420:	4475      	add	r5, lr
 8005422:	0109      	lsls	r1, r1, #4
 8005424:	f835 e001 	ldrh.w	lr, [r5, r1]
 8005428:	2a3e      	cmp	r2, #62	@ 0x3e
 800542a:	f3ce 0e09 	ubfx	lr, lr, #0, #10
 800542e:	f825 e001 	strh.w	lr, [r5, r1]
 8005432:	d920      	bls.n	8005476 <HAL_PCD_IRQHandler+0x82e>
 8005434:	ea4f 1e52 	mov.w	lr, r2, lsr #5
 8005438:	06d2      	lsls	r2, r2, #27
 800543a:	5a6a      	ldrh	r2, [r5, r1]
 800543c:	bf08      	it	eq
 800543e:	f10e 3eff 	addeq.w	lr, lr, #4294967295
 8005442:	b292      	uxth	r2, r2
 8005444:	ea42 228e 	orr.w	r2, r2, lr, lsl #10
 8005448:	ea6f 4242 	mvn.w	r2, r2, lsl #17
 800544c:	ea6f 4252 	mvn.w	r2, r2, lsr #17
 8005450:	b292      	uxth	r2, r2
 8005452:	526a      	strh	r2, [r5, r1]
 8005454:	2228      	movs	r2, #40	@ 0x28
 8005456:	fb02 4207 	mla	r2, r2, r7, r4
 800545a:	8b52      	ldrh	r2, [r2, #26]
 800545c:	e719      	b.n	8005292 <HAL_PCD_IRQHandler+0x64a>
 800545e:	b91b      	cbnz	r3, 8005468 <HAL_PCD_IRQHandler+0x820>
 8005460:	462a      	mov	r2, r5
 8005462:	f88e 3034 	strb.w	r3, [lr, #52]	@ 0x34
 8005466:	e7ce      	b.n	8005406 <HAL_PCD_IRQHandler+0x7be>
 8005468:	2200      	movs	r2, #0
 800546a:	f8ce 2030 	str.w	r2, [lr, #48]	@ 0x30
 800546e:	f88e 2034 	strb.w	r2, [lr, #52]	@ 0x34
 8005472:	461a      	mov	r2, r3
 8005474:	e7c7      	b.n	8005406 <HAL_PCD_IRQHandler+0x7be>
 8005476:	b90a      	cbnz	r2, 800547c <HAL_PCD_IRQHandler+0x834>
 8005478:	5a6a      	ldrh	r2, [r5, r1]
 800547a:	e7e5      	b.n	8005448 <HAL_PCD_IRQHandler+0x800>
 800547c:	f835 e001 	ldrh.w	lr, [r5, r1]
 8005480:	f002 0801 	and.w	r8, r2, #1
 8005484:	fa1f fe8e 	uxth.w	lr, lr
 8005488:	eb08 0252 	add.w	r2, r8, r2, lsr #1
 800548c:	ea4e 2282 	orr.w	r2, lr, r2, lsl #10
 8005490:	e7de      	b.n	8005450 <HAL_PCD_IRQHandler+0x808>
 8005492:	2d01      	cmp	r5, #1
 8005494:	d1de      	bne.n	8005454 <HAL_PCD_IRQHandler+0x80c>
 8005496:	f8b0 2050 	ldrh.w	r2, [r0, #80]	@ 0x50
 800549a:	f200 450c 	addw	r5, r0, #1036	@ 0x40c
 800549e:	b292      	uxth	r2, r2
 80054a0:	4415      	add	r5, r2
 80054a2:	010a      	lsls	r2, r1, #4
 80054a4:	52ab      	strh	r3, [r5, r2]
 80054a6:	e7d5      	b.n	8005454 <HAL_PCD_IRQHandler+0x80c>
 80054a8:	0542      	lsls	r2, r0, #21
 80054aa:	d512      	bpl.n	80054d2 <HAL_PCD_IRQHandler+0x88a>
 80054ac:	6822      	ldr	r2, [r4, #0]
 80054ae:	4620      	mov	r0, r4
 80054b0:	f8b2 3044 	ldrh.w	r3, [r2, #68]	@ 0x44
 80054b4:	f423 6380 	bic.w	r3, r3, #1024	@ 0x400
 80054b8:	041b      	lsls	r3, r3, #16
 80054ba:	0c1b      	lsrs	r3, r3, #16
 80054bc:	f8a2 3044 	strh.w	r3, [r2, #68]	@ 0x44
 80054c0:	f7ff f8c1 	bl	8004646 <HAL_PCD_ResetCallback>
 80054c4:	4629      	mov	r1, r5
 80054c6:	4620      	mov	r0, r4
 80054c8:	b007      	add	sp, #28
 80054ca:	e8bd 4ff0 	ldmia.w	sp!, {r4, r5, r6, r7, r8, r9, sl, fp, lr}
 80054ce:	f7ff bba8 	b.w	8004c22 <HAL_PCD_SetAddress>
 80054d2:	0443      	lsls	r3, r0, #17
 80054d4:	d50a      	bpl.n	80054ec <HAL_PCD_IRQHandler+0x8a4>
 80054d6:	6822      	ldr	r2, [r4, #0]
 80054d8:	f8b2 3044 	ldrh.w	r3, [r2, #68]	@ 0x44
 80054dc:	f423 4380 	bic.w	r3, r3, #16384	@ 0x4000
 80054e0:	041b      	lsls	r3, r3, #16
 80054e2:	0c1b      	lsrs	r3, r3, #16
 80054e4:	f8a2 3044 	strh.w	r3, [r2, #68]	@ 0x44
 80054e8:	f7ff bbc1 	b.w	8004c6e <HAL_PCD_IRQHandler+0x26>
 80054ec:	0487      	lsls	r7, r0, #18
 80054ee:	d505      	bpl.n	80054fc <HAL_PCD_IRQHandler+0x8b4>
 80054f0:	6822      	ldr	r2, [r4, #0]
 80054f2:	f8b2 3044 	ldrh.w	r3, [r2, #68]	@ 0x44
 80054f6:	f423 5300 	bic.w	r3, r3, #8192	@ 0x2000
 80054fa:	e7f1      	b.n	80054e0 <HAL_PCD_IRQHandler+0x898>
 80054fc:	04c6      	lsls	r6, r0, #19
 80054fe:	d519      	bpl.n	8005534 <HAL_PCD_IRQHandler+0x8ec>
 8005500:	6822      	ldr	r2, [r4, #0]
 8005502:	4620      	mov	r0, r4
 8005504:	f8b2 3040 	ldrh.w	r3, [r2, #64]	@ 0x40
 8005508:	f023 0304 	bic.w	r3, r3, #4
 800550c:	041b      	lsls	r3, r3, #16
 800550e:	0c1b      	lsrs	r3, r3, #16
 8005510:	f8a2 3040 	strh.w	r3, [r2, #64]	@ 0x40
 8005514:	f8b2 3040 	ldrh.w	r3, [r2, #64]	@ 0x40
 8005518:	f023 0308 	bic.w	r3, r3, #8
 800551c:	041b      	lsls	r3, r3, #16
 800551e:	0c1b      	lsrs	r3, r3, #16
 8005520:	f8a2 3040 	strh.w	r3, [r2, #64]	@ 0x40
 8005524:	f7ff f8b2 	bl	800468c <HAL_PCD_ResumeCallback>
 8005528:	6822      	ldr	r2, [r4, #0]
 800552a:	f8b2 3044 	ldrh.w	r3, [r2, #68]	@ 0x44
 800552e:	f423 5380 	bic.w	r3, r3, #4096	@ 0x1000
 8005532:	e7d5      	b.n	80054e0 <HAL_PCD_IRQHandler+0x898>
 8005534:	0505      	lsls	r5, r0, #20
 8005536:	d548      	bpl.n	80055ca <HAL_PCD_IRQHandler+0x982>
 8005538:	6823      	ldr	r3, [r4, #0]
 800553a:	ad02      	add	r5, sp, #8
 800553c:	4618      	mov	r0, r3
 800553e:	4629      	mov	r1, r5
 8005540:	461a      	mov	r2, r3
 8005542:	f103 0620 	add.w	r6, r3, #32
 8005546:	f832 7b04 	ldrh.w	r7, [r2], #4
 800554a:	4296      	cmp	r6, r2
 800554c:	f821 7b02 	strh.w	r7, [r1], #2
 8005550:	d1f9      	bne.n	8005546 <HAL_PCD_IRQHandler+0x8fe>
 8005552:	f8b3 2040 	ldrh.w	r2, [r3, #64]	@ 0x40
 8005556:	b292      	uxth	r2, r2
 8005558:	f042 0201 	orr.w	r2, r2, #1
 800555c:	f8a3 2040 	strh.w	r2, [r3, #64]	@ 0x40
 8005560:	f8b3 2040 	ldrh.w	r2, [r3, #64]	@ 0x40
 8005564:	f022 0201 	bic.w	r2, r2, #1
 8005568:	0412      	lsls	r2, r2, #16
 800556a:	0c12      	lsrs	r2, r2, #16
 800556c:	f8a3 2040 	strh.w	r2, [r3, #64]	@ 0x40
 8005570:	f8b3 2044 	ldrh.w	r2, [r3, #68]	@ 0x44
 8005574:	0551      	lsls	r1, r2, #21
 8005576:	d5fb      	bpl.n	8005570 <HAL_PCD_IRQHandler+0x928>
 8005578:	f8b3 2044 	ldrh.w	r2, [r3, #68]	@ 0x44
 800557c:	f422 6280 	bic.w	r2, r2, #1024	@ 0x400
 8005580:	0412      	lsls	r2, r2, #16
 8005582:	0c12      	lsrs	r2, r2, #16
 8005584:	f8a3 2044 	strh.w	r2, [r3, #68]	@ 0x44
 8005588:	f835 2b02 	ldrh.w	r2, [r5], #2
 800558c:	f820 2b04 	strh.w	r2, [r0], #4
 8005590:	4286      	cmp	r6, r0
 8005592:	d1f9      	bne.n	8005588 <HAL_PCD_IRQHandler+0x940>
 8005594:	f8b3 2040 	ldrh.w	r2, [r3, #64]	@ 0x40
 8005598:	4620      	mov	r0, r4
 800559a:	b292      	uxth	r2, r2
 800559c:	f042 0208 	orr.w	r2, r2, #8
 80055a0:	f8a3 2040 	strh.w	r2, [r3, #64]	@ 0x40
 80055a4:	f8b3 2044 	ldrh.w	r2, [r3, #68]	@ 0x44
 80055a8:	f422 6200 	bic.w	r2, r2, #2048	@ 0x800
 80055ac:	0412      	lsls	r2, r2, #16
 80055ae:	0c12      	lsrs	r2, r2, #16
 80055b0:	f8a3 2044 	strh.w	r2, [r3, #68]	@ 0x44
 80055b4:	f8b3 2040 	ldrh.w	r2, [r3, #64]	@ 0x40
 80055b8:	b292      	uxth	r2, r2
 80055ba:	f042 0204 	orr.w	r2, r2, #4
 80055be:	f8a3 2040 	strh.w	r2, [r3, #64]	@ 0x40
 80055c2:	f7ff f853 	bl	800466c <HAL_PCD_SuspendCallback>
 80055c6:	f7ff bb52 	b.w	8004c6e <HAL_PCD_IRQHandler+0x26>
 80055ca:	0582      	lsls	r2, r0, #22
 80055cc:	d50d      	bpl.n	80055ea <HAL_PCD_IRQHandler+0x9a2>
 80055ce:	6822      	ldr	r2, [r4, #0]
 80055d0:	4620      	mov	r0, r4
 80055d2:	f8b2 3044 	ldrh.w	r3, [r2, #68]	@ 0x44
 80055d6:	f423 7300 	bic.w	r3, r3, #512	@ 0x200
 80055da:	041b      	lsls	r3, r3, #16
 80055dc:	0c1b      	lsrs	r3, r3, #16
 80055de:	f8a2 3044 	strh.w	r3, [r2, #68]	@ 0x44
 80055e2:	f7ff f82c 	bl	800463e <HAL_PCD_SOFCallback>
 80055e6:	f7ff bb42 	b.w	8004c6e <HAL_PCD_IRQHandler+0x26>
 80055ea:	05c3      	lsls	r3, r0, #23
 80055ec:	f57f ab3f 	bpl.w	8004c6e <HAL_PCD_IRQHandler+0x26>
 80055f0:	6822      	ldr	r2, [r4, #0]
 80055f2:	f8b2 3044 	ldrh.w	r3, [r2, #68]	@ 0x44
 80055f6:	f423 7380 	bic.w	r3, r3, #256	@ 0x100
 80055fa:	e771      	b.n	80054e0 <HAL_PCD_IRQHandler+0x898>

080055fc <HAL_PCD_EP_Open>:
 80055fc:	b570      	push	{r4, r5, r6, lr}
 80055fe:	2428      	movs	r4, #40	@ 0x28
 8005600:	4605      	mov	r5, r0
 8005602:	f001 0007 	and.w	r0, r1, #7
 8005606:	4344      	muls	r4, r0
 8005608:	f011 0f80 	tst.w	r1, #128	@ 0x80
 800560c:	bf14      	ite	ne
 800560e:	f104 0110 	addne.w	r1, r4, #16
 8005612:	f504 71a8 	addeq.w	r1, r4, #336	@ 0x150
 8005616:	eb05 0604 	add.w	r6, r5, r4
 800561a:	bf15      	itete	ne
 800561c:	2401      	movne	r4, #1
 800561e:	2400      	moveq	r4, #0
 8005620:	7474      	strbne	r4, [r6, #17]
 8005622:	f886 4151 	strbeq.w	r4, [r6, #337]	@ 0x151
 8005626:	bf14      	ite	ne
 8005628:	1949      	addne	r1, r1, r5
 800562a:	1949      	addeq	r1, r1, r5
 800562c:	2b02      	cmp	r3, #2
 800562e:	70cb      	strb	r3, [r1, #3]
 8005630:	bf08      	it	eq
 8005632:	2300      	moveq	r3, #0
 8005634:	7008      	strb	r0, [r1, #0]
 8005636:	bf08      	it	eq
 8005638:	710b      	strbeq	r3, [r1, #4]
 800563a:	610a      	str	r2, [r1, #16]
 800563c:	f895 3290 	ldrb.w	r3, [r5, #656]	@ 0x290
 8005640:	2b01      	cmp	r3, #1
 8005642:	d009      	beq.n	8005658 <HAL_PCD_EP_Open+0x5c>
 8005644:	2301      	movs	r3, #1
 8005646:	6828      	ldr	r0, [r5, #0]
 8005648:	f885 3290 	strb.w	r3, [r5, #656]	@ 0x290
 800564c:	f000 ff1e 	bl	800648c <USB_ActivateEndpoint>
 8005650:	2000      	movs	r0, #0
 8005652:	f885 0290 	strb.w	r0, [r5, #656]	@ 0x290
 8005656:	bd70      	pop	{r4, r5, r6, pc}
 8005658:	2002      	movs	r0, #2
 800565a:	e7fc      	b.n	8005656 <HAL_PCD_EP_Open+0x5a>

0800565c <HAL_PCD_EP_Close>:
 800565c:	2328      	movs	r3, #40	@ 0x28
 800565e:	f001 0207 	and.w	r2, r1, #7
 8005662:	4353      	muls	r3, r2
 8005664:	f011 0f80 	tst.w	r1, #128	@ 0x80
 8005668:	b510      	push	{r4, lr}
 800566a:	4604      	mov	r4, r0
 800566c:	bf18      	it	ne
 800566e:	f103 0110 	addne.w	r1, r3, #16
 8005672:	4418      	add	r0, r3
 8005674:	bf0b      	itete	eq
 8005676:	f503 71a8 	addeq.w	r1, r3, #336	@ 0x150
 800567a:	2301      	movne	r3, #1
 800567c:	2300      	moveq	r3, #0
 800567e:	1909      	addne	r1, r1, r4
 8005680:	bf0a      	itet	eq
 8005682:	1909      	addeq	r1, r1, r4
 8005684:	7443      	strbne	r3, [r0, #17]
 8005686:	f880 3151 	strbeq.w	r3, [r0, #337]	@ 0x151
 800568a:	700a      	strb	r2, [r1, #0]
 800568c:	f894 3290 	ldrb.w	r3, [r4, #656]	@ 0x290
 8005690:	2b01      	cmp	r3, #1
 8005692:	d009      	beq.n	80056a8 <HAL_PCD_EP_Close+0x4c>
 8005694:	2301      	movs	r3, #1
 8005696:	6820      	ldr	r0, [r4, #0]
 8005698:	f884 3290 	strb.w	r3, [r4, #656]	@ 0x290
 800569c:	f001 f856 	bl	800674c <USB_DeactivateEndpoint>
 80056a0:	2000      	movs	r0, #0
 80056a2:	f884 0290 	strb.w	r0, [r4, #656]	@ 0x290
 80056a6:	bd10      	pop	{r4, pc}
 80056a8:	2002      	movs	r0, #2
 80056aa:	e7fc      	b.n	80056a6 <HAL_PCD_EP_Close+0x4a>

080056ac <HAL_PCD_EP_Receive>:
 80056ac:	b570      	push	{r4, r5, r6, lr}
 80056ae:	2428      	movs	r4, #40	@ 0x28
 80056b0:	2600      	movs	r6, #0
 80056b2:	f001 0107 	and.w	r1, r1, #7
 80056b6:	434c      	muls	r4, r1
 80056b8:	1905      	adds	r5, r0, r4
 80056ba:	f885 1150 	strb.w	r1, [r5, #336]	@ 0x150
 80056be:	f885 6151 	strb.w	r6, [r5, #337]	@ 0x151
 80056c2:	f504 71a8 	add.w	r1, r4, #336	@ 0x150
 80056c6:	4401      	add	r1, r0
 80056c8:	e9c5 2359 	strd	r2, r3, [r5, #356]	@ 0x164
 80056cc:	f8c5 616c 	str.w	r6, [r5, #364]	@ 0x16c
 80056d0:	6800      	ldr	r0, [r0, #0]
 80056d2:	f001 f997 	bl	8006a04 <USB_EPStartXfer>
 80056d6:	4630      	mov	r0, r6
 80056d8:	bd70      	pop	{r4, r5, r6, pc}

080056da <HAL_PCD_EP_GetRxCount>:
 80056da:	2328      	movs	r3, #40	@ 0x28
 80056dc:	f001 0107 	and.w	r1, r1, #7
 80056e0:	fb03 0001 	mla	r0, r3, r1, r0
 80056e4:	f8d0 016c 	ldr.w	r0, [r0, #364]	@ 0x16c
 80056e8:	4770      	bx	lr

080056ea <HAL_PCD_EP_Transmit>:
 80056ea:	b570      	push	{r4, r5, r6, lr}
 80056ec:	2528      	movs	r5, #40	@ 0x28
 80056ee:	f001 0107 	and.w	r1, r1, #7
 80056f2:	434d      	muls	r5, r1
 80056f4:	1944      	adds	r4, r0, r5
 80056f6:	e9c4 2309 	strd	r2, r3, [r4, #36]	@ 0x24
 80056fa:	2201      	movs	r2, #1
 80056fc:	2600      	movs	r6, #0
 80056fe:	7421      	strb	r1, [r4, #16]
 8005700:	f884 2034 	strb.w	r2, [r4, #52]	@ 0x34
 8005704:	7462      	strb	r2, [r4, #17]
 8005706:	f105 0110 	add.w	r1, r5, #16
 800570a:	4401      	add	r1, r0
 800570c:	6323      	str	r3, [r4, #48]	@ 0x30
 800570e:	62e6      	str	r6, [r4, #44]	@ 0x2c
 8005710:	6800      	ldr	r0, [r0, #0]
 8005712:	f001 f977 	bl	8006a04 <USB_EPStartXfer>
 8005716:	4630      	mov	r0, r6
 8005718:	bd70      	pop	{r4, r5, r6, pc}

0800571a <HAL_PCD_EP_SetStall>:
 800571a:	b538      	push	{r3, r4, r5, lr}
 800571c:	7903      	ldrb	r3, [r0, #4]
 800571e:	f001 0507 	and.w	r5, r1, #7
 8005722:	42ab      	cmp	r3, r5
 8005724:	4604      	mov	r4, r0
 8005726:	d32a      	bcc.n	800577e <HAL_PCD_EP_SetStall+0x64>
 8005728:	f011 0f80 	tst.w	r1, #128	@ 0x80
 800572c:	f04f 0328 	mov.w	r3, #40	@ 0x28
 8005730:	d01c      	beq.n	800576c <HAL_PCD_EP_SetStall+0x52>
 8005732:	2201      	movs	r2, #1
 8005734:	436b      	muls	r3, r5
 8005736:	f103 0110 	add.w	r1, r3, #16
 800573a:	4403      	add	r3, r0
 800573c:	4401      	add	r1, r0
 800573e:	745a      	strb	r2, [r3, #17]
 8005740:	2301      	movs	r3, #1
 8005742:	700d      	strb	r5, [r1, #0]
 8005744:	708b      	strb	r3, [r1, #2]
 8005746:	f894 2290 	ldrb.w	r2, [r4, #656]	@ 0x290
 800574a:	429a      	cmp	r2, r3
 800574c:	d019      	beq.n	8005782 <HAL_PCD_EP_SetStall+0x68>
 800574e:	6820      	ldr	r0, [r4, #0]
 8005750:	f884 3290 	strb.w	r3, [r4, #656]	@ 0x290
 8005754:	f001 f8cd 	bl	80068f2 <USB_EPSetStall>
 8005758:	b925      	cbnz	r5, 8005764 <HAL_PCD_EP_SetStall+0x4a>
 800575a:	6820      	ldr	r0, [r4, #0]
 800575c:	f504 7126 	add.w	r1, r4, #664	@ 0x298
 8005760:	f001 f93e 	bl	80069e0 <USB_EP0_OutStart>
 8005764:	2000      	movs	r0, #0
 8005766:	f884 0290 	strb.w	r0, [r4, #656]	@ 0x290
 800576a:	bd38      	pop	{r3, r4, r5, pc}
 800576c:	2200      	movs	r2, #0
 800576e:	434b      	muls	r3, r1
 8005770:	f503 71a8 	add.w	r1, r3, #336	@ 0x150
 8005774:	4403      	add	r3, r0
 8005776:	4401      	add	r1, r0
 8005778:	f883 2151 	strb.w	r2, [r3, #337]	@ 0x151
 800577c:	e7e0      	b.n	8005740 <HAL_PCD_EP_SetStall+0x26>
 800577e:	2001      	movs	r0, #1
 8005780:	e7f3      	b.n	800576a <HAL_PCD_EP_SetStall+0x50>
 8005782:	2002      	movs	r0, #2
 8005784:	e7f1      	b.n	800576a <HAL_PCD_EP_SetStall+0x50>

08005786 <HAL_PCD_EP_ClrStall>:
 8005786:	b538      	push	{r3, r4, r5, lr}
 8005788:	7902      	ldrb	r2, [r0, #4]
 800578a:	f001 030f 	and.w	r3, r1, #15
 800578e:	429a      	cmp	r2, r3
 8005790:	4604      	mov	r4, r0
 8005792:	d326      	bcc.n	80057e2 <HAL_PCD_EP_ClrStall+0x5c>
 8005794:	2328      	movs	r3, #40	@ 0x28
 8005796:	f001 0207 	and.w	r2, r1, #7
 800579a:	4353      	muls	r3, r2
 800579c:	f011 0f80 	tst.w	r1, #128	@ 0x80
 80057a0:	bf14      	ite	ne
 80057a2:	f103 0110 	addne.w	r1, r3, #16
 80057a6:	f503 71a8 	addeq.w	r1, r3, #336	@ 0x150
 80057aa:	4418      	add	r0, r3
 80057ac:	f04f 0500 	mov.w	r5, #0
 80057b0:	bf15      	itete	ne
 80057b2:	2301      	movne	r3, #1
 80057b4:	2300      	moveq	r3, #0
 80057b6:	1909      	addne	r1, r1, r4
 80057b8:	1909      	addeq	r1, r1, r4
 80057ba:	bf14      	ite	ne
 80057bc:	7443      	strbne	r3, [r0, #17]
 80057be:	f880 3151 	strbeq.w	r3, [r0, #337]	@ 0x151
 80057c2:	708d      	strb	r5, [r1, #2]
 80057c4:	700a      	strb	r2, [r1, #0]
 80057c6:	f894 3290 	ldrb.w	r3, [r4, #656]	@ 0x290
 80057ca:	2b01      	cmp	r3, #1
 80057cc:	d00b      	beq.n	80057e6 <HAL_PCD_EP_ClrStall+0x60>
 80057ce:	2301      	movs	r3, #1
 80057d0:	6820      	ldr	r0, [r4, #0]
 80057d2:	f884 3290 	strb.w	r3, [r4, #656]	@ 0x290
 80057d6:	f001 f8ac 	bl	8006932 <USB_EPClearStall>
 80057da:	4628      	mov	r0, r5
 80057dc:	f884 5290 	strb.w	r5, [r4, #656]	@ 0x290
 80057e0:	bd38      	pop	{r3, r4, r5, pc}
 80057e2:	2001      	movs	r0, #1
 80057e4:	e7fc      	b.n	80057e0 <HAL_PCD_EP_ClrStall+0x5a>
 80057e6:	2002      	movs	r0, #2
 80057e8:	e7fa      	b.n	80057e0 <HAL_PCD_EP_ClrStall+0x5a>

080057ea <HAL_PCDEx_PMAConfig>:
 80057ea:	b510      	push	{r4, lr}
 80057ec:	2428      	movs	r4, #40	@ 0x28
 80057ee:	f011 0f80 	tst.w	r1, #128	@ 0x80
 80057f2:	bf1b      	ittet	ne
 80057f4:	f001 0107 	andne.w	r1, r1, #7
 80057f8:	fb04 0001 	mlane	r0, r4, r1, r0
 80057fc:	fb04 0001 	mlaeq	r0, r4, r1, r0
 8005800:	3010      	addne	r0, #16
 8005802:	bf08      	it	eq
 8005804:	f500 70a8 	addeq.w	r0, r0, #336	@ 0x150
 8005808:	b299      	uxth	r1, r3
 800580a:	b91a      	cbnz	r2, 8005814 <HAL_PCDEx_PMAConfig+0x2a>
 800580c:	7302      	strb	r2, [r0, #12]
 800580e:	80c1      	strh	r1, [r0, #6]
 8005810:	2000      	movs	r0, #0
 8005812:	bd10      	pop	{r4, pc}
 8005814:	2201      	movs	r2, #1
 8005816:	6083      	str	r3, [r0, #8]
 8005818:	7302      	strb	r2, [r0, #12]
 800581a:	e7f9      	b.n	8005810 <HAL_PCDEx_PMAConfig+0x26>

0800581c <HAL_RCC_OscConfig>:
 800581c:	e92d 41f3 	stmdb	sp!, {r0, r1, r4, r5, r6, r7, r8, lr}
 8005820:	4605      	mov	r5, r0
 8005822:	b338      	cbz	r0, 8005874 <HAL_RCC_OscConfig+0x58>
 8005824:	6803      	ldr	r3, [r0, #0]
 8005826:	07db      	lsls	r3, r3, #31
 8005828:	d410      	bmi.n	800584c <HAL_RCC_OscConfig+0x30>
 800582a:	682b      	ldr	r3, [r5, #0]
 800582c:	079f      	lsls	r7, r3, #30
 800582e:	d45e      	bmi.n	80058ee <HAL_RCC_OscConfig+0xd2>
 8005830:	682b      	ldr	r3, [r5, #0]
 8005832:	0719      	lsls	r1, r3, #28
 8005834:	f100 8095 	bmi.w	8005962 <HAL_RCC_OscConfig+0x146>
 8005838:	682b      	ldr	r3, [r5, #0]
 800583a:	075a      	lsls	r2, r3, #29
 800583c:	f100 80c1 	bmi.w	80059c2 <HAL_RCC_OscConfig+0x1a6>
 8005840:	69eb      	ldr	r3, [r5, #28]
 8005842:	2b00      	cmp	r3, #0
 8005844:	f040 812c 	bne.w	8005aa0 <HAL_RCC_OscConfig+0x284>
 8005848:	2000      	movs	r0, #0
 800584a:	e029      	b.n	80058a0 <HAL_RCC_OscConfig+0x84>
 800584c:	4c90      	ldr	r4, [pc, #576]	@ (8005a90 <HAL_RCC_OscConfig+0x274>)
 800584e:	6863      	ldr	r3, [r4, #4]
 8005850:	f003 030c 	and.w	r3, r3, #12
 8005854:	2b04      	cmp	r3, #4
 8005856:	d007      	beq.n	8005868 <HAL_RCC_OscConfig+0x4c>
 8005858:	6863      	ldr	r3, [r4, #4]
 800585a:	f003 030c 	and.w	r3, r3, #12
 800585e:	2b08      	cmp	r3, #8
 8005860:	d10a      	bne.n	8005878 <HAL_RCC_OscConfig+0x5c>
 8005862:	6863      	ldr	r3, [r4, #4]
 8005864:	03de      	lsls	r6, r3, #15
 8005866:	d507      	bpl.n	8005878 <HAL_RCC_OscConfig+0x5c>
 8005868:	6823      	ldr	r3, [r4, #0]
 800586a:	039c      	lsls	r4, r3, #14
 800586c:	d5dd      	bpl.n	800582a <HAL_RCC_OscConfig+0xe>
 800586e:	686b      	ldr	r3, [r5, #4]
 8005870:	2b00      	cmp	r3, #0
 8005872:	d1da      	bne.n	800582a <HAL_RCC_OscConfig+0xe>
 8005874:	2001      	movs	r0, #1
 8005876:	e013      	b.n	80058a0 <HAL_RCC_OscConfig+0x84>
 8005878:	686b      	ldr	r3, [r5, #4]
 800587a:	f5b3 3f80 	cmp.w	r3, #65536	@ 0x10000
 800587e:	d112      	bne.n	80058a6 <HAL_RCC_OscConfig+0x8a>
 8005880:	6823      	ldr	r3, [r4, #0]
 8005882:	f443 3380 	orr.w	r3, r3, #65536	@ 0x10000
 8005886:	6023      	str	r3, [r4, #0]
 8005888:	f7fe fff4 	bl	8004874 <HAL_GetTick>
 800588c:	4606      	mov	r6, r0
 800588e:	6823      	ldr	r3, [r4, #0]
 8005890:	0398      	lsls	r0, r3, #14
 8005892:	d4ca      	bmi.n	800582a <HAL_RCC_OscConfig+0xe>
 8005894:	f7fe ffee 	bl	8004874 <HAL_GetTick>
 8005898:	1b80      	subs	r0, r0, r6
 800589a:	2864      	cmp	r0, #100	@ 0x64
 800589c:	d9f7      	bls.n	800588e <HAL_RCC_OscConfig+0x72>
 800589e:	2003      	movs	r0, #3
 80058a0:	b002      	add	sp, #8
 80058a2:	e8bd 81f0 	ldmia.w	sp!, {r4, r5, r6, r7, r8, pc}
 80058a6:	b99b      	cbnz	r3, 80058d0 <HAL_RCC_OscConfig+0xb4>
 80058a8:	6823      	ldr	r3, [r4, #0]
 80058aa:	f423 3380 	bic.w	r3, r3, #65536	@ 0x10000
 80058ae:	6023      	str	r3, [r4, #0]
 80058b0:	6823      	ldr	r3, [r4, #0]
 80058b2:	f423 2380 	bic.w	r3, r3, #262144	@ 0x40000
 80058b6:	6023      	str	r3, [r4, #0]
 80058b8:	f7fe ffdc 	bl	8004874 <HAL_GetTick>
 80058bc:	4606      	mov	r6, r0
 80058be:	6823      	ldr	r3, [r4, #0]
 80058c0:	0399      	lsls	r1, r3, #14
 80058c2:	d5b2      	bpl.n	800582a <HAL_RCC_OscConfig+0xe>
 80058c4:	f7fe ffd6 	bl	8004874 <HAL_GetTick>
 80058c8:	1b80      	subs	r0, r0, r6
 80058ca:	2864      	cmp	r0, #100	@ 0x64
 80058cc:	d9f7      	bls.n	80058be <HAL_RCC_OscConfig+0xa2>
 80058ce:	e7e6      	b.n	800589e <HAL_RCC_OscConfig+0x82>
 80058d0:	f5b3 2fa0 	cmp.w	r3, #327680	@ 0x50000
 80058d4:	6823      	ldr	r3, [r4, #0]
 80058d6:	d103      	bne.n	80058e0 <HAL_RCC_OscConfig+0xc4>
 80058d8:	f443 2380 	orr.w	r3, r3, #262144	@ 0x40000
 80058dc:	6023      	str	r3, [r4, #0]
 80058de:	e7cf      	b.n	8005880 <HAL_RCC_OscConfig+0x64>
 80058e0:	f423 3380 	bic.w	r3, r3, #65536	@ 0x10000
 80058e4:	6023      	str	r3, [r4, #0]
 80058e6:	6823      	ldr	r3, [r4, #0]
 80058e8:	f423 2380 	bic.w	r3, r3, #262144	@ 0x40000
 80058ec:	e7cb      	b.n	8005886 <HAL_RCC_OscConfig+0x6a>
 80058ee:	4c68      	ldr	r4, [pc, #416]	@ (8005a90 <HAL_RCC_OscConfig+0x274>)
 80058f0:	6863      	ldr	r3, [r4, #4]
 80058f2:	f013 0f0c 	tst.w	r3, #12
 80058f6:	d007      	beq.n	8005908 <HAL_RCC_OscConfig+0xec>
 80058f8:	6863      	ldr	r3, [r4, #4]
 80058fa:	f003 030c 	and.w	r3, r3, #12
 80058fe:	2b08      	cmp	r3, #8
 8005900:	d110      	bne.n	8005924 <HAL_RCC_OscConfig+0x108>
 8005902:	6863      	ldr	r3, [r4, #4]
 8005904:	03da      	lsls	r2, r3, #15
 8005906:	d40d      	bmi.n	8005924 <HAL_RCC_OscConfig+0x108>
 8005908:	6823      	ldr	r3, [r4, #0]
 800590a:	079b      	lsls	r3, r3, #30
 800590c:	d502      	bpl.n	8005914 <HAL_RCC_OscConfig+0xf8>
 800590e:	692b      	ldr	r3, [r5, #16]
 8005910:	2b01      	cmp	r3, #1
 8005912:	d1af      	bne.n	8005874 <HAL_RCC_OscConfig+0x58>
 8005914:	6823      	ldr	r3, [r4, #0]
 8005916:	696a      	ldr	r2, [r5, #20]
 8005918:	f023 03f8 	bic.w	r3, r3, #248	@ 0xf8
 800591c:	ea43 03c2 	orr.w	r3, r3, r2, lsl #3
 8005920:	6023      	str	r3, [r4, #0]
 8005922:	e785      	b.n	8005830 <HAL_RCC_OscConfig+0x14>
 8005924:	692a      	ldr	r2, [r5, #16]
 8005926:	4b5b      	ldr	r3, [pc, #364]	@ (8005a94 <HAL_RCC_OscConfig+0x278>)
 8005928:	b16a      	cbz	r2, 8005946 <HAL_RCC_OscConfig+0x12a>
 800592a:	2201      	movs	r2, #1
 800592c:	601a      	str	r2, [r3, #0]
 800592e:	f7fe ffa1 	bl	8004874 <HAL_GetTick>
 8005932:	4606      	mov	r6, r0
 8005934:	6823      	ldr	r3, [r4, #0]
 8005936:	079f      	lsls	r7, r3, #30
 8005938:	d4ec      	bmi.n	8005914 <HAL_RCC_OscConfig+0xf8>
 800593a:	f7fe ff9b 	bl	8004874 <HAL_GetTick>
 800593e:	1b80      	subs	r0, r0, r6
 8005940:	2802      	cmp	r0, #2
 8005942:	d9f7      	bls.n	8005934 <HAL_RCC_OscConfig+0x118>
 8005944:	e7ab      	b.n	800589e <HAL_RCC_OscConfig+0x82>
 8005946:	601a      	str	r2, [r3, #0]
 8005948:	f7fe ff94 	bl	8004874 <HAL_GetTick>
 800594c:	4606      	mov	r6, r0
 800594e:	6823      	ldr	r3, [r4, #0]
 8005950:	0798      	lsls	r0, r3, #30
 8005952:	f57f af6d 	bpl.w	8005830 <HAL_RCC_OscConfig+0x14>
 8005956:	f7fe ff8d 	bl	8004874 <HAL_GetTick>
 800595a:	1b80      	subs	r0, r0, r6
 800595c:	2802      	cmp	r0, #2
 800595e:	d9f6      	bls.n	800594e <HAL_RCC_OscConfig+0x132>
 8005960:	e79d      	b.n	800589e <HAL_RCC_OscConfig+0x82>
 8005962:	69aa      	ldr	r2, [r5, #24]
 8005964:	4e4a      	ldr	r6, [pc, #296]	@ (8005a90 <HAL_RCC_OscConfig+0x274>)
 8005966:	4b4b      	ldr	r3, [pc, #300]	@ (8005a94 <HAL_RCC_OscConfig+0x278>)
 8005968:	b1e2      	cbz	r2, 80059a4 <HAL_RCC_OscConfig+0x188>
 800596a:	2201      	movs	r2, #1
 800596c:	f8c3 2480 	str.w	r2, [r3, #1152]	@ 0x480
 8005970:	f7fe ff80 	bl	8004874 <HAL_GetTick>
 8005974:	4604      	mov	r4, r0
 8005976:	6a73      	ldr	r3, [r6, #36]	@ 0x24
 8005978:	079b      	lsls	r3, r3, #30
 800597a:	d50d      	bpl.n	8005998 <HAL_RCC_OscConfig+0x17c>
 800597c:	f44f 52fa 	mov.w	r2, #8000	@ 0x1f40
 8005980:	4b45      	ldr	r3, [pc, #276]	@ (8005a98 <HAL_RCC_OscConfig+0x27c>)
 8005982:	681b      	ldr	r3, [r3, #0]
 8005984:	fbb3 f3f2 	udiv	r3, r3, r2
 8005988:	9301      	str	r3, [sp, #4]
 800598a:	bf00      	nop
 800598c:	9b01      	ldr	r3, [sp, #4]
 800598e:	1e5a      	subs	r2, r3, #1
 8005990:	9201      	str	r2, [sp, #4]
 8005992:	2b00      	cmp	r3, #0
 8005994:	d1f9      	bne.n	800598a <HAL_RCC_OscConfig+0x16e>
 8005996:	e74f      	b.n	8005838 <HAL_RCC_OscConfig+0x1c>
 8005998:	f7fe ff6c 	bl	8004874 <HAL_GetTick>
 800599c:	1b00      	subs	r0, r0, r4
 800599e:	2802      	cmp	r0, #2
 80059a0:	d9e9      	bls.n	8005976 <HAL_RCC_OscConfig+0x15a>
 80059a2:	e77c      	b.n	800589e <HAL_RCC_OscConfig+0x82>
 80059a4:	f8c3 2480 	str.w	r2, [r3, #1152]	@ 0x480
 80059a8:	f7fe ff64 	bl	8004874 <HAL_GetTick>
 80059ac:	4604      	mov	r4, r0
 80059ae:	6a73      	ldr	r3, [r6, #36]	@ 0x24
 80059b0:	079f      	lsls	r7, r3, #30
 80059b2:	f57f af41 	bpl.w	8005838 <HAL_RCC_OscConfig+0x1c>
 80059b6:	f7fe ff5d 	bl	8004874 <HAL_GetTick>
 80059ba:	1b00      	subs	r0, r0, r4
 80059bc:	2802      	cmp	r0, #2
 80059be:	d9f6      	bls.n	80059ae <HAL_RCC_OscConfig+0x192>
 80059c0:	e76d      	b.n	800589e <HAL_RCC_OscConfig+0x82>
 80059c2:	4c33      	ldr	r4, [pc, #204]	@ (8005a90 <HAL_RCC_OscConfig+0x274>)
 80059c4:	69e3      	ldr	r3, [r4, #28]
 80059c6:	00d8      	lsls	r0, r3, #3
 80059c8:	d424      	bmi.n	8005a14 <HAL_RCC_OscConfig+0x1f8>
 80059ca:	2701      	movs	r7, #1
 80059cc:	69e3      	ldr	r3, [r4, #28]
 80059ce:	f043 5380 	orr.w	r3, r3, #268435456	@ 0x10000000
 80059d2:	61e3      	str	r3, [r4, #28]
 80059d4:	69e3      	ldr	r3, [r4, #28]
 80059d6:	f003 5380 	and.w	r3, r3, #268435456	@ 0x10000000
 80059da:	9300      	str	r3, [sp, #0]
 80059dc:	9b00      	ldr	r3, [sp, #0]
 80059de:	4e2f      	ldr	r6, [pc, #188]	@ (8005a9c <HAL_RCC_OscConfig+0x280>)
 80059e0:	6833      	ldr	r3, [r6, #0]
 80059e2:	05d9      	lsls	r1, r3, #23
 80059e4:	d518      	bpl.n	8005a18 <HAL_RCC_OscConfig+0x1fc>
 80059e6:	68eb      	ldr	r3, [r5, #12]
 80059e8:	2b01      	cmp	r3, #1
 80059ea:	d126      	bne.n	8005a3a <HAL_RCC_OscConfig+0x21e>
 80059ec:	6a23      	ldr	r3, [r4, #32]
 80059ee:	f043 0301 	orr.w	r3, r3, #1
 80059f2:	6223      	str	r3, [r4, #32]
 80059f4:	f7fe ff3e 	bl	8004874 <HAL_GetTick>
 80059f8:	f241 3888 	movw	r8, #5000	@ 0x1388
 80059fc:	4606      	mov	r6, r0
 80059fe:	6a23      	ldr	r3, [r4, #32]
 8005a00:	079b      	lsls	r3, r3, #30
 8005a02:	d53f      	bpl.n	8005a84 <HAL_RCC_OscConfig+0x268>
 8005a04:	2f00      	cmp	r7, #0
 8005a06:	f43f af1b 	beq.w	8005840 <HAL_RCC_OscConfig+0x24>
 8005a0a:	69e3      	ldr	r3, [r4, #28]
 8005a0c:	f023 5380 	bic.w	r3, r3, #268435456	@ 0x10000000
 8005a10:	61e3      	str	r3, [r4, #28]
 8005a12:	e715      	b.n	8005840 <HAL_RCC_OscConfig+0x24>
 8005a14:	2700      	movs	r7, #0
 8005a16:	e7e2      	b.n	80059de <HAL_RCC_OscConfig+0x1c2>
 8005a18:	6833      	ldr	r3, [r6, #0]
 8005a1a:	f443 7380 	orr.w	r3, r3, #256	@ 0x100
 8005a1e:	6033      	str	r3, [r6, #0]
 8005a20:	f7fe ff28 	bl	8004874 <HAL_GetTick>
 8005a24:	4680      	mov	r8, r0
 8005a26:	6833      	ldr	r3, [r6, #0]
 8005a28:	05da      	lsls	r2, r3, #23
 8005a2a:	d4dc      	bmi.n	80059e6 <HAL_RCC_OscConfig+0x1ca>
 8005a2c:	f7fe ff22 	bl	8004874 <HAL_GetTick>
 8005a30:	eba0 0008 	sub.w	r0, r0, r8
 8005a34:	2864      	cmp	r0, #100	@ 0x64
 8005a36:	d9f6      	bls.n	8005a26 <HAL_RCC_OscConfig+0x20a>
 8005a38:	e731      	b.n	800589e <HAL_RCC_OscConfig+0x82>
 8005a3a:	b9ab      	cbnz	r3, 8005a68 <HAL_RCC_OscConfig+0x24c>
 8005a3c:	6a23      	ldr	r3, [r4, #32]
 8005a3e:	f241 3888 	movw	r8, #5000	@ 0x1388
 8005a42:	f023 0301 	bic.w	r3, r3, #1
 8005a46:	6223      	str	r3, [r4, #32]
 8005a48:	6a23      	ldr	r3, [r4, #32]
 8005a4a:	f023 0304 	bic.w	r3, r3, #4
 8005a4e:	6223      	str	r3, [r4, #32]
 8005a50:	f7fe ff10 	bl	8004874 <HAL_GetTick>
 8005a54:	4606      	mov	r6, r0
 8005a56:	6a23      	ldr	r3, [r4, #32]
 8005a58:	0798      	lsls	r0, r3, #30
 8005a5a:	d5d3      	bpl.n	8005a04 <HAL_RCC_OscConfig+0x1e8>
 8005a5c:	f7fe ff0a 	bl	8004874 <HAL_GetTick>
 8005a60:	1b80      	subs	r0, r0, r6
 8005a62:	4540      	cmp	r0, r8
 8005a64:	d9f7      	bls.n	8005a56 <HAL_RCC_OscConfig+0x23a>
 8005a66:	e71a      	b.n	800589e <HAL_RCC_OscConfig+0x82>
 8005a68:	2b05      	cmp	r3, #5
 8005a6a:	6a23      	ldr	r3, [r4, #32]
 8005a6c:	d103      	bne.n	8005a76 <HAL_RCC_OscConfig+0x25a>
 8005a6e:	f043 0304 	orr.w	r3, r3, #4
 8005a72:	6223      	str	r3, [r4, #32]
 8005a74:	e7ba      	b.n	80059ec <HAL_RCC_OscConfig+0x1d0>
 8005a76:	f023 0301 	bic.w	r3, r3, #1
 8005a7a:	6223      	str	r3, [r4, #32]
 8005a7c:	6a23      	ldr	r3, [r4, #32]
 8005a7e:	f023 0304 	bic.w	r3, r3, #4
 8005a82:	e7b6      	b.n	80059f2 <HAL_RCC_OscConfig+0x1d6>
 8005a84:	f7fe fef6 	bl	8004874 <HAL_GetTick>
 8005a88:	1b80      	subs	r0, r0, r6
 8005a8a:	4540      	cmp	r0, r8
 8005a8c:	d9b7      	bls.n	80059fe <HAL_RCC_OscConfig+0x1e2>
 8005a8e:	e706      	b.n	800589e <HAL_RCC_OscConfig+0x82>
 8005a90:	40021000 	.word	0x40021000
 8005a94:	42420000 	.word	0x42420000
 8005a98:	200000b4 	.word	0x200000b4
 8005a9c:	40007000 	.word	0x40007000
 8005aa0:	4c2a      	ldr	r4, [pc, #168]	@ (8005b4c <HAL_RCC_OscConfig+0x330>)
 8005aa2:	6862      	ldr	r2, [r4, #4]
 8005aa4:	f002 020c 	and.w	r2, r2, #12
 8005aa8:	2a08      	cmp	r2, #8
 8005aaa:	d03e      	beq.n	8005b2a <HAL_RCC_OscConfig+0x30e>
 8005aac:	2200      	movs	r2, #0
 8005aae:	2b02      	cmp	r3, #2
 8005ab0:	4b27      	ldr	r3, [pc, #156]	@ (8005b50 <HAL_RCC_OscConfig+0x334>)
 8005ab2:	661a      	str	r2, [r3, #96]	@ 0x60
 8005ab4:	d12c      	bne.n	8005b10 <HAL_RCC_OscConfig+0x2f4>
 8005ab6:	f7fe fedd 	bl	8004874 <HAL_GetTick>
 8005aba:	4606      	mov	r6, r0
 8005abc:	6823      	ldr	r3, [r4, #0]
 8005abe:	0199      	lsls	r1, r3, #6
 8005ac0:	d420      	bmi.n	8005b04 <HAL_RCC_OscConfig+0x2e8>
 8005ac2:	6a2b      	ldr	r3, [r5, #32]
 8005ac4:	f5b3 3f80 	cmp.w	r3, #65536	@ 0x10000
 8005ac8:	d105      	bne.n	8005ad6 <HAL_RCC_OscConfig+0x2ba>
 8005aca:	6862      	ldr	r2, [r4, #4]
 8005acc:	68a9      	ldr	r1, [r5, #8]
 8005ace:	f422 3200 	bic.w	r2, r2, #131072	@ 0x20000
 8005ad2:	430a      	orrs	r2, r1
 8005ad4:	6062      	str	r2, [r4, #4]
 8005ad6:	6a69      	ldr	r1, [r5, #36]	@ 0x24
 8005ad8:	6862      	ldr	r2, [r4, #4]
 8005ada:	430b      	orrs	r3, r1
 8005adc:	f422 1274 	bic.w	r2, r2, #3997696	@ 0x3d0000
 8005ae0:	4313      	orrs	r3, r2
 8005ae2:	2201      	movs	r2, #1
 8005ae4:	6063      	str	r3, [r4, #4]
 8005ae6:	4b1a      	ldr	r3, [pc, #104]	@ (8005b50 <HAL_RCC_OscConfig+0x334>)
 8005ae8:	661a      	str	r2, [r3, #96]	@ 0x60
 8005aea:	f7fe fec3 	bl	8004874 <HAL_GetTick>
 8005aee:	4605      	mov	r5, r0
 8005af0:	6823      	ldr	r3, [r4, #0]
 8005af2:	019a      	lsls	r2, r3, #6
 8005af4:	f53f aea8 	bmi.w	8005848 <HAL_RCC_OscConfig+0x2c>
 8005af8:	f7fe febc 	bl	8004874 <HAL_GetTick>
 8005afc:	1b40      	subs	r0, r0, r5
 8005afe:	2802      	cmp	r0, #2
 8005b00:	d9f6      	bls.n	8005af0 <HAL_RCC_OscConfig+0x2d4>
 8005b02:	e6cc      	b.n	800589e <HAL_RCC_OscConfig+0x82>
 8005b04:	f7fe feb6 	bl	8004874 <HAL_GetTick>
 8005b08:	1b80      	subs	r0, r0, r6
 8005b0a:	2802      	cmp	r0, #2
 8005b0c:	d9d6      	bls.n	8005abc <HAL_RCC_OscConfig+0x2a0>
 8005b0e:	e6c6      	b.n	800589e <HAL_RCC_OscConfig+0x82>
 8005b10:	f7fe feb0 	bl	8004874 <HAL_GetTick>
 8005b14:	4605      	mov	r5, r0
 8005b16:	6823      	ldr	r3, [r4, #0]
 8005b18:	019b      	lsls	r3, r3, #6
 8005b1a:	f57f ae95 	bpl.w	8005848 <HAL_RCC_OscConfig+0x2c>
 8005b1e:	f7fe fea9 	bl	8004874 <HAL_GetTick>
 8005b22:	1b40      	subs	r0, r0, r5
 8005b24:	2802      	cmp	r0, #2
 8005b26:	d9f6      	bls.n	8005b16 <HAL_RCC_OscConfig+0x2fa>
 8005b28:	e6b9      	b.n	800589e <HAL_RCC_OscConfig+0x82>
 8005b2a:	2b01      	cmp	r3, #1
 8005b2c:	f43f aea2 	beq.w	8005874 <HAL_RCC_OscConfig+0x58>
 8005b30:	6860      	ldr	r0, [r4, #4]
 8005b32:	6a2b      	ldr	r3, [r5, #32]
 8005b34:	f400 3280 	and.w	r2, r0, #65536	@ 0x10000
 8005b38:	429a      	cmp	r2, r3
 8005b3a:	f47f ae9b 	bne.w	8005874 <HAL_RCC_OscConfig+0x58>
 8005b3e:	6a6b      	ldr	r3, [r5, #36]	@ 0x24
 8005b40:	f400 1070 	and.w	r0, r0, #3932160	@ 0x3c0000
 8005b44:	1ac0      	subs	r0, r0, r3
 8005b46:	bf18      	it	ne
 8005b48:	2001      	movne	r0, #1
 8005b4a:	e6a9      	b.n	80058a0 <HAL_RCC_OscConfig+0x84>
 8005b4c:	40021000 	.word	0x40021000
 8005b50:	42420000 	.word	0x42420000

08005b54 <HAL_RCC_GetSysClockFreq>:
 8005b54:	4a0d      	ldr	r2, [pc, #52]	@ (8005b8c <HAL_RCC_GetSysClockFreq+0x38>)
 8005b56:	6853      	ldr	r3, [r2, #4]
 8005b58:	f003 010c 	and.w	r1, r3, #12
 8005b5c:	2908      	cmp	r1, #8
 8005b5e:	d112      	bne.n	8005b86 <HAL_RCC_GetSysClockFreq+0x32>
 8005b60:	480b      	ldr	r0, [pc, #44]	@ (8005b90 <HAL_RCC_GetSysClockFreq+0x3c>)
 8005b62:	f3c3 4183 	ubfx	r1, r3, #18, #4
 8005b66:	03db      	lsls	r3, r3, #15
 8005b68:	5c40      	ldrb	r0, [r0, r1]
 8005b6a:	d509      	bpl.n	8005b80 <HAL_RCC_GetSysClockFreq+0x2c>
 8005b6c:	6853      	ldr	r3, [r2, #4]
 8005b6e:	4a09      	ldr	r2, [pc, #36]	@ (8005b94 <HAL_RCC_GetSysClockFreq+0x40>)
 8005b70:	f3c3 4340 	ubfx	r3, r3, #17, #1
 8005b74:	4350      	muls	r0, r2
 8005b76:	4a08      	ldr	r2, [pc, #32]	@ (8005b98 <HAL_RCC_GetSysClockFreq+0x44>)
 8005b78:	5cd3      	ldrb	r3, [r2, r3]
 8005b7a:	fbb0 f0f3 	udiv	r0, r0, r3
 8005b7e:	4770      	bx	lr
 8005b80:	4b06      	ldr	r3, [pc, #24]	@ (8005b9c <HAL_RCC_GetSysClockFreq+0x48>)
 8005b82:	4358      	muls	r0, r3
 8005b84:	4770      	bx	lr
 8005b86:	4803      	ldr	r0, [pc, #12]	@ (8005b94 <HAL_RCC_GetSysClockFreq+0x40>)
 8005b88:	4770      	bx	lr
 8005b8a:	bf00      	nop
 8005b8c:	40021000 	.word	0x40021000
 8005b90:	0800a056 	.word	0x0800a056
 8005b94:	007a1200 	.word	0x007a1200
 8005b98:	0800a054 	.word	0x0800a054
 8005b9c:	003d0900 	.word	0x003d0900

08005ba0 <HAL_RCC_ClockConfig>:
 8005ba0:	e92d 41f0 	stmdb	sp!, {r4, r5, r6, r7, r8, lr}
 8005ba4:	460d      	mov	r5, r1
 8005ba6:	4604      	mov	r4, r0
 8005ba8:	b910      	cbnz	r0, 8005bb0 <HAL_RCC_ClockConfig+0x10>
 8005baa:	2001      	movs	r0, #1
 8005bac:	e8bd 81f0 	ldmia.w	sp!, {r4, r5, r6, r7, r8, pc}
 8005bb0:	4a44      	ldr	r2, [pc, #272]	@ (8005cc4 <HAL_RCC_ClockConfig+0x124>)
 8005bb2:	6813      	ldr	r3, [r2, #0]
 8005bb4:	f003 0307 	and.w	r3, r3, #7
 8005bb8:	428b      	cmp	r3, r1
 8005bba:	d328      	bcc.n	8005c0e <HAL_RCC_ClockConfig+0x6e>
 8005bbc:	6821      	ldr	r1, [r4, #0]
 8005bbe:	078e      	lsls	r6, r1, #30
 8005bc0:	d430      	bmi.n	8005c24 <HAL_RCC_ClockConfig+0x84>
 8005bc2:	07ca      	lsls	r2, r1, #31
 8005bc4:	d443      	bmi.n	8005c4e <HAL_RCC_ClockConfig+0xae>
 8005bc6:	4a3f      	ldr	r2, [pc, #252]	@ (8005cc4 <HAL_RCC_ClockConfig+0x124>)
 8005bc8:	6813      	ldr	r3, [r2, #0]
 8005bca:	f003 0307 	and.w	r3, r3, #7
 8005bce:	42ab      	cmp	r3, r5
 8005bd0:	d865      	bhi.n	8005c9e <HAL_RCC_ClockConfig+0xfe>
 8005bd2:	6822      	ldr	r2, [r4, #0]
 8005bd4:	4d3c      	ldr	r5, [pc, #240]	@ (8005cc8 <HAL_RCC_ClockConfig+0x128>)
 8005bd6:	f012 0f04 	tst.w	r2, #4
 8005bda:	d16c      	bne.n	8005cb6 <HAL_RCC_ClockConfig+0x116>
 8005bdc:	0713      	lsls	r3, r2, #28
 8005bde:	d506      	bpl.n	8005bee <HAL_RCC_ClockConfig+0x4e>
 8005be0:	686b      	ldr	r3, [r5, #4]
 8005be2:	6922      	ldr	r2, [r4, #16]
 8005be4:	f423 5360 	bic.w	r3, r3, #14336	@ 0x3800
 8005be8:	ea43 03c2 	orr.w	r3, r3, r2, lsl #3
 8005bec:	606b      	str	r3, [r5, #4]
 8005bee:	f7ff ffb1 	bl	8005b54 <HAL_RCC_GetSysClockFreq>
 8005bf2:	686b      	ldr	r3, [r5, #4]
 8005bf4:	4a35      	ldr	r2, [pc, #212]	@ (8005ccc <HAL_RCC_ClockConfig+0x12c>)
 8005bf6:	f3c3 1303 	ubfx	r3, r3, #4, #4
 8005bfa:	5cd3      	ldrb	r3, [r2, r3]
 8005bfc:	40d8      	lsrs	r0, r3
 8005bfe:	4b34      	ldr	r3, [pc, #208]	@ (8005cd0 <HAL_RCC_ClockConfig+0x130>)
 8005c00:	6018      	str	r0, [r3, #0]
 8005c02:	4b34      	ldr	r3, [pc, #208]	@ (8005cd4 <HAL_RCC_ClockConfig+0x134>)
 8005c04:	6818      	ldr	r0, [r3, #0]
 8005c06:	f7fe fdf3 	bl	80047f0 <HAL_InitTick>
 8005c0a:	2000      	movs	r0, #0
 8005c0c:	e7ce      	b.n	8005bac <HAL_RCC_ClockConfig+0xc>
 8005c0e:	6813      	ldr	r3, [r2, #0]
 8005c10:	f023 0307 	bic.w	r3, r3, #7
 8005c14:	430b      	orrs	r3, r1
 8005c16:	6013      	str	r3, [r2, #0]
 8005c18:	6813      	ldr	r3, [r2, #0]
 8005c1a:	f003 0307 	and.w	r3, r3, #7
 8005c1e:	428b      	cmp	r3, r1
 8005c20:	d1c3      	bne.n	8005baa <HAL_RCC_ClockConfig+0xa>
 8005c22:	e7cb      	b.n	8005bbc <HAL_RCC_ClockConfig+0x1c>
 8005c24:	4b28      	ldr	r3, [pc, #160]	@ (8005cc8 <HAL_RCC_ClockConfig+0x128>)
 8005c26:	f011 0f04 	tst.w	r1, #4
 8005c2a:	bf1e      	ittt	ne
 8005c2c:	685a      	ldrne	r2, [r3, #4]
 8005c2e:	f442 62e0 	orrne.w	r2, r2, #1792	@ 0x700
 8005c32:	605a      	strne	r2, [r3, #4]
 8005c34:	0708      	lsls	r0, r1, #28
 8005c36:	bf42      	ittt	mi
 8005c38:	685a      	ldrmi	r2, [r3, #4]
 8005c3a:	f442 5260 	orrmi.w	r2, r2, #14336	@ 0x3800
 8005c3e:	605a      	strmi	r2, [r3, #4]
 8005c40:	685a      	ldr	r2, [r3, #4]
 8005c42:	68a0      	ldr	r0, [r4, #8]
 8005c44:	f022 02f0 	bic.w	r2, r2, #240	@ 0xf0
 8005c48:	4302      	orrs	r2, r0
 8005c4a:	605a      	str	r2, [r3, #4]
 8005c4c:	e7b9      	b.n	8005bc2 <HAL_RCC_ClockConfig+0x22>
 8005c4e:	6862      	ldr	r2, [r4, #4]
 8005c50:	4e1d      	ldr	r6, [pc, #116]	@ (8005cc8 <HAL_RCC_ClockConfig+0x128>)
 8005c52:	2a01      	cmp	r2, #1
 8005c54:	6833      	ldr	r3, [r6, #0]
 8005c56:	d11a      	bne.n	8005c8e <HAL_RCC_ClockConfig+0xee>
 8005c58:	f413 3f00 	tst.w	r3, #131072	@ 0x20000
 8005c5c:	d0a5      	beq.n	8005baa <HAL_RCC_ClockConfig+0xa>
 8005c5e:	6873      	ldr	r3, [r6, #4]
 8005c60:	f241 3888 	movw	r8, #5000	@ 0x1388
 8005c64:	f023 0303 	bic.w	r3, r3, #3
 8005c68:	4313      	orrs	r3, r2
 8005c6a:	6073      	str	r3, [r6, #4]
 8005c6c:	f7fe fe02 	bl	8004874 <HAL_GetTick>
 8005c70:	4607      	mov	r7, r0
 8005c72:	6873      	ldr	r3, [r6, #4]
 8005c74:	6862      	ldr	r2, [r4, #4]
 8005c76:	f003 030c 	and.w	r3, r3, #12
 8005c7a:	ebb3 0f82 	cmp.w	r3, r2, lsl #2
 8005c7e:	d0a2      	beq.n	8005bc6 <HAL_RCC_ClockConfig+0x26>
 8005c80:	f7fe fdf8 	bl	8004874 <HAL_GetTick>
 8005c84:	1bc0      	subs	r0, r0, r7
 8005c86:	4540      	cmp	r0, r8
 8005c88:	d9f3      	bls.n	8005c72 <HAL_RCC_ClockConfig+0xd2>
 8005c8a:	2003      	movs	r0, #3
 8005c8c:	e78e      	b.n	8005bac <HAL_RCC_ClockConfig+0xc>
 8005c8e:	2a02      	cmp	r2, #2
 8005c90:	d102      	bne.n	8005c98 <HAL_RCC_ClockConfig+0xf8>
 8005c92:	f013 7f00 	tst.w	r3, #33554432	@ 0x2000000
 8005c96:	e7e1      	b.n	8005c5c <HAL_RCC_ClockConfig+0xbc>
 8005c98:	f013 0f02 	tst.w	r3, #2
 8005c9c:	e7de      	b.n	8005c5c <HAL_RCC_ClockConfig+0xbc>
 8005c9e:	6813      	ldr	r3, [r2, #0]
 8005ca0:	f023 0307 	bic.w	r3, r3, #7
 8005ca4:	432b      	orrs	r3, r5
 8005ca6:	6013      	str	r3, [r2, #0]
 8005ca8:	6813      	ldr	r3, [r2, #0]
 8005caa:	f003 0307 	and.w	r3, r3, #7
 8005cae:	42ab      	cmp	r3, r5
 8005cb0:	f47f af7b 	bne.w	8005baa <HAL_RCC_ClockConfig+0xa>
 8005cb4:	e78d      	b.n	8005bd2 <HAL_RCC_ClockConfig+0x32>
 8005cb6:	686b      	ldr	r3, [r5, #4]
 8005cb8:	68e1      	ldr	r1, [r4, #12]
 8005cba:	f423 63e0 	bic.w	r3, r3, #1792	@ 0x700
 8005cbe:	430b      	orrs	r3, r1
 8005cc0:	606b      	str	r3, [r5, #4]
 8005cc2:	e78b      	b.n	8005bdc <HAL_RCC_ClockConfig+0x3c>
 8005cc4:	40022000 	.word	0x40022000
 8005cc8:	40021000 	.word	0x40021000
 8005ccc:	0800a044 	.word	0x0800a044
 8005cd0:	200000b4 	.word	0x200000b4
 8005cd4:	200000bc 	.word	0x200000bc

08005cd8 <HAL_RCCEx_PeriphCLKConfig>:
 8005cd8:	6803      	ldr	r3, [r0, #0]
 8005cda:	e92d 41f3 	stmdb	sp!, {r0, r1, r4, r5, r6, r7, r8, lr}
 8005cde:	4605      	mov	r5, r0
 8005ce0:	07d8      	lsls	r0, r3, #31
 8005ce2:	d520      	bpl.n	8005d26 <HAL_RCCEx_PeriphCLKConfig+0x4e>
 8005ce4:	4c36      	ldr	r4, [pc, #216]	@ (8005dc0 <HAL_RCCEx_PeriphCLKConfig+0xe8>)
 8005ce6:	69e3      	ldr	r3, [r4, #28]
 8005ce8:	00d9      	lsls	r1, r3, #3
 8005cea:	d42a      	bmi.n	8005d42 <HAL_RCCEx_PeriphCLKConfig+0x6a>
 8005cec:	2601      	movs	r6, #1
 8005cee:	69e3      	ldr	r3, [r4, #28]
 8005cf0:	f043 5380 	orr.w	r3, r3, #268435456	@ 0x10000000
 8005cf4:	61e3      	str	r3, [r4, #28]
 8005cf6:	69e3      	ldr	r3, [r4, #28]
 8005cf8:	f003 5380 	and.w	r3, r3, #268435456	@ 0x10000000
 8005cfc:	9301      	str	r3, [sp, #4]
 8005cfe:	9b01      	ldr	r3, [sp, #4]
 8005d00:	4f30      	ldr	r7, [pc, #192]	@ (8005dc4 <HAL_RCCEx_PeriphCLKConfig+0xec>)
 8005d02:	683b      	ldr	r3, [r7, #0]
 8005d04:	05da      	lsls	r2, r3, #23
 8005d06:	d51e      	bpl.n	8005d46 <HAL_RCCEx_PeriphCLKConfig+0x6e>
 8005d08:	6a23      	ldr	r3, [r4, #32]
 8005d0a:	f413 7340 	ands.w	r3, r3, #768	@ 0x300
 8005d0e:	d12e      	bne.n	8005d6e <HAL_RCCEx_PeriphCLKConfig+0x96>
 8005d10:	6a23      	ldr	r3, [r4, #32]
 8005d12:	686a      	ldr	r2, [r5, #4]
 8005d14:	f423 7340 	bic.w	r3, r3, #768	@ 0x300
 8005d18:	4313      	orrs	r3, r2
 8005d1a:	6223      	str	r3, [r4, #32]
 8005d1c:	b11e      	cbz	r6, 8005d26 <HAL_RCCEx_PeriphCLKConfig+0x4e>
 8005d1e:	69e3      	ldr	r3, [r4, #28]
 8005d20:	f023 5380 	bic.w	r3, r3, #268435456	@ 0x10000000
 8005d24:	61e3      	str	r3, [r4, #28]
 8005d26:	682a      	ldr	r2, [r5, #0]
 8005d28:	0791      	lsls	r1, r2, #30
 8005d2a:	d506      	bpl.n	8005d3a <HAL_RCCEx_PeriphCLKConfig+0x62>
 8005d2c:	4924      	ldr	r1, [pc, #144]	@ (8005dc0 <HAL_RCCEx_PeriphCLKConfig+0xe8>)
 8005d2e:	68a8      	ldr	r0, [r5, #8]
 8005d30:	684b      	ldr	r3, [r1, #4]
 8005d32:	f423 4340 	bic.w	r3, r3, #49152	@ 0xc000
 8005d36:	4303      	orrs	r3, r0
 8005d38:	604b      	str	r3, [r1, #4]
 8005d3a:	06d3      	lsls	r3, r2, #27
 8005d3c:	d437      	bmi.n	8005dae <HAL_RCCEx_PeriphCLKConfig+0xd6>
 8005d3e:	2000      	movs	r0, #0
 8005d40:	e012      	b.n	8005d68 <HAL_RCCEx_PeriphCLKConfig+0x90>
 8005d42:	2600      	movs	r6, #0
 8005d44:	e7dc      	b.n	8005d00 <HAL_RCCEx_PeriphCLKConfig+0x28>
 8005d46:	683b      	ldr	r3, [r7, #0]
 8005d48:	f443 7380 	orr.w	r3, r3, #256	@ 0x100
 8005d4c:	603b      	str	r3, [r7, #0]
 8005d4e:	f7fe fd91 	bl	8004874 <HAL_GetTick>
 8005d52:	4680      	mov	r8, r0
 8005d54:	683b      	ldr	r3, [r7, #0]
 8005d56:	05db      	lsls	r3, r3, #23
 8005d58:	d4d6      	bmi.n	8005d08 <HAL_RCCEx_PeriphCLKConfig+0x30>
 8005d5a:	f7fe fd8b 	bl	8004874 <HAL_GetTick>
 8005d5e:	eba0 0008 	sub.w	r0, r0, r8
 8005d62:	2864      	cmp	r0, #100	@ 0x64
 8005d64:	d9f6      	bls.n	8005d54 <HAL_RCCEx_PeriphCLKConfig+0x7c>
 8005d66:	2003      	movs	r0, #3
 8005d68:	b002      	add	sp, #8
 8005d6a:	e8bd 81f0 	ldmia.w	sp!, {r4, r5, r6, r7, r8, pc}
 8005d6e:	686a      	ldr	r2, [r5, #4]
 8005d70:	f402 7240 	and.w	r2, r2, #768	@ 0x300
 8005d74:	429a      	cmp	r2, r3
 8005d76:	d0cb      	beq.n	8005d10 <HAL_RCCEx_PeriphCLKConfig+0x38>
 8005d78:	2001      	movs	r0, #1
 8005d7a:	4a13      	ldr	r2, [pc, #76]	@ (8005dc8 <HAL_RCCEx_PeriphCLKConfig+0xf0>)
 8005d7c:	6a23      	ldr	r3, [r4, #32]
 8005d7e:	f8c2 0440 	str.w	r0, [r2, #1088]	@ 0x440
 8005d82:	2000      	movs	r0, #0
 8005d84:	f423 7140 	bic.w	r1, r3, #768	@ 0x300
 8005d88:	07df      	lsls	r7, r3, #31
 8005d8a:	f8c2 0440 	str.w	r0, [r2, #1088]	@ 0x440
 8005d8e:	6221      	str	r1, [r4, #32]
 8005d90:	d5be      	bpl.n	8005d10 <HAL_RCCEx_PeriphCLKConfig+0x38>
 8005d92:	f7fe fd6f 	bl	8004874 <HAL_GetTick>
 8005d96:	f241 3888 	movw	r8, #5000	@ 0x1388
 8005d9a:	4607      	mov	r7, r0
 8005d9c:	6a23      	ldr	r3, [r4, #32]
 8005d9e:	0798      	lsls	r0, r3, #30
 8005da0:	d4b6      	bmi.n	8005d10 <HAL_RCCEx_PeriphCLKConfig+0x38>
 8005da2:	f7fe fd67 	bl	8004874 <HAL_GetTick>
 8005da6:	1bc0      	subs	r0, r0, r7
 8005da8:	4540      	cmp	r0, r8
 8005daa:	d9f7      	bls.n	8005d9c <HAL_RCCEx_PeriphCLKConfig+0xc4>
 8005dac:	e7db      	b.n	8005d66 <HAL_RCCEx_PeriphCLKConfig+0x8e>
 8005dae:	4a04      	ldr	r2, [pc, #16]	@ (8005dc0 <HAL_RCCEx_PeriphCLKConfig+0xe8>)
 8005db0:	68e9      	ldr	r1, [r5, #12]
 8005db2:	6853      	ldr	r3, [r2, #4]
 8005db4:	f423 0380 	bic.w	r3, r3, #4194304	@ 0x400000
 8005db8:	430b      	orrs	r3, r1
 8005dba:	6053      	str	r3, [r2, #4]
 8005dbc:	e7bf      	b.n	8005d3e <HAL_RCCEx_PeriphCLKConfig+0x66>
 8005dbe:	bf00      	nop
 8005dc0:	40021000 	.word	0x40021000
 8005dc4:	40007000 	.word	0x40007000
 8005dc8:	42420000 	.word	0x42420000

08005dcc <TIM_OC1_SetConfig>:
 8005dcc:	6a03      	ldr	r3, [r0, #32]
 8005dce:	6a02      	ldr	r2, [r0, #32]
 8005dd0:	b570      	push	{r4, r5, r6, lr}
 8005dd2:	f022 0201 	bic.w	r2, r2, #1
 8005dd6:	6202      	str	r2, [r0, #32]
 8005dd8:	6844      	ldr	r4, [r0, #4]
 8005dda:	6982      	ldr	r2, [r0, #24]
 8005ddc:	680d      	ldr	r5, [r1, #0]
 8005dde:	f022 0273 	bic.w	r2, r2, #115	@ 0x73
 8005de2:	432a      	orrs	r2, r5
 8005de4:	688d      	ldr	r5, [r1, #8]
 8005de6:	f023 0302 	bic.w	r3, r3, #2
 8005dea:	432b      	orrs	r3, r5
 8005dec:	4d0a      	ldr	r5, [pc, #40]	@ (8005e18 <TIM_OC1_SetConfig+0x4c>)
 8005dee:	42a8      	cmp	r0, r5
 8005df0:	d10b      	bne.n	8005e0a <TIM_OC1_SetConfig+0x3e>
 8005df2:	68cd      	ldr	r5, [r1, #12]
 8005df4:	f023 0308 	bic.w	r3, r3, #8
 8005df8:	432b      	orrs	r3, r5
 8005dfa:	f424 7440 	bic.w	r4, r4, #768	@ 0x300
 8005dfe:	e9d1 5605 	ldrd	r5, r6, [r1, #20]
 8005e02:	4335      	orrs	r5, r6
 8005e04:	f023 0304 	bic.w	r3, r3, #4
 8005e08:	432c      	orrs	r4, r5
 8005e0a:	6044      	str	r4, [r0, #4]
 8005e0c:	6182      	str	r2, [r0, #24]
 8005e0e:	684a      	ldr	r2, [r1, #4]
 8005e10:	6342      	str	r2, [r0, #52]	@ 0x34
 8005e12:	6203      	str	r3, [r0, #32]
 8005e14:	bd70      	pop	{r4, r5, r6, pc}
 8005e16:	bf00      	nop
 8005e18:	40012c00 	.word	0x40012c00

08005e1c <TIM_OC3_SetConfig>:
 8005e1c:	6a03      	ldr	r3, [r0, #32]
 8005e1e:	6a02      	ldr	r2, [r0, #32]
 8005e20:	b570      	push	{r4, r5, r6, lr}
 8005e22:	f422 7280 	bic.w	r2, r2, #256	@ 0x100
 8005e26:	6202      	str	r2, [r0, #32]
 8005e28:	6844      	ldr	r4, [r0, #4]
 8005e2a:	69c2      	ldr	r2, [r0, #28]
 8005e2c:	680d      	ldr	r5, [r1, #0]
 8005e2e:	f022 0273 	bic.w	r2, r2, #115	@ 0x73
 8005e32:	432a      	orrs	r2, r5
 8005e34:	688d      	ldr	r5, [r1, #8]
 8005e36:	f423 7300 	bic.w	r3, r3, #512	@ 0x200
 8005e3a:	ea43 2305 	orr.w	r3, r3, r5, lsl #8
 8005e3e:	4d0b      	ldr	r5, [pc, #44]	@ (8005e6c <TIM_OC3_SetConfig+0x50>)
 8005e40:	42a8      	cmp	r0, r5
 8005e42:	d10d      	bne.n	8005e60 <TIM_OC3_SetConfig+0x44>
 8005e44:	68cd      	ldr	r5, [r1, #12]
 8005e46:	f423 6300 	bic.w	r3, r3, #2048	@ 0x800
 8005e4a:	ea43 2305 	orr.w	r3, r3, r5, lsl #8
 8005e4e:	f424 5440 	bic.w	r4, r4, #12288	@ 0x3000
 8005e52:	e9d1 5605 	ldrd	r5, r6, [r1, #20]
 8005e56:	4335      	orrs	r5, r6
 8005e58:	f423 6380 	bic.w	r3, r3, #1024	@ 0x400
 8005e5c:	ea44 1405 	orr.w	r4, r4, r5, lsl #4
 8005e60:	6044      	str	r4, [r0, #4]
 8005e62:	61c2      	str	r2, [r0, #28]
 8005e64:	684a      	ldr	r2, [r1, #4]
 8005e66:	63c2      	str	r2, [r0, #60]	@ 0x3c
 8005e68:	6203      	str	r3, [r0, #32]
 8005e6a:	bd70      	pop	{r4, r5, r6, pc}
 8005e6c:	40012c00 	.word	0x40012c00

08005e70 <TIM_OC4_SetConfig>:
 8005e70:	6a03      	ldr	r3, [r0, #32]
 8005e72:	6a02      	ldr	r2, [r0, #32]
 8005e74:	b530      	push	{r4, r5, lr}
 8005e76:	f422 5280 	bic.w	r2, r2, #4096	@ 0x1000
 8005e7a:	6202      	str	r2, [r0, #32]
 8005e7c:	6844      	ldr	r4, [r0, #4]
 8005e7e:	69c2      	ldr	r2, [r0, #28]
 8005e80:	680d      	ldr	r5, [r1, #0]
 8005e82:	f422 42e6 	bic.w	r2, r2, #29440	@ 0x7300
 8005e86:	ea42 2205 	orr.w	r2, r2, r5, lsl #8
 8005e8a:	688d      	ldr	r5, [r1, #8]
 8005e8c:	f423 5300 	bic.w	r3, r3, #8192	@ 0x2000
 8005e90:	ea43 3305 	orr.w	r3, r3, r5, lsl #12
 8005e94:	4d06      	ldr	r5, [pc, #24]	@ (8005eb0 <TIM_OC4_SetConfig+0x40>)
 8005e96:	42a8      	cmp	r0, r5
 8005e98:	bf02      	ittt	eq
 8005e9a:	694d      	ldreq	r5, [r1, #20]
 8005e9c:	f424 4480 	biceq.w	r4, r4, #16384	@ 0x4000
 8005ea0:	ea44 1485 	orreq.w	r4, r4, r5, lsl #6
 8005ea4:	6044      	str	r4, [r0, #4]
 8005ea6:	61c2      	str	r2, [r0, #28]
 8005ea8:	684a      	ldr	r2, [r1, #4]
 8005eaa:	6402      	str	r2, [r0, #64]	@ 0x40
 8005eac:	6203      	str	r3, [r0, #32]
 8005eae:	bd30      	pop	{r4, r5, pc}
 8005eb0:	40012c00 	.word	0x40012c00

08005eb4 <TIM_Base_SetConfig>:
 8005eb4:	4a17      	ldr	r2, [pc, #92]	@ (8005f14 <TIM_Base_SetConfig+0x60>)
 8005eb6:	6803      	ldr	r3, [r0, #0]
 8005eb8:	4290      	cmp	r0, r2
 8005eba:	d00a      	beq.n	8005ed2 <TIM_Base_SetConfig+0x1e>
 8005ebc:	f1b0 4f80 	cmp.w	r0, #1073741824	@ 0x40000000
 8005ec0:	d007      	beq.n	8005ed2 <TIM_Base_SetConfig+0x1e>
 8005ec2:	f5a2 3294 	sub.w	r2, r2, #75776	@ 0x12800
 8005ec6:	4290      	cmp	r0, r2
 8005ec8:	d003      	beq.n	8005ed2 <TIM_Base_SetConfig+0x1e>
 8005eca:	f502 6280 	add.w	r2, r2, #1024	@ 0x400
 8005ece:	4290      	cmp	r0, r2
 8005ed0:	d107      	bne.n	8005ee2 <TIM_Base_SetConfig+0x2e>
 8005ed2:	684a      	ldr	r2, [r1, #4]
 8005ed4:	f023 0370 	bic.w	r3, r3, #112	@ 0x70
 8005ed8:	4313      	orrs	r3, r2
 8005eda:	68ca      	ldr	r2, [r1, #12]
 8005edc:	f423 7340 	bic.w	r3, r3, #768	@ 0x300
 8005ee0:	4313      	orrs	r3, r2
 8005ee2:	694a      	ldr	r2, [r1, #20]
 8005ee4:	f023 0380 	bic.w	r3, r3, #128	@ 0x80
 8005ee8:	4313      	orrs	r3, r2
 8005eea:	6003      	str	r3, [r0, #0]
 8005eec:	688b      	ldr	r3, [r1, #8]
 8005eee:	62c3      	str	r3, [r0, #44]	@ 0x2c
 8005ef0:	680b      	ldr	r3, [r1, #0]
 8005ef2:	6283      	str	r3, [r0, #40]	@ 0x28
 8005ef4:	4b07      	ldr	r3, [pc, #28]	@ (8005f14 <TIM_Base_SetConfig+0x60>)
 8005ef6:	4298      	cmp	r0, r3
 8005ef8:	bf04      	itt	eq
 8005efa:	690b      	ldreq	r3, [r1, #16]
 8005efc:	6303      	streq	r3, [r0, #48]	@ 0x30
 8005efe:	2301      	movs	r3, #1
 8005f00:	6143      	str	r3, [r0, #20]
 8005f02:	6903      	ldr	r3, [r0, #16]
 8005f04:	07db      	lsls	r3, r3, #31
 8005f06:	bf42      	ittt	mi
 8005f08:	6903      	ldrmi	r3, [r0, #16]
 8005f0a:	f023 0301 	bicmi.w	r3, r3, #1
 8005f0e:	6103      	strmi	r3, [r0, #16]
 8005f10:	4770      	bx	lr
 8005f12:	bf00      	nop
 8005f14:	40012c00 	.word	0x40012c00

08005f18 <HAL_TIM_Base_Init>:
 8005f18:	b510      	push	{r4, lr}
 8005f1a:	4604      	mov	r4, r0
 8005f1c:	b330      	cbz	r0, 8005f6c <HAL_TIM_Base_Init+0x54>
 8005f1e:	f890 303d 	ldrb.w	r3, [r0, #61]	@ 0x3d
 8005f22:	f003 02ff 	and.w	r2, r3, #255	@ 0xff
 8005f26:	b91b      	cbnz	r3, 8005f30 <HAL_TIM_Base_Init+0x18>
 8005f28:	f880 203c 	strb.w	r2, [r0, #60]	@ 0x3c
 8005f2c:	f7fc fd56 	bl	80029dc <HAL_TIM_Base_MspInit>
 8005f30:	2302      	movs	r3, #2
 8005f32:	6820      	ldr	r0, [r4, #0]
 8005f34:	f884 303d 	strb.w	r3, [r4, #61]	@ 0x3d
 8005f38:	1d21      	adds	r1, r4, #4
 8005f3a:	f7ff ffbb 	bl	8005eb4 <TIM_Base_SetConfig>
 8005f3e:	2301      	movs	r3, #1
 8005f40:	2000      	movs	r0, #0
 8005f42:	f884 3046 	strb.w	r3, [r4, #70]	@ 0x46
 8005f46:	f884 303e 	strb.w	r3, [r4, #62]	@ 0x3e
 8005f4a:	f884 303f 	strb.w	r3, [r4, #63]	@ 0x3f
 8005f4e:	f884 3040 	strb.w	r3, [r4, #64]	@ 0x40
 8005f52:	f884 3041 	strb.w	r3, [r4, #65]	@ 0x41
 8005f56:	f884 3042 	strb.w	r3, [r4, #66]	@ 0x42
 8005f5a:	f884 3043 	strb.w	r3, [r4, #67]	@ 0x43
 8005f5e:	f884 3044 	strb.w	r3, [r4, #68]	@ 0x44
 8005f62:	f884 3045 	strb.w	r3, [r4, #69]	@ 0x45
 8005f66:	f884 303d 	strb.w	r3, [r4, #61]	@ 0x3d
 8005f6a:	bd10      	pop	{r4, pc}
 8005f6c:	2001      	movs	r0, #1
 8005f6e:	e7fc      	b.n	8005f6a <HAL_TIM_Base_Init+0x52>

08005f70 <HAL_TIM_PWM_Init>:
 8005f70:	b510      	push	{r4, lr}
 8005f72:	4604      	mov	r4, r0
 8005f74:	b330      	cbz	r0, 8005fc4 <HAL_TIM_PWM_Init+0x54>
 8005f76:	f890 303d 	ldrb.w	r3, [r0, #61]	@ 0x3d
 8005f7a:	f003 02ff 	and.w	r2, r3, #255	@ 0xff
 8005f7e:	b91b      	cbnz	r3, 8005f88 <HAL_TIM_PWM_Init+0x18>
 8005f80:	f880 203c 	strb.w	r2, [r0, #60]	@ 0x3c
 8005f84:	f7fc fd3e 	bl	8002a04 <HAL_TIM_PWM_MspInit>
 8005f88:	2302      	movs	r3, #2
 8005f8a:	6820      	ldr	r0, [r4, #0]
 8005f8c:	f884 303d 	strb.w	r3, [r4, #61]	@ 0x3d
 8005f90:	1d21      	adds	r1, r4, #4
 8005f92:	f7ff ff8f 	bl	8005eb4 <TIM_Base_SetConfig>
 8005f96:	2301      	movs	r3, #1
 8005f98:	2000      	movs	r0, #0
 8005f9a:	f884 3046 	strb.w	r3, [r4, #70]	@ 0x46
 8005f9e:	f884 303e 	strb.w	r3, [r4, #62]	@ 0x3e
 8005fa2:	f884 303f 	strb.w	r3, [r4, #63]	@ 0x3f
 8005fa6:	f884 3040 	strb.w	r3, [r4, #64]	@ 0x40
 8005faa:	f884 3041 	strb.w	r3, [r4, #65]	@ 0x41
 8005fae:	f884 3042 	strb.w	r3, [r4, #66]	@ 0x42
 8005fb2:	f884 3043 	strb.w	r3, [r4, #67]	@ 0x43
 8005fb6:	f884 3044 	strb.w	r3, [r4, #68]	@ 0x44
 8005fba:	f884 3045 	strb.w	r3, [r4, #69]	@ 0x45
 8005fbe:	f884 303d 	strb.w	r3, [r4, #61]	@ 0x3d
 8005fc2:	bd10      	pop	{r4, pc}
 8005fc4:	2001      	movs	r0, #1
 8005fc6:	e7fc      	b.n	8005fc2 <HAL_TIM_PWM_Init+0x52>

08005fc8 <TIM_OC2_SetConfig>:
 8005fc8:	6a03      	ldr	r3, [r0, #32]
 8005fca:	6a02      	ldr	r2, [r0, #32]
 8005fcc:	b570      	push	{r4, r5, r6, lr}
 8005fce:	f022 0210 	bic.w	r2, r2, #16
 8005fd2:	6202      	str	r2, [r0, #32]
 8005fd4:	6844      	ldr	r4, [r0, #4]
 8005fd6:	6982      	ldr	r2, [r0, #24]
 8005fd8:	680d      	ldr	r5, [r1, #0]
 8005fda:	f422 42e6 	bic.w	r2, r2, #29440	@ 0x7300
 8005fde:	ea42 2205 	orr.w	r2, r2, r5, lsl #8
 8005fe2:	688d      	ldr	r5, [r1, #8]
 8005fe4:	f023 0320 	bic.w	r3, r3, #32
 8005fe8:	ea43 1305 	orr.w	r3, r3, r5, lsl #4
 8005fec:	4d0b      	ldr	r5, [pc, #44]	@ (800601c <TIM_OC2_SetConfig+0x54>)
 8005fee:	42a8      	cmp	r0, r5
 8005ff0:	d10d      	bne.n	800600e <TIM_OC2_SetConfig+0x46>
 8005ff2:	68cd      	ldr	r5, [r1, #12]
 8005ff4:	f023 0380 	bic.w	r3, r3, #128	@ 0x80
 8005ff8:	ea43 1305 	orr.w	r3, r3, r5, lsl #4
 8005ffc:	f424 6440 	bic.w	r4, r4, #3072	@ 0xc00
 8006000:	e9d1 5605 	ldrd	r5, r6, [r1, #20]
 8006004:	4335      	orrs	r5, r6
 8006006:	f023 0340 	bic.w	r3, r3, #64	@ 0x40
 800600a:	ea44 0485 	orr.w	r4, r4, r5, lsl #2
 800600e:	6044      	str	r4, [r0, #4]
 8006010:	6182      	str	r2, [r0, #24]
 8006012:	684a      	ldr	r2, [r1, #4]
 8006014:	6382      	str	r2, [r0, #56]	@ 0x38
 8006016:	6203      	str	r3, [r0, #32]
 8006018:	bd70      	pop	{r4, r5, r6, pc}
 800601a:	bf00      	nop
 800601c:	40012c00 	.word	0x40012c00

08006020 <HAL_TIM_PWM_ConfigChannel>:
 8006020:	b538      	push	{r3, r4, r5, lr}
 8006022:	f890 303c 	ldrb.w	r3, [r0, #60]	@ 0x3c
 8006026:	4604      	mov	r4, r0
 8006028:	2b01      	cmp	r3, #1
 800602a:	d04f      	beq.n	80060cc <HAL_TIM_PWM_ConfigChannel+0xac>
 800602c:	2001      	movs	r0, #1
 800602e:	2a08      	cmp	r2, #8
 8006030:	f884 003c 	strb.w	r0, [r4, #60]	@ 0x3c
 8006034:	d03a      	beq.n	80060ac <HAL_TIM_PWM_ConfigChannel+0x8c>
 8006036:	d806      	bhi.n	8006046 <HAL_TIM_PWM_ConfigChannel+0x26>
 8006038:	b1ba      	cbz	r2, 800606a <HAL_TIM_PWM_ConfigChannel+0x4a>
 800603a:	2a04      	cmp	r2, #4
 800603c:	d026      	beq.n	800608c <HAL_TIM_PWM_ConfigChannel+0x6c>
 800603e:	2300      	movs	r3, #0
 8006040:	f884 303c 	strb.w	r3, [r4, #60]	@ 0x3c
 8006044:	bd38      	pop	{r3, r4, r5, pc}
 8006046:	2a0c      	cmp	r2, #12
 8006048:	d1f9      	bne.n	800603e <HAL_TIM_PWM_ConfigChannel+0x1e>
 800604a:	6820      	ldr	r0, [r4, #0]
 800604c:	f7ff ff10 	bl	8005e70 <TIM_OC4_SetConfig>
 8006050:	69c3      	ldr	r3, [r0, #28]
 8006052:	690a      	ldr	r2, [r1, #16]
 8006054:	f443 6300 	orr.w	r3, r3, #2048	@ 0x800
 8006058:	61c3      	str	r3, [r0, #28]
 800605a:	69c3      	ldr	r3, [r0, #28]
 800605c:	f423 6380 	bic.w	r3, r3, #1024	@ 0x400
 8006060:	61c3      	str	r3, [r0, #28]
 8006062:	69c3      	ldr	r3, [r0, #28]
 8006064:	ea43 2302 	orr.w	r3, r3, r2, lsl #8
 8006068:	e02e      	b.n	80060c8 <HAL_TIM_PWM_ConfigChannel+0xa8>
 800606a:	6820      	ldr	r0, [r4, #0]
 800606c:	f7ff feae 	bl	8005dcc <TIM_OC1_SetConfig>
 8006070:	6983      	ldr	r3, [r0, #24]
 8006072:	690a      	ldr	r2, [r1, #16]
 8006074:	f043 0308 	orr.w	r3, r3, #8
 8006078:	6183      	str	r3, [r0, #24]
 800607a:	6983      	ldr	r3, [r0, #24]
 800607c:	f023 0304 	bic.w	r3, r3, #4
 8006080:	6183      	str	r3, [r0, #24]
 8006082:	6983      	ldr	r3, [r0, #24]
 8006084:	4313      	orrs	r3, r2
 8006086:	6183      	str	r3, [r0, #24]
 8006088:	2000      	movs	r0, #0
 800608a:	e7d8      	b.n	800603e <HAL_TIM_PWM_ConfigChannel+0x1e>
 800608c:	6820      	ldr	r0, [r4, #0]
 800608e:	f7ff ff9b 	bl	8005fc8 <TIM_OC2_SetConfig>
 8006092:	6983      	ldr	r3, [r0, #24]
 8006094:	690a      	ldr	r2, [r1, #16]
 8006096:	f443 6300 	orr.w	r3, r3, #2048	@ 0x800
 800609a:	6183      	str	r3, [r0, #24]
 800609c:	6983      	ldr	r3, [r0, #24]
 800609e:	f423 6380 	bic.w	r3, r3, #1024	@ 0x400
 80060a2:	6183      	str	r3, [r0, #24]
 80060a4:	6983      	ldr	r3, [r0, #24]
 80060a6:	ea43 2302 	orr.w	r3, r3, r2, lsl #8
 80060aa:	e7ec      	b.n	8006086 <HAL_TIM_PWM_ConfigChannel+0x66>
 80060ac:	6820      	ldr	r0, [r4, #0]
 80060ae:	f7ff feb5 	bl	8005e1c <TIM_OC3_SetConfig>
 80060b2:	69c3      	ldr	r3, [r0, #28]
 80060b4:	690a      	ldr	r2, [r1, #16]
 80060b6:	f043 0308 	orr.w	r3, r3, #8
 80060ba:	61c3      	str	r3, [r0, #28]
 80060bc:	69c3      	ldr	r3, [r0, #28]
 80060be:	f023 0304 	bic.w	r3, r3, #4
 80060c2:	61c3      	str	r3, [r0, #28]
 80060c4:	69c3      	ldr	r3, [r0, #28]
 80060c6:	4313      	orrs	r3, r2
 80060c8:	61c3      	str	r3, [r0, #28]
 80060ca:	e7dd      	b.n	8006088 <HAL_TIM_PWM_ConfigChannel+0x68>
 80060cc:	2002      	movs	r0, #2
 80060ce:	e7b9      	b.n	8006044 <HAL_TIM_PWM_ConfigChannel+0x24>

080060d0 <TIM_ETR_SetConfig>:
 80060d0:	b510      	push	{r4, lr}
 80060d2:	6884      	ldr	r4, [r0, #8]
 80060d4:	430a      	orrs	r2, r1
 80060d6:	f424 447f 	bic.w	r4, r4, #65280	@ 0xff00
 80060da:	ea42 2203 	orr.w	r2, r2, r3, lsl #8
 80060de:	4322      	orrs	r2, r4
 80060e0:	6082      	str	r2, [r0, #8]
 80060e2:	bd10      	pop	{r4, pc}

080060e4 <HAL_TIM_ConfigClockSource>:
 80060e4:	b538      	push	{r3, r4, r5, lr}
 80060e6:	f890 303c 	ldrb.w	r3, [r0, #60]	@ 0x3c
 80060ea:	4604      	mov	r4, r0
 80060ec:	2b01      	cmp	r3, #1
 80060ee:	f04f 0002 	mov.w	r0, #2
 80060f2:	f000 808e 	beq.w	8006212 <HAL_TIM_ConfigClockSource+0x12e>
 80060f6:	2201      	movs	r2, #1
 80060f8:	f884 003d 	strb.w	r0, [r4, #61]	@ 0x3d
 80060fc:	6820      	ldr	r0, [r4, #0]
 80060fe:	f884 203c 	strb.w	r2, [r4, #60]	@ 0x3c
 8006102:	6883      	ldr	r3, [r0, #8]
 8006104:	f423 437f 	bic.w	r3, r3, #65280	@ 0xff00
 8006108:	f023 0377 	bic.w	r3, r3, #119	@ 0x77
 800610c:	6083      	str	r3, [r0, #8]
 800610e:	680b      	ldr	r3, [r1, #0]
 8006110:	2b60      	cmp	r3, #96	@ 0x60
 8006112:	d04f      	beq.n	80061b4 <HAL_TIM_ConfigClockSource+0xd0>
 8006114:	d832      	bhi.n	800617c <HAL_TIM_ConfigClockSource+0x98>
 8006116:	2b40      	cmp	r3, #64	@ 0x40
 8006118:	d064      	beq.n	80061e4 <HAL_TIM_ConfigClockSource+0x100>
 800611a:	d816      	bhi.n	800614a <HAL_TIM_ConfigClockSource+0x66>
 800611c:	2b20      	cmp	r3, #32
 800611e:	d00d      	beq.n	800613c <HAL_TIM_ConfigClockSource+0x58>
 8006120:	d80a      	bhi.n	8006138 <HAL_TIM_ConfigClockSource+0x54>
 8006122:	f033 0110 	bics.w	r1, r3, #16
 8006126:	d009      	beq.n	800613c <HAL_TIM_ConfigClockSource+0x58>
 8006128:	2301      	movs	r3, #1
 800612a:	f884 303d 	strb.w	r3, [r4, #61]	@ 0x3d
 800612e:	2300      	movs	r3, #0
 8006130:	f884 303c 	strb.w	r3, [r4, #60]	@ 0x3c
 8006134:	4610      	mov	r0, r2
 8006136:	bd38      	pop	{r3, r4, r5, pc}
 8006138:	2b30      	cmp	r3, #48	@ 0x30
 800613a:	d1f5      	bne.n	8006128 <HAL_TIM_ConfigClockSource+0x44>
 800613c:	6882      	ldr	r2, [r0, #8]
 800613e:	f022 0270 	bic.w	r2, r2, #112	@ 0x70
 8006142:	4313      	orrs	r3, r2
 8006144:	f043 0307 	orr.w	r3, r3, #7
 8006148:	e028      	b.n	800619c <HAL_TIM_ConfigClockSource+0xb8>
 800614a:	2b50      	cmp	r3, #80	@ 0x50
 800614c:	d1ec      	bne.n	8006128 <HAL_TIM_ConfigClockSource+0x44>
 800614e:	684a      	ldr	r2, [r1, #4]
 8006150:	68cd      	ldr	r5, [r1, #12]
 8006152:	6a01      	ldr	r1, [r0, #32]
 8006154:	6a03      	ldr	r3, [r0, #32]
 8006156:	f021 010a 	bic.w	r1, r1, #10
 800615a:	f023 0301 	bic.w	r3, r3, #1
 800615e:	6203      	str	r3, [r0, #32]
 8006160:	6983      	ldr	r3, [r0, #24]
 8006162:	430a      	orrs	r2, r1
 8006164:	f023 03f0 	bic.w	r3, r3, #240	@ 0xf0
 8006168:	ea43 1305 	orr.w	r3, r3, r5, lsl #4
 800616c:	6183      	str	r3, [r0, #24]
 800616e:	6202      	str	r2, [r0, #32]
 8006170:	6883      	ldr	r3, [r0, #8]
 8006172:	f023 0370 	bic.w	r3, r3, #112	@ 0x70
 8006176:	f043 0357 	orr.w	r3, r3, #87	@ 0x57
 800617a:	e00f      	b.n	800619c <HAL_TIM_ConfigClockSource+0xb8>
 800617c:	f5b3 5f80 	cmp.w	r3, #4096	@ 0x1000
 8006180:	d00d      	beq.n	800619e <HAL_TIM_ConfigClockSource+0xba>
 8006182:	f5b3 5f00 	cmp.w	r3, #8192	@ 0x2000
 8006186:	d00c      	beq.n	80061a2 <HAL_TIM_ConfigClockSource+0xbe>
 8006188:	2b70      	cmp	r3, #112	@ 0x70
 800618a:	d1cd      	bne.n	8006128 <HAL_TIM_ConfigClockSource+0x44>
 800618c:	68cb      	ldr	r3, [r1, #12]
 800618e:	e9d1 2101 	ldrd	r2, r1, [r1, #4]
 8006192:	f7ff ff9d 	bl	80060d0 <TIM_ETR_SetConfig>
 8006196:	6883      	ldr	r3, [r0, #8]
 8006198:	f043 0377 	orr.w	r3, r3, #119	@ 0x77
 800619c:	6083      	str	r3, [r0, #8]
 800619e:	2200      	movs	r2, #0
 80061a0:	e7c2      	b.n	8006128 <HAL_TIM_ConfigClockSource+0x44>
 80061a2:	68cb      	ldr	r3, [r1, #12]
 80061a4:	e9d1 2101 	ldrd	r2, r1, [r1, #4]
 80061a8:	f7ff ff92 	bl	80060d0 <TIM_ETR_SetConfig>
 80061ac:	6883      	ldr	r3, [r0, #8]
 80061ae:	f443 4380 	orr.w	r3, r3, #16384	@ 0x4000
 80061b2:	e7f3      	b.n	800619c <HAL_TIM_ConfigClockSource+0xb8>
 80061b4:	6a03      	ldr	r3, [r0, #32]
 80061b6:	6a02      	ldr	r2, [r0, #32]
 80061b8:	684d      	ldr	r5, [r1, #4]
 80061ba:	f022 0210 	bic.w	r2, r2, #16
 80061be:	68c9      	ldr	r1, [r1, #12]
 80061c0:	6202      	str	r2, [r0, #32]
 80061c2:	6982      	ldr	r2, [r0, #24]
 80061c4:	f023 03a0 	bic.w	r3, r3, #160	@ 0xa0
 80061c8:	f422 4270 	bic.w	r2, r2, #61440	@ 0xf000
 80061cc:	ea43 1305 	orr.w	r3, r3, r5, lsl #4
 80061d0:	ea42 3201 	orr.w	r2, r2, r1, lsl #12
 80061d4:	6182      	str	r2, [r0, #24]
 80061d6:	6203      	str	r3, [r0, #32]
 80061d8:	6883      	ldr	r3, [r0, #8]
 80061da:	f023 0370 	bic.w	r3, r3, #112	@ 0x70
 80061de:	f043 0367 	orr.w	r3, r3, #103	@ 0x67
 80061e2:	e7db      	b.n	800619c <HAL_TIM_ConfigClockSource+0xb8>
 80061e4:	684a      	ldr	r2, [r1, #4]
 80061e6:	68cd      	ldr	r5, [r1, #12]
 80061e8:	6a01      	ldr	r1, [r0, #32]
 80061ea:	6a03      	ldr	r3, [r0, #32]
 80061ec:	f021 010a 	bic.w	r1, r1, #10
 80061f0:	f023 0301 	bic.w	r3, r3, #1
 80061f4:	6203      	str	r3, [r0, #32]
 80061f6:	6983      	ldr	r3, [r0, #24]
 80061f8:	430a      	orrs	r2, r1
 80061fa:	f023 03f0 	bic.w	r3, r3, #240	@ 0xf0
 80061fe:	ea43 1305 	orr.w	r3, r3, r5, lsl #4
 8006202:	6183      	str	r3, [r0, #24]
 8006204:	6202      	str	r2, [r0, #32]
 8006206:	6883      	ldr	r3, [r0, #8]
 8006208:	f023 0370 	bic.w	r3, r3, #112	@ 0x70
 800620c:	f043 0347 	orr.w	r3, r3, #71	@ 0x47
 8006210:	e7c4      	b.n	800619c <HAL_TIM_ConfigClockSource+0xb8>
 8006212:	4602      	mov	r2, r0
 8006214:	e78e      	b.n	8006134 <HAL_TIM_ConfigClockSource+0x50>

08006216 <TIM_CCxChannelCmd>:
 8006216:	b510      	push	{r4, lr}
 8006218:	2401      	movs	r4, #1
 800621a:	6a03      	ldr	r3, [r0, #32]
 800621c:	f001 011f 	and.w	r1, r1, #31
 8006220:	408c      	lsls	r4, r1
 8006222:	ea23 0304 	bic.w	r3, r3, r4
 8006226:	6203      	str	r3, [r0, #32]
 8006228:	6a03      	ldr	r3, [r0, #32]
 800622a:	408a      	lsls	r2, r1
 800622c:	431a      	orrs	r2, r3
 800622e:	6202      	str	r2, [r0, #32]
 8006230:	bd10      	pop	{r4, pc}
	...

08006234 <HAL_TIM_OC_Start>:
 8006234:	b508      	push	{r3, lr}
 8006236:	b929      	cbnz	r1, 8006244 <HAL_TIM_OC_Start+0x10>
 8006238:	f890 303e 	ldrb.w	r3, [r0, #62]	@ 0x3e
 800623c:	2b01      	cmp	r3, #1
 800623e:	d01d      	beq.n	800627c <HAL_TIM_OC_Start+0x48>
 8006240:	2001      	movs	r0, #1
 8006242:	e02e      	b.n	80062a2 <HAL_TIM_OC_Start+0x6e>
 8006244:	2904      	cmp	r1, #4
 8006246:	d107      	bne.n	8006258 <HAL_TIM_OC_Start+0x24>
 8006248:	f890 303f 	ldrb.w	r3, [r0, #63]	@ 0x3f
 800624c:	2b01      	cmp	r3, #1
 800624e:	d1f7      	bne.n	8006240 <HAL_TIM_OC_Start+0xc>
 8006250:	2302      	movs	r3, #2
 8006252:	f880 303f 	strb.w	r3, [r0, #63]	@ 0x3f
 8006256:	e014      	b.n	8006282 <HAL_TIM_OC_Start+0x4e>
 8006258:	2908      	cmp	r1, #8
 800625a:	d107      	bne.n	800626c <HAL_TIM_OC_Start+0x38>
 800625c:	f890 3040 	ldrb.w	r3, [r0, #64]	@ 0x40
 8006260:	2b01      	cmp	r3, #1
 8006262:	d1ed      	bne.n	8006240 <HAL_TIM_OC_Start+0xc>
 8006264:	2302      	movs	r3, #2
 8006266:	f880 3040 	strb.w	r3, [r0, #64]	@ 0x40
 800626a:	e00a      	b.n	8006282 <HAL_TIM_OC_Start+0x4e>
 800626c:	f890 3041 	ldrb.w	r3, [r0, #65]	@ 0x41
 8006270:	2b01      	cmp	r3, #1
 8006272:	d1e5      	bne.n	8006240 <HAL_TIM_OC_Start+0xc>
 8006274:	2302      	movs	r3, #2
 8006276:	f880 3041 	strb.w	r3, [r0, #65]	@ 0x41
 800627a:	e002      	b.n	8006282 <HAL_TIM_OC_Start+0x4e>
 800627c:	2302      	movs	r3, #2
 800627e:	f880 303e 	strb.w	r3, [r0, #62]	@ 0x3e
 8006282:	6800      	ldr	r0, [r0, #0]
 8006284:	2201      	movs	r2, #1
 8006286:	f7ff ffc6 	bl	8006216 <TIM_CCxChannelCmd>
 800628a:	4b0f      	ldr	r3, [pc, #60]	@ (80062c8 <HAL_TIM_OC_Start+0x94>)
 800628c:	4298      	cmp	r0, r3
 800628e:	d009      	beq.n	80062a4 <HAL_TIM_OC_Start+0x70>
 8006290:	f1b0 4f80 	cmp.w	r0, #1073741824	@ 0x40000000
 8006294:	d10b      	bne.n	80062ae <HAL_TIM_OC_Start+0x7a>
 8006296:	6883      	ldr	r3, [r0, #8]
 8006298:	f003 0307 	and.w	r3, r3, #7
 800629c:	2b06      	cmp	r3, #6
 800629e:	d10d      	bne.n	80062bc <HAL_TIM_OC_Start+0x88>
 80062a0:	2000      	movs	r0, #0
 80062a2:	bd08      	pop	{r3, pc}
 80062a4:	6c43      	ldr	r3, [r0, #68]	@ 0x44
 80062a6:	f443 4300 	orr.w	r3, r3, #32768	@ 0x8000
 80062aa:	6443      	str	r3, [r0, #68]	@ 0x44
 80062ac:	e7f3      	b.n	8006296 <HAL_TIM_OC_Start+0x62>
 80062ae:	4b07      	ldr	r3, [pc, #28]	@ (80062cc <HAL_TIM_OC_Start+0x98>)
 80062b0:	4298      	cmp	r0, r3
 80062b2:	d0f0      	beq.n	8006296 <HAL_TIM_OC_Start+0x62>
 80062b4:	f503 6380 	add.w	r3, r3, #1024	@ 0x400
 80062b8:	4298      	cmp	r0, r3
 80062ba:	d0ec      	beq.n	8006296 <HAL_TIM_OC_Start+0x62>
 80062bc:	6803      	ldr	r3, [r0, #0]
 80062be:	f043 0301 	orr.w	r3, r3, #1
 80062c2:	6003      	str	r3, [r0, #0]
 80062c4:	e7ec      	b.n	80062a0 <HAL_TIM_OC_Start+0x6c>
 80062c6:	bf00      	nop
 80062c8:	40012c00 	.word	0x40012c00
 80062cc:	40000400 	.word	0x40000400

080062d0 <HAL_TIM_PWM_Start>:
 80062d0:	f7ff bfb0 	b.w	8006234 <HAL_TIM_OC_Start>

080062d4 <TIM_CCxNChannelCmd>:
 80062d4:	b510      	push	{r4, lr}
 80062d6:	2404      	movs	r4, #4
 80062d8:	6a03      	ldr	r3, [r0, #32]
 80062da:	f001 010f 	and.w	r1, r1, #15
 80062de:	408c      	lsls	r4, r1
 80062e0:	ea23 0304 	bic.w	r3, r3, r4
 80062e4:	6203      	str	r3, [r0, #32]
 80062e6:	6a03      	ldr	r3, [r0, #32]
 80062e8:	408a      	lsls	r2, r1
 80062ea:	431a      	orrs	r2, r3
 80062ec:	6202      	str	r2, [r0, #32]
 80062ee:	bd10      	pop	{r4, pc}

080062f0 <HAL_TIMEx_OCN_Start>:
 80062f0:	b508      	push	{r3, lr}
 80062f2:	b929      	cbnz	r1, 8006300 <HAL_TIMEx_OCN_Start+0x10>
 80062f4:	f890 3042 	ldrb.w	r3, [r0, #66]	@ 0x42
 80062f8:	2b01      	cmp	r3, #1
 80062fa:	d01d      	beq.n	8006338 <HAL_TIMEx_OCN_Start+0x48>
 80062fc:	2001      	movs	r0, #1
 80062fe:	e03e      	b.n	800637e <HAL_TIMEx_OCN_Start+0x8e>
 8006300:	2904      	cmp	r1, #4
 8006302:	d107      	bne.n	8006314 <HAL_TIMEx_OCN_Start+0x24>
 8006304:	f890 3043 	ldrb.w	r3, [r0, #67]	@ 0x43
 8006308:	2b01      	cmp	r3, #1
 800630a:	d1f7      	bne.n	80062fc <HAL_TIMEx_OCN_Start+0xc>
 800630c:	2302      	movs	r3, #2
 800630e:	f880 3043 	strb.w	r3, [r0, #67]	@ 0x43
 8006312:	e014      	b.n	800633e <HAL_TIMEx_OCN_Start+0x4e>
 8006314:	2908      	cmp	r1, #8
 8006316:	d107      	bne.n	8006328 <HAL_TIMEx_OCN_Start+0x38>
 8006318:	f890 3044 	ldrb.w	r3, [r0, #68]	@ 0x44
 800631c:	2b01      	cmp	r3, #1
 800631e:	d1ed      	bne.n	80062fc <HAL_TIMEx_OCN_Start+0xc>
 8006320:	2302      	movs	r3, #2
 8006322:	f880 3044 	strb.w	r3, [r0, #68]	@ 0x44
 8006326:	e00a      	b.n	800633e <HAL_TIMEx_OCN_Start+0x4e>
 8006328:	f890 3045 	ldrb.w	r3, [r0, #69]	@ 0x45
 800632c:	2b01      	cmp	r3, #1
 800632e:	d1e5      	bne.n	80062fc <HAL_TIMEx_OCN_Start+0xc>
 8006330:	2302      	movs	r3, #2
 8006332:	f880 3045 	strb.w	r3, [r0, #69]	@ 0x45
 8006336:	e002      	b.n	800633e <HAL_TIMEx_OCN_Start+0x4e>
 8006338:	2302      	movs	r3, #2
 800633a:	f880 3042 	strb.w	r3, [r0, #66]	@ 0x42
 800633e:	6800      	ldr	r0, [r0, #0]
 8006340:	2204      	movs	r2, #4
 8006342:	f7ff ffc7 	bl	80062d4 <TIM_CCxNChannelCmd>
 8006346:	6c43      	ldr	r3, [r0, #68]	@ 0x44
 8006348:	f443 4300 	orr.w	r3, r3, #32768	@ 0x8000
 800634c:	6443      	str	r3, [r0, #68]	@ 0x44
 800634e:	4b0c      	ldr	r3, [pc, #48]	@ (8006380 <HAL_TIMEx_OCN_Start+0x90>)
 8006350:	4298      	cmp	r0, r3
 8006352:	d00a      	beq.n	800636a <HAL_TIMEx_OCN_Start+0x7a>
 8006354:	f1b0 4f80 	cmp.w	r0, #1073741824	@ 0x40000000
 8006358:	d007      	beq.n	800636a <HAL_TIMEx_OCN_Start+0x7a>
 800635a:	f5a3 3394 	sub.w	r3, r3, #75776	@ 0x12800
 800635e:	4298      	cmp	r0, r3
 8006360:	d003      	beq.n	800636a <HAL_TIMEx_OCN_Start+0x7a>
 8006362:	f503 6380 	add.w	r3, r3, #1024	@ 0x400
 8006366:	4298      	cmp	r0, r3
 8006368:	d104      	bne.n	8006374 <HAL_TIMEx_OCN_Start+0x84>
 800636a:	6883      	ldr	r3, [r0, #8]
 800636c:	f003 0307 	and.w	r3, r3, #7
 8006370:	2b06      	cmp	r3, #6
 8006372:	d003      	beq.n	800637c <HAL_TIMEx_OCN_Start+0x8c>
 8006374:	6803      	ldr	r3, [r0, #0]
 8006376:	f043 0301 	orr.w	r3, r3, #1
 800637a:	6003      	str	r3, [r0, #0]
 800637c:	2000      	movs	r0, #0
 800637e:	bd08      	pop	{r3, pc}
 8006380:	40012c00 	.word	0x40012c00

08006384 <HAL_TIMEx_PWMN_Start>:
 8006384:	f7ff bfb4 	b.w	80062f0 <HAL_TIMEx_OCN_Start>

08006388 <HAL_TIMEx_MasterConfigSynchronization>:
 8006388:	b530      	push	{r4, r5, lr}
 800638a:	f890 303c 	ldrb.w	r3, [r0, #60]	@ 0x3c
 800638e:	4602      	mov	r2, r0
 8006390:	2b01      	cmp	r3, #1
 8006392:	f04f 0002 	mov.w	r0, #2
 8006396:	d022      	beq.n	80063de <HAL_TIMEx_MasterConfigSynchronization+0x56>
 8006398:	6813      	ldr	r3, [r2, #0]
 800639a:	f882 003d 	strb.w	r0, [r2, #61]	@ 0x3d
 800639e:	685c      	ldr	r4, [r3, #4]
 80063a0:	680d      	ldr	r5, [r1, #0]
 80063a2:	f024 0470 	bic.w	r4, r4, #112	@ 0x70
 80063a6:	432c      	orrs	r4, r5
 80063a8:	6898      	ldr	r0, [r3, #8]
 80063aa:	605c      	str	r4, [r3, #4]
 80063ac:	4c0c      	ldr	r4, [pc, #48]	@ (80063e0 <HAL_TIMEx_MasterConfigSynchronization+0x58>)
 80063ae:	42a3      	cmp	r3, r4
 80063b0:	d00a      	beq.n	80063c8 <HAL_TIMEx_MasterConfigSynchronization+0x40>
 80063b2:	f1b3 4f80 	cmp.w	r3, #1073741824	@ 0x40000000
 80063b6:	d007      	beq.n	80063c8 <HAL_TIMEx_MasterConfigSynchronization+0x40>
 80063b8:	f5a4 3494 	sub.w	r4, r4, #75776	@ 0x12800
 80063bc:	42a3      	cmp	r3, r4
 80063be:	d003      	beq.n	80063c8 <HAL_TIMEx_MasterConfigSynchronization+0x40>
 80063c0:	f504 6480 	add.w	r4, r4, #1024	@ 0x400
 80063c4:	42a3      	cmp	r3, r4
 80063c6:	d104      	bne.n	80063d2 <HAL_TIMEx_MasterConfigSynchronization+0x4a>
 80063c8:	6849      	ldr	r1, [r1, #4]
 80063ca:	f020 0080 	bic.w	r0, r0, #128	@ 0x80
 80063ce:	4301      	orrs	r1, r0
 80063d0:	6099      	str	r1, [r3, #8]
 80063d2:	2301      	movs	r3, #1
 80063d4:	2000      	movs	r0, #0
 80063d6:	f882 303d 	strb.w	r3, [r2, #61]	@ 0x3d
 80063da:	f882 003c 	strb.w	r0, [r2, #60]	@ 0x3c
 80063de:	bd30      	pop	{r4, r5, pc}
 80063e0:	40012c00 	.word	0x40012c00

080063e4 <HAL_TIMEx_ConfigBreakDeadTime>:
 80063e4:	f890 303c 	ldrb.w	r3, [r0, #60]	@ 0x3c
 80063e8:	4602      	mov	r2, r0
 80063ea:	2b01      	cmp	r3, #1
 80063ec:	d01e      	beq.n	800642c <HAL_TIMEx_ConfigBreakDeadTime+0x48>
 80063ee:	68cb      	ldr	r3, [r1, #12]
 80063f0:	6888      	ldr	r0, [r1, #8]
 80063f2:	f423 7340 	bic.w	r3, r3, #768	@ 0x300
 80063f6:	4303      	orrs	r3, r0
 80063f8:	6848      	ldr	r0, [r1, #4]
 80063fa:	f423 6380 	bic.w	r3, r3, #1024	@ 0x400
 80063fe:	4303      	orrs	r3, r0
 8006400:	6808      	ldr	r0, [r1, #0]
 8006402:	f423 6300 	bic.w	r3, r3, #2048	@ 0x800
 8006406:	4303      	orrs	r3, r0
 8006408:	6908      	ldr	r0, [r1, #16]
 800640a:	f423 5380 	bic.w	r3, r3, #4096	@ 0x1000
 800640e:	4303      	orrs	r3, r0
 8006410:	6948      	ldr	r0, [r1, #20]
 8006412:	f423 5300 	bic.w	r3, r3, #8192	@ 0x2000
 8006416:	4303      	orrs	r3, r0
 8006418:	2000      	movs	r0, #0
 800641a:	69c9      	ldr	r1, [r1, #28]
 800641c:	f423 4380 	bic.w	r3, r3, #16384	@ 0x4000
 8006420:	430b      	orrs	r3, r1
 8006422:	6811      	ldr	r1, [r2, #0]
 8006424:	644b      	str	r3, [r1, #68]	@ 0x44
 8006426:	f882 003c 	strb.w	r0, [r2, #60]	@ 0x3c
 800642a:	4770      	bx	lr
 800642c:	2002      	movs	r0, #2
 800642e:	4770      	bx	lr

08006430 <USB_CoreInit>:
 8006430:	b084      	sub	sp, #16
 8006432:	a804      	add	r0, sp, #16
 8006434:	e900 000e 	stmdb	r0, {r1, r2, r3}
 8006438:	2000      	movs	r0, #0
 800643a:	b004      	add	sp, #16
 800643c:	4770      	bx	lr

0800643e <USB_EnableGlobalInt>:
 800643e:	4603      	mov	r3, r0
 8006440:	f44f 423f 	mov.w	r2, #48896	@ 0xbf00
 8006444:	2000      	movs	r0, #0
 8006446:	f8a3 0044 	strh.w	r0, [r3, #68]	@ 0x44
 800644a:	f8a3 2040 	strh.w	r2, [r3, #64]	@ 0x40
 800644e:	4770      	bx	lr

08006450 <USB_DisableGlobalInt>:
 8006450:	f8b0 3040 	ldrh.w	r3, [r0, #64]	@ 0x40
 8006454:	f423 537c 	bic.w	r3, r3, #16128	@ 0x3f00
 8006458:	045b      	lsls	r3, r3, #17
 800645a:	0c5b      	lsrs	r3, r3, #17
 800645c:	f8a0 3040 	strh.w	r3, [r0, #64]	@ 0x40
 8006460:	2000      	movs	r0, #0
 8006462:	4770      	bx	lr

08006464 <USB_SetCurrentMode>:
 8006464:	2000      	movs	r0, #0
 8006466:	4770      	bx	lr

08006468 <USB_DevInit>:
 8006468:	b51f      	push	{r0, r1, r2, r3, r4, lr}
 800646a:	4604      	mov	r4, r0
 800646c:	a804      	add	r0, sp, #16
 800646e:	e900 000e 	stmdb	r0, {r1, r2, r3}
 8006472:	2000      	movs	r0, #0
 8006474:	2301      	movs	r3, #1
 8006476:	f8a4 3040 	strh.w	r3, [r4, #64]	@ 0x40
 800647a:	f8a4 0040 	strh.w	r0, [r4, #64]	@ 0x40
 800647e:	f8a4 0044 	strh.w	r0, [r4, #68]	@ 0x44
 8006482:	f8a4 0050 	strh.w	r0, [r4, #80]	@ 0x50
 8006486:	b004      	add	sp, #16
 8006488:	bd10      	pop	{r4, pc}
	...

0800648c <USB_ActivateEndpoint>:
 800648c:	b5f0      	push	{r4, r5, r6, r7, lr}
 800648e:	780a      	ldrb	r2, [r1, #0]
 8006490:	78cd      	ldrb	r5, [r1, #3]
 8006492:	f830 4022 	ldrh.w	r4, [r0, r2, lsl #2]
 8006496:	4603      	mov	r3, r0
 8006498:	f424 44ec 	bic.w	r4, r4, #30208	@ 0x7600
 800649c:	f024 0470 	bic.w	r4, r4, #112	@ 0x70
 80064a0:	0424      	lsls	r4, r4, #16
 80064a2:	0c24      	lsrs	r4, r4, #16
 80064a4:	2d03      	cmp	r5, #3
 80064a6:	d803      	bhi.n	80064b0 <USB_ActivateEndpoint+0x24>
 80064a8:	e8df f005 	tbb	[pc, r5]
 80064ac:	45474941 	.word	0x45474941
 80064b0:	2001      	movs	r0, #1
 80064b2:	f248 0780 	movw	r7, #32896	@ 0x8080
 80064b6:	433c      	orrs	r4, r7
 80064b8:	f823 4022 	strh.w	r4, [r3, r2, lsl #2]
 80064bc:	f833 4022 	ldrh.w	r4, [r3, r2, lsl #2]
 80064c0:	4e9f      	ldr	r6, [pc, #636]	@ (8006740 <USB_ActivateEndpoint+0x2b4>)
 80064c2:	b2a4      	uxth	r4, r4
 80064c4:	4034      	ands	r4, r6
 80064c6:	4314      	orrs	r4, r2
 80064c8:	433c      	orrs	r4, r7
 80064ca:	f823 4022 	strh.w	r4, [r3, r2, lsl #2]
 80064ce:	7b0c      	ldrb	r4, [r1, #12]
 80064d0:	eb03 1c02 	add.w	ip, r3, r2, lsl #4
 80064d4:	2c00      	cmp	r4, #0
 80064d6:	f040 808c 	bne.w	80065f2 <USB_ActivateEndpoint+0x166>
 80064da:	88cc      	ldrh	r4, [r1, #6]
 80064dc:	784f      	ldrb	r7, [r1, #1]
 80064de:	0864      	lsrs	r4, r4, #1
 80064e0:	0064      	lsls	r4, r4, #1
 80064e2:	b37f      	cbz	r7, 8006544 <USB_ActivateEndpoint+0xb8>
 80064e4:	f8b3 1050 	ldrh.w	r1, [r3, #80]	@ 0x50
 80064e8:	b289      	uxth	r1, r1
 80064ea:	4461      	add	r1, ip
 80064ec:	f8a1 4400 	strh.w	r4, [r1, #1024]	@ 0x400
 80064f0:	f833 1022 	ldrh.w	r1, [r3, r2, lsl #2]
 80064f4:	064c      	lsls	r4, r1, #25
 80064f6:	d509      	bpl.n	800650c <USB_ActivateEndpoint+0x80>
 80064f8:	f833 1022 	ldrh.w	r1, [r3, r2, lsl #2]
 80064fc:	b289      	uxth	r1, r1
 80064fe:	4031      	ands	r1, r6
 8006500:	f441 4100 	orr.w	r1, r1, #32768	@ 0x8000
 8006504:	f041 01c0 	orr.w	r1, r1, #192	@ 0xc0
 8006508:	f823 1022 	strh.w	r1, [r3, r2, lsl #2]
 800650c:	f833 1022 	ldrh.w	r1, [r3, r2, lsl #2]
 8006510:	4c8c      	ldr	r4, [pc, #560]	@ (8006744 <USB_ActivateEndpoint+0x2b8>)
 8006512:	b289      	uxth	r1, r1
 8006514:	2d01      	cmp	r5, #1
 8006516:	ea01 0104 	and.w	r1, r1, r4
 800651a:	d001      	beq.n	8006520 <USB_ActivateEndpoint+0x94>
 800651c:	f081 0120 	eor.w	r1, r1, #32
 8006520:	f441 4100 	orr.w	r1, r1, #32768	@ 0x8000
 8006524:	f041 0180 	orr.w	r1, r1, #128	@ 0x80
 8006528:	f823 1022 	strh.w	r1, [r3, r2, lsl #2]
 800652c:	e04d      	b.n	80065ca <USB_ActivateEndpoint+0x13e>
 800652e:	4628      	mov	r0, r5
 8006530:	f444 7400 	orr.w	r4, r4, #512	@ 0x200
 8006534:	e7bd      	b.n	80064b2 <USB_ActivateEndpoint+0x26>
 8006536:	f444 64c0 	orr.w	r4, r4, #1536	@ 0x600
 800653a:	2000      	movs	r0, #0
 800653c:	e7b9      	b.n	80064b2 <USB_ActivateEndpoint+0x26>
 800653e:	f444 6480 	orr.w	r4, r4, #1024	@ 0x400
 8006542:	e7fa      	b.n	800653a <USB_ActivateEndpoint+0xae>
 8006544:	f8b3 5050 	ldrh.w	r5, [r3, #80]	@ 0x50
 8006548:	b2ad      	uxth	r5, r5
 800654a:	4465      	add	r5, ip
 800654c:	f8a5 4408 	strh.w	r4, [r5, #1032]	@ 0x408
 8006550:	f8b3 4050 	ldrh.w	r4, [r3, #80]	@ 0x50
 8006554:	b2a4      	uxth	r4, r4
 8006556:	4464      	add	r4, ip
 8006558:	f8b4 540c 	ldrh.w	r5, [r4, #1036]	@ 0x40c
 800655c:	f3c5 0509 	ubfx	r5, r5, #0, #10
 8006560:	f8a4 540c 	strh.w	r5, [r4, #1036]	@ 0x40c
 8006564:	690d      	ldr	r5, [r1, #16]
 8006566:	2d3e      	cmp	r5, #62	@ 0x3e
 8006568:	d930      	bls.n	80065cc <USB_ActivateEndpoint+0x140>
 800656a:	06e9      	lsls	r1, r5, #27
 800656c:	f8b4 140c 	ldrh.w	r1, [r4, #1036]	@ 0x40c
 8006570:	ea4f 1655 	mov.w	r6, r5, lsr #5
 8006574:	bf08      	it	eq
 8006576:	f106 36ff 	addeq.w	r6, r6, #4294967295
 800657a:	b289      	uxth	r1, r1
 800657c:	ea41 2186 	orr.w	r1, r1, r6, lsl #10
 8006580:	ea6f 4141 	mvn.w	r1, r1, lsl #17
 8006584:	ea6f 4151 	mvn.w	r1, r1, lsr #17
 8006588:	b289      	uxth	r1, r1
 800658a:	f8a4 140c 	strh.w	r1, [r4, #1036]	@ 0x40c
 800658e:	f833 1022 	ldrh.w	r1, [r3, r2, lsl #2]
 8006592:	044f      	lsls	r7, r1, #17
 8006594:	d50d      	bpl.n	80065b2 <USB_ActivateEndpoint+0x126>
 8006596:	f833 1022 	ldrh.w	r1, [r3, r2, lsl #2]
 800659a:	f421 41e0 	bic.w	r1, r1, #28672	@ 0x7000
 800659e:	f021 0170 	bic.w	r1, r1, #112	@ 0x70
 80065a2:	0409      	lsls	r1, r1, #16
 80065a4:	0c09      	lsrs	r1, r1, #16
 80065a6:	f441 4140 	orr.w	r1, r1, #49152	@ 0xc000
 80065aa:	f041 0180 	orr.w	r1, r1, #128	@ 0x80
 80065ae:	f823 1022 	strh.w	r1, [r3, r2, lsl #2]
 80065b2:	4c65      	ldr	r4, [pc, #404]	@ (8006748 <USB_ActivateEndpoint+0x2bc>)
 80065b4:	b9b2      	cbnz	r2, 80065e4 <USB_ActivateEndpoint+0x158>
 80065b6:	881a      	ldrh	r2, [r3, #0]
 80065b8:	b292      	uxth	r2, r2
 80065ba:	4022      	ands	r2, r4
 80065bc:	f482 5240 	eor.w	r2, r2, #12288	@ 0x3000
 80065c0:	f442 4200 	orr.w	r2, r2, #32768	@ 0x8000
 80065c4:	f042 0280 	orr.w	r2, r2, #128	@ 0x80
 80065c8:	801a      	strh	r2, [r3, #0]
 80065ca:	bdf0      	pop	{r4, r5, r6, r7, pc}
 80065cc:	f8b4 140c 	ldrh.w	r1, [r4, #1036]	@ 0x40c
 80065d0:	2d00      	cmp	r5, #0
 80065d2:	d0d5      	beq.n	8006580 <USB_ActivateEndpoint+0xf4>
 80065d4:	f005 0601 	and.w	r6, r5, #1
 80065d8:	b289      	uxth	r1, r1
 80065da:	eb06 0555 	add.w	r5, r6, r5, lsr #1
 80065de:	ea41 2185 	orr.w	r1, r1, r5, lsl #10
 80065e2:	e7d1      	b.n	8006588 <USB_ActivateEndpoint+0xfc>
 80065e4:	f833 1022 	ldrh.w	r1, [r3, r2, lsl #2]
 80065e8:	b289      	uxth	r1, r1
 80065ea:	4021      	ands	r1, r4
 80065ec:	f481 5100 	eor.w	r1, r1, #8192	@ 0x2000
 80065f0:	e796      	b.n	8006520 <USB_ActivateEndpoint+0x94>
 80065f2:	2d02      	cmp	r5, #2
 80065f4:	f833 4022 	ldrh.w	r4, [r3, r2, lsl #2]
 80065f8:	d15b      	bne.n	80066b2 <USB_ActivateEndpoint+0x226>
 80065fa:	b2a4      	uxth	r4, r4
 80065fc:	4034      	ands	r4, r6
 80065fe:	f444 4401 	orr.w	r4, r4, #33024	@ 0x8100
 8006602:	f044 0480 	orr.w	r4, r4, #128	@ 0x80
 8006606:	f823 4022 	strh.w	r4, [r3, r2, lsl #2]
 800660a:	f8b3 4050 	ldrh.w	r4, [r3, #80]	@ 0x50
 800660e:	890e      	ldrh	r6, [r1, #8]
 8006610:	b2a4      	uxth	r4, r4
 8006612:	0876      	lsrs	r6, r6, #1
 8006614:	4464      	add	r4, ip
 8006616:	0076      	lsls	r6, r6, #1
 8006618:	f8a4 6400 	strh.w	r6, [r4, #1024]	@ 0x400
 800661c:	894e      	ldrh	r6, [r1, #10]
 800661e:	f8b3 4050 	ldrh.w	r4, [r3, #80]	@ 0x50
 8006622:	0876      	lsrs	r6, r6, #1
 8006624:	b2a4      	uxth	r4, r4
 8006626:	4464      	add	r4, ip
 8006628:	0076      	lsls	r6, r6, #1
 800662a:	f8a4 6408 	strh.w	r6, [r4, #1032]	@ 0x408
 800662e:	7849      	ldrb	r1, [r1, #1]
 8006630:	2900      	cmp	r1, #0
 8006632:	d148      	bne.n	80066c6 <USB_ActivateEndpoint+0x23a>
 8006634:	f833 1022 	ldrh.w	r1, [r3, r2, lsl #2]
 8006638:	044e      	lsls	r6, r1, #17
 800663a:	d50d      	bpl.n	8006658 <USB_ActivateEndpoint+0x1cc>
 800663c:	f833 1022 	ldrh.w	r1, [r3, r2, lsl #2]
 8006640:	f421 41e0 	bic.w	r1, r1, #28672	@ 0x7000
 8006644:	f021 0170 	bic.w	r1, r1, #112	@ 0x70
 8006648:	0409      	lsls	r1, r1, #16
 800664a:	0c09      	lsrs	r1, r1, #16
 800664c:	f441 4140 	orr.w	r1, r1, #49152	@ 0xc000
 8006650:	f041 0180 	orr.w	r1, r1, #128	@ 0x80
 8006654:	f823 1022 	strh.w	r1, [r3, r2, lsl #2]
 8006658:	f833 1022 	ldrh.w	r1, [r3, r2, lsl #2]
 800665c:	064d      	lsls	r5, r1, #25
 800665e:	d50d      	bpl.n	800667c <USB_ActivateEndpoint+0x1f0>
 8006660:	f833 1022 	ldrh.w	r1, [r3, r2, lsl #2]
 8006664:	f421 41e0 	bic.w	r1, r1, #28672	@ 0x7000
 8006668:	f021 0170 	bic.w	r1, r1, #112	@ 0x70
 800666c:	0409      	lsls	r1, r1, #16
 800666e:	0c09      	lsrs	r1, r1, #16
 8006670:	f441 4100 	orr.w	r1, r1, #32768	@ 0x8000
 8006674:	f041 01c0 	orr.w	r1, r1, #192	@ 0xc0
 8006678:	f823 1022 	strh.w	r1, [r3, r2, lsl #2]
 800667c:	f248 0480 	movw	r4, #32896	@ 0x8080
 8006680:	f833 1022 	ldrh.w	r1, [r3, r2, lsl #2]
 8006684:	f421 4180 	bic.w	r1, r1, #16384	@ 0x4000
 8006688:	f021 0170 	bic.w	r1, r1, #112	@ 0x70
 800668c:	0409      	lsls	r1, r1, #16
 800668e:	0c09      	lsrs	r1, r1, #16
 8006690:	f481 5140 	eor.w	r1, r1, #12288	@ 0x3000
 8006694:	4321      	orrs	r1, r4
 8006696:	f823 1022 	strh.w	r1, [r3, r2, lsl #2]
 800669a:	f833 1022 	ldrh.w	r1, [r3, r2, lsl #2]
 800669e:	f421 41e0 	bic.w	r1, r1, #28672	@ 0x7000
 80066a2:	f021 0140 	bic.w	r1, r1, #64	@ 0x40
 80066a6:	0409      	lsls	r1, r1, #16
 80066a8:	0c09      	lsrs	r1, r1, #16
 80066aa:	430c      	orrs	r4, r1
 80066ac:	f823 4022 	strh.w	r4, [r3, r2, lsl #2]
 80066b0:	e78b      	b.n	80065ca <USB_ActivateEndpoint+0x13e>
 80066b2:	f424 44e2 	bic.w	r4, r4, #28928	@ 0x7100
 80066b6:	f024 0470 	bic.w	r4, r4, #112	@ 0x70
 80066ba:	0424      	lsls	r4, r4, #16
 80066bc:	0c24      	lsrs	r4, r4, #16
 80066be:	4327      	orrs	r7, r4
 80066c0:	f823 7022 	strh.w	r7, [r3, r2, lsl #2]
 80066c4:	e7a1      	b.n	800660a <USB_ActivateEndpoint+0x17e>
 80066c6:	f833 1022 	ldrh.w	r1, [r3, r2, lsl #2]
 80066ca:	044c      	lsls	r4, r1, #17
 80066cc:	d50d      	bpl.n	80066ea <USB_ActivateEndpoint+0x25e>
 80066ce:	f833 1022 	ldrh.w	r1, [r3, r2, lsl #2]
 80066d2:	f421 41e0 	bic.w	r1, r1, #28672	@ 0x7000
 80066d6:	f021 0170 	bic.w	r1, r1, #112	@ 0x70
 80066da:	0409      	lsls	r1, r1, #16
 80066dc:	0c09      	lsrs	r1, r1, #16
 80066de:	f441 4140 	orr.w	r1, r1, #49152	@ 0xc000
 80066e2:	f041 0180 	orr.w	r1, r1, #128	@ 0x80
 80066e6:	f823 1022 	strh.w	r1, [r3, r2, lsl #2]
 80066ea:	f833 1022 	ldrh.w	r1, [r3, r2, lsl #2]
 80066ee:	0649      	lsls	r1, r1, #25
 80066f0:	d50d      	bpl.n	800670e <USB_ActivateEndpoint+0x282>
 80066f2:	f833 1022 	ldrh.w	r1, [r3, r2, lsl #2]
 80066f6:	f421 41e0 	bic.w	r1, r1, #28672	@ 0x7000
 80066fa:	f021 0170 	bic.w	r1, r1, #112	@ 0x70
 80066fe:	0409      	lsls	r1, r1, #16
 8006700:	0c09      	lsrs	r1, r1, #16
 8006702:	f441 4100 	orr.w	r1, r1, #32768	@ 0x8000
 8006706:	f041 01c0 	orr.w	r1, r1, #192	@ 0xc0
 800670a:	f823 1022 	strh.w	r1, [r3, r2, lsl #2]
 800670e:	f833 1022 	ldrh.w	r1, [r3, r2, lsl #2]
 8006712:	4c0c      	ldr	r4, [pc, #48]	@ (8006744 <USB_ActivateEndpoint+0x2b8>)
 8006714:	b289      	uxth	r1, r1
 8006716:	4021      	ands	r1, r4
 8006718:	2d01      	cmp	r5, #1
 800671a:	bf18      	it	ne
 800671c:	f081 0120 	eorne.w	r1, r1, #32
 8006720:	f441 4100 	orr.w	r1, r1, #32768	@ 0x8000
 8006724:	f041 0180 	orr.w	r1, r1, #128	@ 0x80
 8006728:	f823 1022 	strh.w	r1, [r3, r2, lsl #2]
 800672c:	f833 1022 	ldrh.w	r1, [r3, r2, lsl #2]
 8006730:	f421 4180 	bic.w	r1, r1, #16384	@ 0x4000
 8006734:	f021 0170 	bic.w	r1, r1, #112	@ 0x70
 8006738:	0409      	lsls	r1, r1, #16
 800673a:	0c09      	lsrs	r1, r1, #16
 800673c:	e6f0      	b.n	8006520 <USB_ActivateEndpoint+0x94>
 800673e:	bf00      	nop
 8006740:	ffff8f8f 	.word	0xffff8f8f
 8006744:	ffff8fbf 	.word	0xffff8fbf
 8006748:	ffffbf8f 	.word	0xffffbf8f

0800674c <USB_DeactivateEndpoint>:
 800674c:	784a      	ldrb	r2, [r1, #1]
 800674e:	780b      	ldrb	r3, [r1, #0]
 8006750:	7b09      	ldrb	r1, [r1, #12]
 8006752:	bbd9      	cbnz	r1, 80067cc <USB_DeactivateEndpoint+0x80>
 8006754:	b30a      	cbz	r2, 800679a <USB_DeactivateEndpoint+0x4e>
 8006756:	f830 2023 	ldrh.w	r2, [r0, r3, lsl #2]
 800675a:	0651      	lsls	r1, r2, #25
 800675c:	d50d      	bpl.n	800677a <USB_DeactivateEndpoint+0x2e>
 800675e:	f830 2023 	ldrh.w	r2, [r0, r3, lsl #2]
 8006762:	f422 42e0 	bic.w	r2, r2, #28672	@ 0x7000
 8006766:	f022 0270 	bic.w	r2, r2, #112	@ 0x70
 800676a:	0412      	lsls	r2, r2, #16
 800676c:	0c12      	lsrs	r2, r2, #16
 800676e:	f442 4200 	orr.w	r2, r2, #32768	@ 0x8000
 8006772:	f042 02c0 	orr.w	r2, r2, #192	@ 0xc0
 8006776:	f820 2023 	strh.w	r2, [r0, r3, lsl #2]
 800677a:	f830 2023 	ldrh.w	r2, [r0, r3, lsl #2]
 800677e:	f422 42e0 	bic.w	r2, r2, #28672	@ 0x7000
 8006782:	f022 0240 	bic.w	r2, r2, #64	@ 0x40
 8006786:	0412      	lsls	r2, r2, #16
 8006788:	0c12      	lsrs	r2, r2, #16
 800678a:	f442 4200 	orr.w	r2, r2, #32768	@ 0x8000
 800678e:	f042 0280 	orr.w	r2, r2, #128	@ 0x80
 8006792:	f820 2023 	strh.w	r2, [r0, r3, lsl #2]
 8006796:	2000      	movs	r0, #0
 8006798:	4770      	bx	lr
 800679a:	f830 2023 	ldrh.w	r2, [r0, r3, lsl #2]
 800679e:	0452      	lsls	r2, r2, #17
 80067a0:	d50d      	bpl.n	80067be <USB_DeactivateEndpoint+0x72>
 80067a2:	f830 2023 	ldrh.w	r2, [r0, r3, lsl #2]
 80067a6:	f422 42e0 	bic.w	r2, r2, #28672	@ 0x7000
 80067aa:	f022 0270 	bic.w	r2, r2, #112	@ 0x70
 80067ae:	0412      	lsls	r2, r2, #16
 80067b0:	0c12      	lsrs	r2, r2, #16
 80067b2:	f442 4240 	orr.w	r2, r2, #49152	@ 0xc000
 80067b6:	f042 0280 	orr.w	r2, r2, #128	@ 0x80
 80067ba:	f820 2023 	strh.w	r2, [r0, r3, lsl #2]
 80067be:	f830 2023 	ldrh.w	r2, [r0, r3, lsl #2]
 80067c2:	f422 4280 	bic.w	r2, r2, #16384	@ 0x4000
 80067c6:	f022 0270 	bic.w	r2, r2, #112	@ 0x70
 80067ca:	e7dc      	b.n	8006786 <USB_DeactivateEndpoint+0x3a>
 80067cc:	2a00      	cmp	r2, #0
 80067ce:	d14a      	bne.n	8006866 <USB_DeactivateEndpoint+0x11a>
 80067d0:	f830 2023 	ldrh.w	r2, [r0, r3, lsl #2]
 80067d4:	0451      	lsls	r1, r2, #17
 80067d6:	d50d      	bpl.n	80067f4 <USB_DeactivateEndpoint+0xa8>
 80067d8:	f830 2023 	ldrh.w	r2, [r0, r3, lsl #2]
 80067dc:	f422 42e0 	bic.w	r2, r2, #28672	@ 0x7000
 80067e0:	f022 0270 	bic.w	r2, r2, #112	@ 0x70
 80067e4:	0412      	lsls	r2, r2, #16
 80067e6:	0c12      	lsrs	r2, r2, #16
 80067e8:	f442 4240 	orr.w	r2, r2, #49152	@ 0xc000
 80067ec:	f042 0280 	orr.w	r2, r2, #128	@ 0x80
 80067f0:	f820 2023 	strh.w	r2, [r0, r3, lsl #2]
 80067f4:	f830 2023 	ldrh.w	r2, [r0, r3, lsl #2]
 80067f8:	0652      	lsls	r2, r2, #25
 80067fa:	d50d      	bpl.n	8006818 <USB_DeactivateEndpoint+0xcc>
 80067fc:	f830 2023 	ldrh.w	r2, [r0, r3, lsl #2]
 8006800:	f422 42e0 	bic.w	r2, r2, #28672	@ 0x7000
 8006804:	f022 0270 	bic.w	r2, r2, #112	@ 0x70
 8006808:	0412      	lsls	r2, r2, #16
 800680a:	0c12      	lsrs	r2, r2, #16
 800680c:	f442 4200 	orr.w	r2, r2, #32768	@ 0x8000
 8006810:	f042 02c0 	orr.w	r2, r2, #192	@ 0xc0
 8006814:	f820 2023 	strh.w	r2, [r0, r3, lsl #2]
 8006818:	f248 0180 	movw	r1, #32896	@ 0x8080
 800681c:	f830 2023 	ldrh.w	r2, [r0, r3, lsl #2]
 8006820:	f422 42e0 	bic.w	r2, r2, #28672	@ 0x7000
 8006824:	f022 0270 	bic.w	r2, r2, #112	@ 0x70
 8006828:	0412      	lsls	r2, r2, #16
 800682a:	0c12      	lsrs	r2, r2, #16
 800682c:	f442 4200 	orr.w	r2, r2, #32768	@ 0x8000
 8006830:	f042 02c0 	orr.w	r2, r2, #192	@ 0xc0
 8006834:	f820 2023 	strh.w	r2, [r0, r3, lsl #2]
 8006838:	f830 2023 	ldrh.w	r2, [r0, r3, lsl #2]
 800683c:	f422 4280 	bic.w	r2, r2, #16384	@ 0x4000
 8006840:	f022 0270 	bic.w	r2, r2, #112	@ 0x70
 8006844:	0412      	lsls	r2, r2, #16
 8006846:	0c12      	lsrs	r2, r2, #16
 8006848:	430a      	orrs	r2, r1
 800684a:	f820 2023 	strh.w	r2, [r0, r3, lsl #2]
 800684e:	f830 2023 	ldrh.w	r2, [r0, r3, lsl #2]
 8006852:	f422 42e0 	bic.w	r2, r2, #28672	@ 0x7000
 8006856:	f022 0240 	bic.w	r2, r2, #64	@ 0x40
 800685a:	0412      	lsls	r2, r2, #16
 800685c:	0c12      	lsrs	r2, r2, #16
 800685e:	4311      	orrs	r1, r2
 8006860:	f820 1023 	strh.w	r1, [r0, r3, lsl #2]
 8006864:	e797      	b.n	8006796 <USB_DeactivateEndpoint+0x4a>
 8006866:	f830 2023 	ldrh.w	r2, [r0, r3, lsl #2]
 800686a:	0451      	lsls	r1, r2, #17
 800686c:	d50d      	bpl.n	800688a <USB_DeactivateEndpoint+0x13e>
 800686e:	f830 2023 	ldrh.w	r2, [r0, r3, lsl #2]
 8006872:	f422 42e0 	bic.w	r2, r2, #28672	@ 0x7000
 8006876:	f022 0270 	bic.w	r2, r2, #112	@ 0x70
 800687a:	0412      	lsls	r2, r2, #16
 800687c:	0c12      	lsrs	r2, r2, #16
 800687e:	f442 4240 	orr.w	r2, r2, #49152	@ 0xc000
 8006882:	f042 0280 	orr.w	r2, r2, #128	@ 0x80
 8006886:	f820 2023 	strh.w	r2, [r0, r3, lsl #2]
 800688a:	f830 2023 	ldrh.w	r2, [r0, r3, lsl #2]
 800688e:	0652      	lsls	r2, r2, #25
 8006890:	d50d      	bpl.n	80068ae <USB_DeactivateEndpoint+0x162>
 8006892:	f830 2023 	ldrh.w	r2, [r0, r3, lsl #2]
 8006896:	f422 42e0 	bic.w	r2, r2, #28672	@ 0x7000
 800689a:	f022 0270 	bic.w	r2, r2, #112	@ 0x70
 800689e:	0412      	lsls	r2, r2, #16
 80068a0:	0c12      	lsrs	r2, r2, #16
 80068a2:	f442 4200 	orr.w	r2, r2, #32768	@ 0x8000
 80068a6:	f042 02c0 	orr.w	r2, r2, #192	@ 0xc0
 80068aa:	f820 2023 	strh.w	r2, [r0, r3, lsl #2]
 80068ae:	f248 0180 	movw	r1, #32896	@ 0x8080
 80068b2:	f830 2023 	ldrh.w	r2, [r0, r3, lsl #2]
 80068b6:	f422 42e0 	bic.w	r2, r2, #28672	@ 0x7000
 80068ba:	f022 0270 	bic.w	r2, r2, #112	@ 0x70
 80068be:	0412      	lsls	r2, r2, #16
 80068c0:	0c12      	lsrs	r2, r2, #16
 80068c2:	f442 4240 	orr.w	r2, r2, #49152	@ 0xc000
 80068c6:	f042 0280 	orr.w	r2, r2, #128	@ 0x80
 80068ca:	f820 2023 	strh.w	r2, [r0, r3, lsl #2]
 80068ce:	f830 2023 	ldrh.w	r2, [r0, r3, lsl #2]
 80068d2:	f422 42e0 	bic.w	r2, r2, #28672	@ 0x7000
 80068d6:	f022 0240 	bic.w	r2, r2, #64	@ 0x40
 80068da:	0412      	lsls	r2, r2, #16
 80068dc:	0c12      	lsrs	r2, r2, #16
 80068de:	430a      	orrs	r2, r1
 80068e0:	f820 2023 	strh.w	r2, [r0, r3, lsl #2]
 80068e4:	f830 2023 	ldrh.w	r2, [r0, r3, lsl #2]
 80068e8:	f422 4280 	bic.w	r2, r2, #16384	@ 0x4000
 80068ec:	f022 0270 	bic.w	r2, r2, #112	@ 0x70
 80068f0:	e7b3      	b.n	800685a <USB_DeactivateEndpoint+0x10e>

080068f2 <USB_EPSetStall>:
 80068f2:	784b      	ldrb	r3, [r1, #1]
 80068f4:	780a      	ldrb	r2, [r1, #0]
 80068f6:	b18b      	cbz	r3, 800691c <USB_EPSetStall+0x2a>
 80068f8:	f830 3022 	ldrh.w	r3, [r0, r2, lsl #2]
 80068fc:	f423 43e0 	bic.w	r3, r3, #28672	@ 0x7000
 8006900:	f023 0340 	bic.w	r3, r3, #64	@ 0x40
 8006904:	041b      	lsls	r3, r3, #16
 8006906:	0c1b      	lsrs	r3, r3, #16
 8006908:	f083 0310 	eor.w	r3, r3, #16
 800690c:	f443 4300 	orr.w	r3, r3, #32768	@ 0x8000
 8006910:	f043 0380 	orr.w	r3, r3, #128	@ 0x80
 8006914:	f820 3022 	strh.w	r3, [r0, r2, lsl #2]
 8006918:	2000      	movs	r0, #0
 800691a:	4770      	bx	lr
 800691c:	f830 3022 	ldrh.w	r3, [r0, r2, lsl #2]
 8006920:	f423 4380 	bic.w	r3, r3, #16384	@ 0x4000
 8006924:	f023 0370 	bic.w	r3, r3, #112	@ 0x70
 8006928:	041b      	lsls	r3, r3, #16
 800692a:	0c1b      	lsrs	r3, r3, #16
 800692c:	f483 5380 	eor.w	r3, r3, #4096	@ 0x1000
 8006930:	e7ec      	b.n	800690c <USB_EPSetStall+0x1a>

08006932 <USB_EPClearStall>:
 8006932:	7b0b      	ldrb	r3, [r1, #12]
 8006934:	bb3b      	cbnz	r3, 8006986 <USB_EPClearStall+0x54>
 8006936:	784b      	ldrb	r3, [r1, #1]
 8006938:	780a      	ldrb	r2, [r1, #0]
 800693a:	b333      	cbz	r3, 800698a <USB_EPClearStall+0x58>
 800693c:	f830 3022 	ldrh.w	r3, [r0, r2, lsl #2]
 8006940:	065b      	lsls	r3, r3, #25
 8006942:	d50d      	bpl.n	8006960 <USB_EPClearStall+0x2e>
 8006944:	f830 3022 	ldrh.w	r3, [r0, r2, lsl #2]
 8006948:	f423 43e0 	bic.w	r3, r3, #28672	@ 0x7000
 800694c:	f023 0370 	bic.w	r3, r3, #112	@ 0x70
 8006950:	041b      	lsls	r3, r3, #16
 8006952:	0c1b      	lsrs	r3, r3, #16
 8006954:	f443 4300 	orr.w	r3, r3, #32768	@ 0x8000
 8006958:	f043 03c0 	orr.w	r3, r3, #192	@ 0xc0
 800695c:	f820 3022 	strh.w	r3, [r0, r2, lsl #2]
 8006960:	78cb      	ldrb	r3, [r1, #3]
 8006962:	2b01      	cmp	r3, #1
 8006964:	d00f      	beq.n	8006986 <USB_EPClearStall+0x54>
 8006966:	f830 3022 	ldrh.w	r3, [r0, r2, lsl #2]
 800696a:	f423 43e0 	bic.w	r3, r3, #28672	@ 0x7000
 800696e:	f023 0340 	bic.w	r3, r3, #64	@ 0x40
 8006972:	041b      	lsls	r3, r3, #16
 8006974:	0c1b      	lsrs	r3, r3, #16
 8006976:	f083 0320 	eor.w	r3, r3, #32
 800697a:	f443 4300 	orr.w	r3, r3, #32768	@ 0x8000
 800697e:	f043 0380 	orr.w	r3, r3, #128	@ 0x80
 8006982:	f820 3022 	strh.w	r3, [r0, r2, lsl #2]
 8006986:	2000      	movs	r0, #0
 8006988:	4770      	bx	lr
 800698a:	f830 3022 	ldrh.w	r3, [r0, r2, lsl #2]
 800698e:	045b      	lsls	r3, r3, #17
 8006990:	d50d      	bpl.n	80069ae <USB_EPClearStall+0x7c>
 8006992:	f830 3022 	ldrh.w	r3, [r0, r2, lsl #2]
 8006996:	f423 43e0 	bic.w	r3, r3, #28672	@ 0x7000
 800699a:	f023 0370 	bic.w	r3, r3, #112	@ 0x70
 800699e:	041b      	lsls	r3, r3, #16
 80069a0:	0c1b      	lsrs	r3, r3, #16
 80069a2:	f443 4340 	orr.w	r3, r3, #49152	@ 0xc000
 80069a6:	f043 0380 	orr.w	r3, r3, #128	@ 0x80
 80069aa:	f820 3022 	strh.w	r3, [r0, r2, lsl #2]
 80069ae:	f830 3022 	ldrh.w	r3, [r0, r2, lsl #2]
 80069b2:	f423 4380 	bic.w	r3, r3, #16384	@ 0x4000
 80069b6:	f023 0370 	bic.w	r3, r3, #112	@ 0x70
 80069ba:	041b      	lsls	r3, r3, #16
 80069bc:	0c1b      	lsrs	r3, r3, #16
 80069be:	f483 5340 	eor.w	r3, r3, #12288	@ 0x3000
 80069c2:	e7da      	b.n	800697a <USB_EPClearStall+0x48>

080069c4 <USB_SetDevAddress>:
 80069c4:	b911      	cbnz	r1, 80069cc <USB_SetDevAddress+0x8>
 80069c6:	2380      	movs	r3, #128	@ 0x80
 80069c8:	f8a0 304c 	strh.w	r3, [r0, #76]	@ 0x4c
 80069cc:	2000      	movs	r0, #0
 80069ce:	4770      	bx	lr

080069d0 <USB_DevConnect>:
 80069d0:	2000      	movs	r0, #0
 80069d2:	4770      	bx	lr

080069d4 <USB_DevDisconnect>:
 80069d4:	2000      	movs	r0, #0
 80069d6:	4770      	bx	lr

080069d8 <USB_ReadInterrupts>:
 80069d8:	f8b0 0044 	ldrh.w	r0, [r0, #68]	@ 0x44
 80069dc:	b280      	uxth	r0, r0
 80069de:	4770      	bx	lr

080069e0 <USB_EP0_OutStart>:
 80069e0:	2000      	movs	r0, #0
 80069e2:	4770      	bx	lr

080069e4 <USB_WritePMA>:
 80069e4:	eb00 0042 	add.w	r0, r0, r2, lsl #1
 80069e8:	3301      	adds	r3, #1
 80069ea:	f500 6080 	add.w	r0, r0, #1024	@ 0x400
 80069ee:	085b      	lsrs	r3, r3, #1
 80069f0:	eb00 0383 	add.w	r3, r0, r3, lsl #2
 80069f4:	4283      	cmp	r3, r0
 80069f6:	d100      	bne.n	80069fa <USB_WritePMA+0x16>
 80069f8:	4770      	bx	lr
 80069fa:	f831 2b02 	ldrh.w	r2, [r1], #2
 80069fe:	f820 2b04 	strh.w	r2, [r0], #4
 8006a02:	e7f7      	b.n	80069f4 <USB_WritePMA+0x10>

08006a04 <USB_EPStartXfer>:
 8006a04:	e92d 47f0 	stmdb	sp!, {r4, r5, r6, r7, r8, r9, sl, lr}
 8006a08:	784b      	ldrb	r3, [r1, #1]
 8006a0a:	4604      	mov	r4, r0
 8006a0c:	2b01      	cmp	r3, #1
 8006a0e:	460d      	mov	r5, r1
 8006a10:	7b0a      	ldrb	r2, [r1, #12]
 8006a12:	f040 8115 	bne.w	8006c40 <USB_EPStartXfer+0x23c>
 8006a16:	f8d1 9010 	ldr.w	r9, [r1, #16]
 8006a1a:	698f      	ldr	r7, [r1, #24]
 8006a1c:	6949      	ldr	r1, [r1, #20]
 8006a1e:	454f      	cmp	r7, r9
 8006a20:	bf28      	it	cs
 8006a22:	464f      	movcs	r7, r9
 8006a24:	bb0a      	cbnz	r2, 8006a6a <USB_EPStartXfer+0x66>
 8006a26:	b2bf      	uxth	r7, r7
 8006a28:	88ea      	ldrh	r2, [r5, #6]
 8006a2a:	463b      	mov	r3, r7
 8006a2c:	f7ff ffda 	bl	80069e4 <USB_WritePMA>
 8006a30:	f8b4 0050 	ldrh.w	r0, [r4, #80]	@ 0x50
 8006a34:	7829      	ldrb	r1, [r5, #0]
 8006a36:	b280      	uxth	r0, r0
 8006a38:	f204 4204 	addw	r2, r4, #1028	@ 0x404
 8006a3c:	0109      	lsls	r1, r1, #4
 8006a3e:	4402      	add	r2, r0
 8006a40:	528f      	strh	r7, [r1, r2]
 8006a42:	782a      	ldrb	r2, [r5, #0]
 8006a44:	f834 3022 	ldrh.w	r3, [r4, r2, lsl #2]
 8006a48:	f423 43e0 	bic.w	r3, r3, #28672	@ 0x7000
 8006a4c:	f023 0340 	bic.w	r3, r3, #64	@ 0x40
 8006a50:	041b      	lsls	r3, r3, #16
 8006a52:	0c1b      	lsrs	r3, r3, #16
 8006a54:	f083 0330 	eor.w	r3, r3, #48	@ 0x30
 8006a58:	2000      	movs	r0, #0
 8006a5a:	f443 4300 	orr.w	r3, r3, #32768	@ 0x8000
 8006a5e:	f043 0380 	orr.w	r3, r3, #128	@ 0x80
 8006a62:	f824 3022 	strh.w	r3, [r4, r2, lsl #2]
 8006a66:	e8bd 87f0 	ldmia.w	sp!, {r4, r5, r6, r7, r8, r9, sl, pc}
 8006a6a:	78eb      	ldrb	r3, [r5, #3]
 8006a6c:	f895 e000 	ldrb.w	lr, [r5]
 8006a70:	2b02      	cmp	r3, #2
 8006a72:	6a2e      	ldr	r6, [r5, #32]
 8006a74:	ea4f 1c0e 	mov.w	ip, lr, lsl #4
 8006a78:	f040 80cd 	bne.w	8006c16 <USB_EPStartXfer+0x212>
 8006a7c:	45b1      	cmp	r9, r6
 8006a7e:	f830 202e 	ldrh.w	r2, [r0, lr, lsl #2]
 8006a82:	f080 80b1 	bcs.w	8006be8 <USB_EPStartXfer+0x1e4>
 8006a86:	f422 42e0 	bic.w	r2, r2, #28672	@ 0x7000
 8006a8a:	f022 0270 	bic.w	r2, r2, #112	@ 0x70
 8006a8e:	0412      	lsls	r2, r2, #16
 8006a90:	0c12      	lsrs	r2, r2, #16
 8006a92:	f442 4201 	orr.w	r2, r2, #33024	@ 0x8100
 8006a96:	f042 0280 	orr.w	r2, r2, #128	@ 0x80
 8006a9a:	f820 202e 	strh.w	r2, [r0, lr, lsl #2]
 8006a9e:	f830 802e 	ldrh.w	r8, [r0, lr, lsl #2]
 8006aa2:	f8b0 e050 	ldrh.w	lr, [r0, #80]	@ 0x50
 8006aa6:	1bf6      	subs	r6, r6, r7
 8006aa8:	f018 0840 	ands.w	r8, r8, #64	@ 0x40
 8006aac:	622e      	str	r6, [r5, #32]
 8006aae:	eb01 0a07 	add.w	sl, r1, r7
 8006ab2:	b2bb      	uxth	r3, r7
 8006ab4:	fa1f fe8e 	uxth.w	lr, lr
 8006ab8:	d04d      	beq.n	8006b56 <USB_EPStartXfer+0x152>
 8006aba:	f200 420c 	addw	r2, r0, #1036	@ 0x40c
 8006abe:	4472      	add	r2, lr
 8006ac0:	f822 300c 	strh.w	r3, [r2, ip]
 8006ac4:	896a      	ldrh	r2, [r5, #10]
 8006ac6:	f7ff ff8d 	bl	80069e4 <USB_WritePMA>
 8006aca:	45b1      	cmp	r9, r6
 8006acc:	bf36      	itet	cc
 8006ace:	1bf3      	subcc	r3, r6, r7
 8006ad0:	2300      	movcs	r3, #0
 8006ad2:	463e      	movcc	r6, r7
 8006ad4:	786a      	ldrb	r2, [r5, #1]
 8006ad6:	622b      	str	r3, [r5, #32]
 8006ad8:	f8c5 a014 	str.w	sl, [r5, #20]
 8006adc:	b2b3      	uxth	r3, r6
 8006ade:	bb72      	cbnz	r2, 8006b3e <USB_EPStartXfer+0x13a>
 8006ae0:	f8b4 2050 	ldrh.w	r2, [r4, #80]	@ 0x50
 8006ae4:	7828      	ldrb	r0, [r5, #0]
 8006ae6:	b292      	uxth	r2, r2
 8006ae8:	f204 4104 	addw	r1, r4, #1028	@ 0x404
 8006aec:	0100      	lsls	r0, r0, #4
 8006aee:	4411      	add	r1, r2
 8006af0:	5a42      	ldrh	r2, [r0, r1]
 8006af2:	2e3e      	cmp	r6, #62	@ 0x3e
 8006af4:	f3c2 0209 	ubfx	r2, r2, #0, #10
 8006af8:	5242      	strh	r2, [r0, r1]
 8006afa:	d915      	bls.n	8006b28 <USB_EPStartXfer+0x124>
 8006afc:	06f2      	lsls	r2, r6, #27
 8006afe:	5a42      	ldrh	r2, [r0, r1]
 8006b00:	ea4f 1756 	mov.w	r7, r6, lsr #5
 8006b04:	bf08      	it	eq
 8006b06:	f107 37ff 	addeq.w	r7, r7, #4294967295
 8006b0a:	b292      	uxth	r2, r2
 8006b0c:	ea42 2287 	orr.w	r2, r2, r7, lsl #10
 8006b10:	ea6f 4242 	mvn.w	r2, r2, lsl #17
 8006b14:	ea6f 4252 	mvn.w	r2, r2, lsr #17
 8006b18:	b292      	uxth	r2, r2
 8006b1a:	5242      	strh	r2, [r0, r1]
 8006b1c:	892a      	ldrh	r2, [r5, #8]
 8006b1e:	4651      	mov	r1, sl
 8006b20:	4620      	mov	r0, r4
 8006b22:	f7ff ff5f 	bl	80069e4 <USB_WritePMA>
 8006b26:	e78c      	b.n	8006a42 <USB_EPStartXfer+0x3e>
 8006b28:	5a42      	ldrh	r2, [r0, r1]
 8006b2a:	2e00      	cmp	r6, #0
 8006b2c:	d0f0      	beq.n	8006b10 <USB_EPStartXfer+0x10c>
 8006b2e:	f006 0701 	and.w	r7, r6, #1
 8006b32:	b292      	uxth	r2, r2
 8006b34:	eb07 0656 	add.w	r6, r7, r6, lsr #1
 8006b38:	ea42 2286 	orr.w	r2, r2, r6, lsl #10
 8006b3c:	e7ec      	b.n	8006b18 <USB_EPStartXfer+0x114>
 8006b3e:	2a01      	cmp	r2, #1
 8006b40:	d1ec      	bne.n	8006b1c <USB_EPStartXfer+0x118>
 8006b42:	f8b4 0050 	ldrh.w	r0, [r4, #80]	@ 0x50
 8006b46:	7829      	ldrb	r1, [r5, #0]
 8006b48:	b280      	uxth	r0, r0
 8006b4a:	f204 4204 	addw	r2, r4, #1028	@ 0x404
 8006b4e:	0109      	lsls	r1, r1, #4
 8006b50:	4402      	add	r2, r0
 8006b52:	528b      	strh	r3, [r1, r2]
 8006b54:	e7e2      	b.n	8006b1c <USB_EPStartXfer+0x118>
 8006b56:	f200 4204 	addw	r2, r0, #1028	@ 0x404
 8006b5a:	4472      	add	r2, lr
 8006b5c:	f822 300c 	strh.w	r3, [r2, ip]
 8006b60:	892a      	ldrh	r2, [r5, #8]
 8006b62:	f7ff ff3f 	bl	80069e4 <USB_WritePMA>
 8006b66:	45b1      	cmp	r9, r6
 8006b68:	bf36      	itet	cc
 8006b6a:	1bf3      	subcc	r3, r6, r7
 8006b6c:	4643      	movcs	r3, r8
 8006b6e:	463e      	movcc	r6, r7
 8006b70:	786a      	ldrb	r2, [r5, #1]
 8006b72:	622b      	str	r3, [r5, #32]
 8006b74:	f8c5 a014 	str.w	sl, [r5, #20]
 8006b78:	b2b3      	uxth	r3, r6
 8006b7a:	bb4a      	cbnz	r2, 8006bd0 <USB_EPStartXfer+0x1cc>
 8006b7c:	f8b4 2050 	ldrh.w	r2, [r4, #80]	@ 0x50
 8006b80:	7828      	ldrb	r0, [r5, #0]
 8006b82:	b292      	uxth	r2, r2
 8006b84:	f204 410c 	addw	r1, r4, #1036	@ 0x40c
 8006b88:	0100      	lsls	r0, r0, #4
 8006b8a:	4411      	add	r1, r2
 8006b8c:	5a42      	ldrh	r2, [r0, r1]
 8006b8e:	2e3e      	cmp	r6, #62	@ 0x3e
 8006b90:	f3c2 0209 	ubfx	r2, r2, #0, #10
 8006b94:	5242      	strh	r2, [r0, r1]
 8006b96:	d910      	bls.n	8006bba <USB_EPStartXfer+0x1b6>
 8006b98:	5a42      	ldrh	r2, [r0, r1]
 8006b9a:	0977      	lsrs	r7, r6, #5
 8006b9c:	06f6      	lsls	r6, r6, #27
 8006b9e:	bf08      	it	eq
 8006ba0:	f107 37ff 	addeq.w	r7, r7, #4294967295
 8006ba4:	b292      	uxth	r2, r2
 8006ba6:	ea42 2287 	orr.w	r2, r2, r7, lsl #10
 8006baa:	ea6f 4242 	mvn.w	r2, r2, lsl #17
 8006bae:	ea6f 4252 	mvn.w	r2, r2, lsr #17
 8006bb2:	b292      	uxth	r2, r2
 8006bb4:	5242      	strh	r2, [r0, r1]
 8006bb6:	896a      	ldrh	r2, [r5, #10]
 8006bb8:	e7b1      	b.n	8006b1e <USB_EPStartXfer+0x11a>
 8006bba:	5a42      	ldrh	r2, [r0, r1]
 8006bbc:	2e00      	cmp	r6, #0
 8006bbe:	d0f4      	beq.n	8006baa <USB_EPStartXfer+0x1a6>
 8006bc0:	f006 0701 	and.w	r7, r6, #1
 8006bc4:	b292      	uxth	r2, r2
 8006bc6:	eb07 0656 	add.w	r6, r7, r6, lsr #1
 8006bca:	ea42 2286 	orr.w	r2, r2, r6, lsl #10
 8006bce:	e7f0      	b.n	8006bb2 <USB_EPStartXfer+0x1ae>
 8006bd0:	2a01      	cmp	r2, #1
 8006bd2:	d1f0      	bne.n	8006bb6 <USB_EPStartXfer+0x1b2>
 8006bd4:	f8b4 0050 	ldrh.w	r0, [r4, #80]	@ 0x50
 8006bd8:	7829      	ldrb	r1, [r5, #0]
 8006bda:	b280      	uxth	r0, r0
 8006bdc:	f204 420c 	addw	r2, r4, #1036	@ 0x40c
 8006be0:	0109      	lsls	r1, r1, #4
 8006be2:	4402      	add	r2, r0
 8006be4:	528b      	strh	r3, [r1, r2]
 8006be6:	e7e6      	b.n	8006bb6 <USB_EPStartXfer+0x1b2>
 8006be8:	f422 42e2 	bic.w	r2, r2, #28928	@ 0x7100
 8006bec:	f022 0270 	bic.w	r2, r2, #112	@ 0x70
 8006bf0:	0412      	lsls	r2, r2, #16
 8006bf2:	0c12      	lsrs	r2, r2, #16
 8006bf4:	f442 4200 	orr.w	r2, r2, #32768	@ 0x8000
 8006bf8:	f042 0280 	orr.w	r2, r2, #128	@ 0x80
 8006bfc:	f820 202e 	strh.w	r2, [r0, lr, lsl #2]
 8006c00:	f8b0 3050 	ldrh.w	r3, [r0, #80]	@ 0x50
 8006c04:	f200 4204 	addw	r2, r0, #1028	@ 0x404
 8006c08:	b29b      	uxth	r3, r3
 8006c0a:	441a      	add	r2, r3
 8006c0c:	b2b3      	uxth	r3, r6
 8006c0e:	f822 300c 	strh.w	r3, [r2, ip]
 8006c12:	892a      	ldrh	r2, [r5, #8]
 8006c14:	e785      	b.n	8006b22 <USB_EPStartXfer+0x11e>
 8006c16:	f830 202e 	ldrh.w	r2, [r0, lr, lsl #2]
 8006c1a:	1bf6      	subs	r6, r6, r7
 8006c1c:	622e      	str	r6, [r5, #32]
 8006c1e:	f8b0 6050 	ldrh.w	r6, [r0, #80]	@ 0x50
 8006c22:	0652      	lsls	r2, r2, #25
 8006c24:	b2bb      	uxth	r3, r7
 8006c26:	b2b6      	uxth	r6, r6
 8006c28:	d506      	bpl.n	8006c38 <USB_EPStartXfer+0x234>
 8006c2a:	f200 420c 	addw	r2, r0, #1036	@ 0x40c
 8006c2e:	4432      	add	r2, r6
 8006c30:	f822 300c 	strh.w	r3, [r2, ip]
 8006c34:	896a      	ldrh	r2, [r5, #10]
 8006c36:	e774      	b.n	8006b22 <USB_EPStartXfer+0x11e>
 8006c38:	f200 4204 	addw	r2, r0, #1028	@ 0x404
 8006c3c:	4432      	add	r2, r6
 8006c3e:	e7e6      	b.n	8006c0e <USB_EPStartXfer+0x20a>
 8006c40:	2a00      	cmp	r2, #0
 8006c42:	d13b      	bne.n	8006cbc <USB_EPStartXfer+0x2b8>
 8006c44:	698b      	ldr	r3, [r1, #24]
 8006c46:	6909      	ldr	r1, [r1, #16]
 8006c48:	f8b0 0050 	ldrh.w	r0, [r0, #80]	@ 0x50
 8006c4c:	428b      	cmp	r3, r1
 8006c4e:	bf84      	itt	hi
 8006c50:	1a5a      	subhi	r2, r3, r1
 8006c52:	460b      	movhi	r3, r1
 8006c54:	7829      	ldrb	r1, [r5, #0]
 8006c56:	61aa      	str	r2, [r5, #24]
 8006c58:	b280      	uxth	r0, r0
 8006c5a:	f204 420c 	addw	r2, r4, #1036	@ 0x40c
 8006c5e:	0109      	lsls	r1, r1, #4
 8006c60:	4402      	add	r2, r0
 8006c62:	5a88      	ldrh	r0, [r1, r2]
 8006c64:	2b3e      	cmp	r3, #62	@ 0x3e
 8006c66:	f3c0 0009 	ubfx	r0, r0, #0, #10
 8006c6a:	5288      	strh	r0, [r1, r2]
 8006c6c:	d91a      	bls.n	8006ca4 <USB_EPStartXfer+0x2a0>
 8006c6e:	0958      	lsrs	r0, r3, #5
 8006c70:	06db      	lsls	r3, r3, #27
 8006c72:	5a8b      	ldrh	r3, [r1, r2]
 8006c74:	bf08      	it	eq
 8006c76:	f100 30ff 	addeq.w	r0, r0, #4294967295
 8006c7a:	b29b      	uxth	r3, r3
 8006c7c:	ea43 2380 	orr.w	r3, r3, r0, lsl #10
 8006c80:	ea6f 4343 	mvn.w	r3, r3, lsl #17
 8006c84:	ea6f 4353 	mvn.w	r3, r3, lsr #17
 8006c88:	b29b      	uxth	r3, r3
 8006c8a:	528b      	strh	r3, [r1, r2]
 8006c8c:	782a      	ldrb	r2, [r5, #0]
 8006c8e:	f834 3022 	ldrh.w	r3, [r4, r2, lsl #2]
 8006c92:	f423 4380 	bic.w	r3, r3, #16384	@ 0x4000
 8006c96:	f023 0370 	bic.w	r3, r3, #112	@ 0x70
 8006c9a:	041b      	lsls	r3, r3, #16
 8006c9c:	0c1b      	lsrs	r3, r3, #16
 8006c9e:	f483 5340 	eor.w	r3, r3, #12288	@ 0x3000
 8006ca2:	e6d9      	b.n	8006a58 <USB_EPStartXfer+0x54>
 8006ca4:	b90b      	cbnz	r3, 8006caa <USB_EPStartXfer+0x2a6>
 8006ca6:	5a8b      	ldrh	r3, [r1, r2]
 8006ca8:	e7ea      	b.n	8006c80 <USB_EPStartXfer+0x27c>
 8006caa:	5a88      	ldrh	r0, [r1, r2]
 8006cac:	f003 0601 	and.w	r6, r3, #1
 8006cb0:	b280      	uxth	r0, r0
 8006cb2:	eb06 0353 	add.w	r3, r6, r3, lsr #1
 8006cb6:	ea40 2383 	orr.w	r3, r0, r3, lsl #10
 8006cba:	e7e5      	b.n	8006c88 <USB_EPStartXfer+0x284>
 8006cbc:	78ca      	ldrb	r2, [r1, #3]
 8006cbe:	2a02      	cmp	r2, #2
 8006cc0:	d170      	bne.n	8006da4 <USB_EPStartXfer+0x3a0>
 8006cc2:	2b00      	cmp	r3, #0
 8006cc4:	d138      	bne.n	8006d38 <USB_EPStartXfer+0x334>
 8006cc6:	f8b0 2050 	ldrh.w	r2, [r0, #80]	@ 0x50
 8006cca:	780b      	ldrb	r3, [r1, #0]
 8006ccc:	b292      	uxth	r2, r2
 8006cce:	f200 4004 	addw	r0, r0, #1028	@ 0x404
 8006cd2:	011b      	lsls	r3, r3, #4
 8006cd4:	4410      	add	r0, r2
 8006cd6:	5ac2      	ldrh	r2, [r0, r3]
 8006cd8:	f3c2 0209 	ubfx	r2, r2, #0, #10
 8006cdc:	52c2      	strh	r2, [r0, r3]
 8006cde:	690a      	ldr	r2, [r1, #16]
 8006ce0:	2a3e      	cmp	r2, #62	@ 0x3e
 8006ce2:	d944      	bls.n	8006d6e <USB_EPStartXfer+0x36a>
 8006ce4:	5ac1      	ldrh	r1, [r0, r3]
 8006ce6:	0956      	lsrs	r6, r2, #5
 8006ce8:	06d7      	lsls	r7, r2, #27
 8006cea:	bf08      	it	eq
 8006cec:	f106 36ff 	addeq.w	r6, r6, #4294967295
 8006cf0:	b289      	uxth	r1, r1
 8006cf2:	ea41 2186 	orr.w	r1, r1, r6, lsl #10
 8006cf6:	ea6f 4141 	mvn.w	r1, r1, lsl #17
 8006cfa:	ea6f 4151 	mvn.w	r1, r1, lsr #17
 8006cfe:	b289      	uxth	r1, r1
 8006d00:	52c1      	strh	r1, [r0, r3]
 8006d02:	f8b4 0050 	ldrh.w	r0, [r4, #80]	@ 0x50
 8006d06:	f204 410c 	addw	r1, r4, #1036	@ 0x40c
 8006d0a:	b280      	uxth	r0, r0
 8006d0c:	4401      	add	r1, r0
 8006d0e:	5ac8      	ldrh	r0, [r1, r3]
 8006d10:	2a3e      	cmp	r2, #62	@ 0x3e
 8006d12:	f3c0 0009 	ubfx	r0, r0, #0, #10
 8006d16:	52c8      	strh	r0, [r1, r3]
 8006d18:	d934      	bls.n	8006d84 <USB_EPStartXfer+0x380>
 8006d1a:	0950      	lsrs	r0, r2, #5
 8006d1c:	06d6      	lsls	r6, r2, #27
 8006d1e:	5aca      	ldrh	r2, [r1, r3]
 8006d20:	bf08      	it	eq
 8006d22:	f100 30ff 	addeq.w	r0, r0, #4294967295
 8006d26:	b292      	uxth	r2, r2
 8006d28:	ea42 2280 	orr.w	r2, r2, r0, lsl #10
 8006d2c:	ea6f 4242 	mvn.w	r2, r2, lsl #17
 8006d30:	ea6f 4252 	mvn.w	r2, r2, lsr #17
 8006d34:	b292      	uxth	r2, r2
 8006d36:	52ca      	strh	r2, [r1, r3]
 8006d38:	69eb      	ldr	r3, [r5, #28]
 8006d3a:	2b00      	cmp	r3, #0
 8006d3c:	d0a6      	beq.n	8006c8c <USB_EPStartXfer+0x288>
 8006d3e:	782a      	ldrb	r2, [r5, #0]
 8006d40:	f834 1022 	ldrh.w	r1, [r4, r2, lsl #2]
 8006d44:	0448      	lsls	r0, r1, #17
 8006d46:	f001 0340 	and.w	r3, r1, #64	@ 0x40
 8006d4a:	d527      	bpl.n	8006d9c <USB_EPStartXfer+0x398>
 8006d4c:	2b00      	cmp	r3, #0
 8006d4e:	d09d      	beq.n	8006c8c <USB_EPStartXfer+0x288>
 8006d50:	f834 3022 	ldrh.w	r3, [r4, r2, lsl #2]
 8006d54:	f423 43e0 	bic.w	r3, r3, #28672	@ 0x7000
 8006d58:	f023 0370 	bic.w	r3, r3, #112	@ 0x70
 8006d5c:	041b      	lsls	r3, r3, #16
 8006d5e:	0c1b      	lsrs	r3, r3, #16
 8006d60:	f443 4300 	orr.w	r3, r3, #32768	@ 0x8000
 8006d64:	f043 03c0 	orr.w	r3, r3, #192	@ 0xc0
 8006d68:	f824 3022 	strh.w	r3, [r4, r2, lsl #2]
 8006d6c:	e78e      	b.n	8006c8c <USB_EPStartXfer+0x288>
 8006d6e:	5ac1      	ldrh	r1, [r0, r3]
 8006d70:	2a00      	cmp	r2, #0
 8006d72:	d0c0      	beq.n	8006cf6 <USB_EPStartXfer+0x2f2>
 8006d74:	f002 0601 	and.w	r6, r2, #1
 8006d78:	b289      	uxth	r1, r1
 8006d7a:	eb06 0652 	add.w	r6, r6, r2, lsr #1
 8006d7e:	ea41 2186 	orr.w	r1, r1, r6, lsl #10
 8006d82:	e7bc      	b.n	8006cfe <USB_EPStartXfer+0x2fa>
 8006d84:	b90a      	cbnz	r2, 8006d8a <USB_EPStartXfer+0x386>
 8006d86:	5aca      	ldrh	r2, [r1, r3]
 8006d88:	e7d0      	b.n	8006d2c <USB_EPStartXfer+0x328>
 8006d8a:	5ac8      	ldrh	r0, [r1, r3]
 8006d8c:	f002 0601 	and.w	r6, r2, #1
 8006d90:	b280      	uxth	r0, r0
 8006d92:	eb06 0252 	add.w	r2, r6, r2, lsr #1
 8006d96:	ea40 2282 	orr.w	r2, r0, r2, lsl #10
 8006d9a:	e7cb      	b.n	8006d34 <USB_EPStartXfer+0x330>
 8006d9c:	2b00      	cmp	r3, #0
 8006d9e:	f47f af75 	bne.w	8006c8c <USB_EPStartXfer+0x288>
 8006da2:	e7d5      	b.n	8006d50 <USB_EPStartXfer+0x34c>
 8006da4:	2a01      	cmp	r2, #1
 8006da6:	d15c      	bne.n	8006e62 <USB_EPStartXfer+0x45e>
 8006da8:	698a      	ldr	r2, [r1, #24]
 8006daa:	6909      	ldr	r1, [r1, #16]
 8006dac:	428a      	cmp	r2, r1
 8006dae:	bf94      	ite	ls
 8006db0:	2000      	movls	r0, #0
 8006db2:	1a50      	subhi	r0, r2, r1
 8006db4:	61a8      	str	r0, [r5, #24]
 8006db6:	bf88      	it	hi
 8006db8:	460a      	movhi	r2, r1
 8006dba:	2b00      	cmp	r3, #0
 8006dbc:	f47f af66 	bne.w	8006c8c <USB_EPStartXfer+0x288>
 8006dc0:	f8b4 1050 	ldrh.w	r1, [r4, #80]	@ 0x50
 8006dc4:	782b      	ldrb	r3, [r5, #0]
 8006dc6:	b289      	uxth	r1, r1
 8006dc8:	f204 4004 	addw	r0, r4, #1028	@ 0x404
 8006dcc:	011b      	lsls	r3, r3, #4
 8006dce:	4408      	add	r0, r1
 8006dd0:	5ac1      	ldrh	r1, [r0, r3]
 8006dd2:	2a3e      	cmp	r2, #62	@ 0x3e
 8006dd4:	f3c1 0109 	ubfx	r1, r1, #0, #10
 8006dd8:	52c1      	strh	r1, [r0, r3]
 8006dda:	d92b      	bls.n	8006e34 <USB_EPStartXfer+0x430>
 8006ddc:	06d1      	lsls	r1, r2, #27
 8006dde:	5ac1      	ldrh	r1, [r0, r3]
 8006de0:	ea4f 1652 	mov.w	r6, r2, lsr #5
 8006de4:	bf08      	it	eq
 8006de6:	f106 36ff 	addeq.w	r6, r6, #4294967295
 8006dea:	b289      	uxth	r1, r1
 8006dec:	ea41 2186 	orr.w	r1, r1, r6, lsl #10
 8006df0:	ea6f 4141 	mvn.w	r1, r1, lsl #17
 8006df4:	ea6f 4151 	mvn.w	r1, r1, lsr #17
 8006df8:	b289      	uxth	r1, r1
 8006dfa:	52c1      	strh	r1, [r0, r3]
 8006dfc:	f8b4 0050 	ldrh.w	r0, [r4, #80]	@ 0x50
 8006e00:	f204 410c 	addw	r1, r4, #1036	@ 0x40c
 8006e04:	b280      	uxth	r0, r0
 8006e06:	4401      	add	r1, r0
 8006e08:	5ac8      	ldrh	r0, [r1, r3]
 8006e0a:	2a3e      	cmp	r2, #62	@ 0x3e
 8006e0c:	f3c0 0009 	ubfx	r0, r0, #0, #10
 8006e10:	52c8      	strh	r0, [r1, r3]
 8006e12:	d91a      	bls.n	8006e4a <USB_EPStartXfer+0x446>
 8006e14:	0950      	lsrs	r0, r2, #5
 8006e16:	06d2      	lsls	r2, r2, #27
 8006e18:	5aca      	ldrh	r2, [r1, r3]
 8006e1a:	bf08      	it	eq
 8006e1c:	f100 30ff 	addeq.w	r0, r0, #4294967295
 8006e20:	b292      	uxth	r2, r2
 8006e22:	ea42 2280 	orr.w	r2, r2, r0, lsl #10
 8006e26:	ea6f 4242 	mvn.w	r2, r2, lsl #17
 8006e2a:	ea6f 4252 	mvn.w	r2, r2, lsr #17
 8006e2e:	b292      	uxth	r2, r2
 8006e30:	52ca      	strh	r2, [r1, r3]
 8006e32:	e72b      	b.n	8006c8c <USB_EPStartXfer+0x288>
 8006e34:	5ac1      	ldrh	r1, [r0, r3]
 8006e36:	2a00      	cmp	r2, #0
 8006e38:	d0da      	beq.n	8006df0 <USB_EPStartXfer+0x3ec>
 8006e3a:	f002 0601 	and.w	r6, r2, #1
 8006e3e:	b289      	uxth	r1, r1
 8006e40:	eb06 0652 	add.w	r6, r6, r2, lsr #1
 8006e44:	ea41 2186 	orr.w	r1, r1, r6, lsl #10
 8006e48:	e7d6      	b.n	8006df8 <USB_EPStartXfer+0x3f4>
 8006e4a:	b90a      	cbnz	r2, 8006e50 <USB_EPStartXfer+0x44c>
 8006e4c:	5aca      	ldrh	r2, [r1, r3]
 8006e4e:	e7ea      	b.n	8006e26 <USB_EPStartXfer+0x422>
 8006e50:	5ac8      	ldrh	r0, [r1, r3]
 8006e52:	f002 0601 	and.w	r6, r2, #1
 8006e56:	b280      	uxth	r0, r0
 8006e58:	eb06 0252 	add.w	r2, r6, r2, lsr #1
 8006e5c:	ea40 2282 	orr.w	r2, r0, r2, lsl #10
 8006e60:	e7e5      	b.n	8006e2e <USB_EPStartXfer+0x42a>
 8006e62:	2001      	movs	r0, #1
 8006e64:	e5ff      	b.n	8006a66 <USB_EPStartXfer+0x62>

08006e66 <USB_ReadPMA>:
 8006e66:	eb00 0042 	add.w	r0, r0, r2, lsl #1
 8006e6a:	b5f0      	push	{r4, r5, r6, r7, lr}
 8006e6c:	f500 6080 	add.w	r0, r0, #1024	@ 0x400
 8006e70:	085d      	lsrs	r5, r3, #1
 8006e72:	4607      	mov	r7, r0
 8006e74:	460c      	mov	r4, r1
 8006e76:	462e      	mov	r6, r5
 8006e78:	3402      	adds	r4, #2
 8006e7a:	b936      	cbnz	r6, 8006e8a <USB_ReadPMA+0x24>
 8006e7c:	07db      	lsls	r3, r3, #31
 8006e7e:	bf44      	itt	mi
 8006e80:	f830 3025 	ldrhmi.w	r3, [r0, r5, lsl #2]
 8006e84:	f801 3015 	strbmi.w	r3, [r1, r5, lsl #1]
 8006e88:	bdf0      	pop	{r4, r5, r6, r7, pc}
 8006e8a:	f837 2b04 	ldrh.w	r2, [r7], #4
 8006e8e:	3e01      	subs	r6, #1
 8006e90:	b292      	uxth	r2, r2
 8006e92:	f804 2c02 	strb.w	r2, [r4, #-2]
 8006e96:	0a12      	lsrs	r2, r2, #8
 8006e98:	f804 2c01 	strb.w	r2, [r4, #-1]
 8006e9c:	e7ec      	b.n	8006e78 <USB_ReadPMA+0x12>

08006e9e <USBD_CDC_EP0_RxReady>:
 8006e9e:	f8d0 32bc 	ldr.w	r3, [r0, #700]	@ 0x2bc
 8006ea2:	b510      	push	{r4, lr}
 8006ea4:	b16b      	cbz	r3, 8006ec2 <USBD_CDC_EP0_RxReady+0x24>
 8006ea6:	f8d0 42b8 	ldr.w	r4, [r0, #696]	@ 0x2b8
 8006eaa:	f894 0200 	ldrb.w	r0, [r4, #512]	@ 0x200
 8006eae:	28ff      	cmp	r0, #255	@ 0xff
 8006eb0:	d007      	beq.n	8006ec2 <USBD_CDC_EP0_RxReady+0x24>
 8006eb2:	689b      	ldr	r3, [r3, #8]
 8006eb4:	4621      	mov	r1, r4
 8006eb6:	f894 2201 	ldrb.w	r2, [r4, #513]	@ 0x201
 8006eba:	4798      	blx	r3
 8006ebc:	23ff      	movs	r3, #255	@ 0xff
 8006ebe:	f884 3200 	strb.w	r3, [r4, #512]	@ 0x200
 8006ec2:	2000      	movs	r0, #0
 8006ec4:	bd10      	pop	{r4, pc}
	...

08006ec8 <USBD_CDC_GetFSCfgDesc>:
 8006ec8:	2343      	movs	r3, #67	@ 0x43
 8006eca:	8003      	strh	r3, [r0, #0]
 8006ecc:	4800      	ldr	r0, [pc, #0]	@ (8006ed0 <USBD_CDC_GetFSCfgDesc+0x8>)
 8006ece:	4770      	bx	lr
 8006ed0:	20000104 	.word	0x20000104

08006ed4 <USBD_CDC_GetHSCfgDesc>:
 8006ed4:	2343      	movs	r3, #67	@ 0x43
 8006ed6:	8003      	strh	r3, [r0, #0]
 8006ed8:	4800      	ldr	r0, [pc, #0]	@ (8006edc <USBD_CDC_GetHSCfgDesc+0x8>)
 8006eda:	4770      	bx	lr
 8006edc:	20000148 	.word	0x20000148

08006ee0 <USBD_CDC_GetOtherSpeedCfgDesc>:
 8006ee0:	2343      	movs	r3, #67	@ 0x43
 8006ee2:	8003      	strh	r3, [r0, #0]
 8006ee4:	4800      	ldr	r0, [pc, #0]	@ (8006ee8 <USBD_CDC_GetOtherSpeedCfgDesc+0x8>)
 8006ee6:	4770      	bx	lr
 8006ee8:	200000c0 	.word	0x200000c0

08006eec <USBD_CDC_GetDeviceQualifierDescriptor>:
 8006eec:	230a      	movs	r3, #10
 8006eee:	8003      	strh	r3, [r0, #0]
 8006ef0:	4800      	ldr	r0, [pc, #0]	@ (8006ef4 <USBD_CDC_GetDeviceQualifierDescriptor+0x8>)
 8006ef2:	4770      	bx	lr
 8006ef4:	200001c4 	.word	0x200001c4

08006ef8 <USBD_CDC_DataOut>:
 8006ef8:	b538      	push	{r3, r4, r5, lr}
 8006efa:	4604      	mov	r4, r0
 8006efc:	f8d0 52b8 	ldr.w	r5, [r0, #696]	@ 0x2b8
 8006f00:	f7fd fc64 	bl	80047cc <USBD_LL_GetRxDataSize>
 8006f04:	f8d4 32b8 	ldr.w	r3, [r4, #696]	@ 0x2b8
 8006f08:	f8c5 020c 	str.w	r0, [r5, #524]	@ 0x20c
 8006f0c:	b14b      	cbz	r3, 8006f22 <USBD_CDC_DataOut+0x2a>
 8006f0e:	f8d4 32bc 	ldr.w	r3, [r4, #700]	@ 0x2bc
 8006f12:	f8d5 0204 	ldr.w	r0, [r5, #516]	@ 0x204
 8006f16:	68db      	ldr	r3, [r3, #12]
 8006f18:	f505 7103 	add.w	r1, r5, #524	@ 0x20c
 8006f1c:	4798      	blx	r3
 8006f1e:	2000      	movs	r0, #0
 8006f20:	bd38      	pop	{r3, r4, r5, pc}
 8006f22:	2002      	movs	r0, #2
 8006f24:	e7fc      	b.n	8006f20 <USBD_CDC_DataOut+0x28>

08006f26 <USBD_CDC_DataIn>:
 8006f26:	b5f8      	push	{r3, r4, r5, r6, r7, lr}
 8006f28:	f8d0 62b8 	ldr.w	r6, [r0, #696]	@ 0x2b8
 8006f2c:	b1ce      	cbz	r6, 8006f62 <USBD_CDC_DataIn+0x3c>
 8006f2e:	2414      	movs	r4, #20
 8006f30:	fb04 0401 	mla	r4, r4, r1, r0
 8006f34:	69e3      	ldr	r3, [r4, #28]
 8006f36:	b183      	cbz	r3, 8006f5a <USBD_CDC_DataIn+0x34>
 8006f38:	2728      	movs	r7, #40	@ 0x28
 8006f3a:	f8d0 22c0 	ldr.w	r2, [r0, #704]	@ 0x2c0
 8006f3e:	fb07 2201 	mla	r2, r7, r1, r2
 8006f42:	6a12      	ldr	r2, [r2, #32]
 8006f44:	fbb3 f5f2 	udiv	r5, r3, r2
 8006f48:	fb02 3315 	mls	r3, r2, r5, r3
 8006f4c:	b92b      	cbnz	r3, 8006f5a <USBD_CDC_DataIn+0x34>
 8006f4e:	461a      	mov	r2, r3
 8006f50:	61e3      	str	r3, [r4, #28]
 8006f52:	f7fd fc29 	bl	80047a8 <USBD_LL_Transmit>
 8006f56:	2000      	movs	r0, #0
 8006f58:	bdf8      	pop	{r3, r4, r5, r6, r7, pc}
 8006f5a:	2300      	movs	r3, #0
 8006f5c:	f8c6 3214 	str.w	r3, [r6, #532]	@ 0x214
 8006f60:	e7f9      	b.n	8006f56 <USBD_CDC_DataIn+0x30>
 8006f62:	2002      	movs	r0, #2
 8006f64:	e7f8      	b.n	8006f58 <USBD_CDC_DataIn+0x32>

08006f66 <USBD_CDC_Setup>:
 8006f66:	2300      	movs	r3, #0
 8006f68:	b5f7      	push	{r0, r1, r2, r4, r5, r6, r7, lr}
 8006f6a:	780f      	ldrb	r7, [r1, #0]
 8006f6c:	f88d 3005 	strb.w	r3, [sp, #5]
 8006f70:	f8ad 3006 	strh.w	r3, [sp, #6]
 8006f74:	f017 0360 	ands.w	r3, r7, #96	@ 0x60
 8006f78:	4604      	mov	r4, r0
 8006f7a:	460d      	mov	r5, r1
 8006f7c:	f8d0 62b8 	ldr.w	r6, [r0, #696]	@ 0x2b8
 8006f80:	d022      	beq.n	8006fc8 <USBD_CDC_Setup+0x62>
 8006f82:	2b20      	cmp	r3, #32
 8006f84:	d13a      	bne.n	8006ffc <USBD_CDC_Setup+0x96>
 8006f86:	88ca      	ldrh	r2, [r1, #6]
 8006f88:	784b      	ldrb	r3, [r1, #1]
 8006f8a:	b1ba      	cbz	r2, 8006fbc <USBD_CDC_Setup+0x56>
 8006f8c:	0639      	lsls	r1, r7, #24
 8006f8e:	d50b      	bpl.n	8006fa8 <USBD_CDC_Setup+0x42>
 8006f90:	f8d0 12bc 	ldr.w	r1, [r0, #700]	@ 0x2bc
 8006f94:	4618      	mov	r0, r3
 8006f96:	688f      	ldr	r7, [r1, #8]
 8006f98:	4631      	mov	r1, r6
 8006f9a:	47b8      	blx	r7
 8006f9c:	4631      	mov	r1, r6
 8006f9e:	4620      	mov	r0, r4
 8006fa0:	88ea      	ldrh	r2, [r5, #6]
 8006fa2:	f000 fc4d 	bl	8007840 <USBD_CtlSendData>
 8006fa6:	e006      	b.n	8006fb6 <USBD_CDC_Setup+0x50>
 8006fa8:	4631      	mov	r1, r6
 8006faa:	f886 3200 	strb.w	r3, [r6, #512]	@ 0x200
 8006fae:	f886 2201 	strb.w	r2, [r6, #513]	@ 0x201
 8006fb2:	f000 fc5a 	bl	800786a <USBD_CtlPrepareRx>
 8006fb6:	2000      	movs	r0, #0
 8006fb8:	b003      	add	sp, #12
 8006fba:	bdf0      	pop	{r4, r5, r6, r7, pc}
 8006fbc:	f8d0 02bc 	ldr.w	r0, [r0, #700]	@ 0x2bc
 8006fc0:	6884      	ldr	r4, [r0, #8]
 8006fc2:	4618      	mov	r0, r3
 8006fc4:	47a0      	blx	r4
 8006fc6:	e7f6      	b.n	8006fb6 <USBD_CDC_Setup+0x50>
 8006fc8:	784b      	ldrb	r3, [r1, #1]
 8006fca:	2b0a      	cmp	r3, #10
 8006fcc:	d00a      	beq.n	8006fe4 <USBD_CDC_Setup+0x7e>
 8006fce:	2b0b      	cmp	r3, #11
 8006fd0:	d010      	beq.n	8006ff4 <USBD_CDC_Setup+0x8e>
 8006fd2:	b99b      	cbnz	r3, 8006ffc <USBD_CDC_Setup+0x96>
 8006fd4:	f890 329c 	ldrb.w	r3, [r0, #668]	@ 0x29c
 8006fd8:	2b03      	cmp	r3, #3
 8006fda:	d10f      	bne.n	8006ffc <USBD_CDC_Setup+0x96>
 8006fdc:	2202      	movs	r2, #2
 8006fde:	f10d 0106 	add.w	r1, sp, #6
 8006fe2:	e7de      	b.n	8006fa2 <USBD_CDC_Setup+0x3c>
 8006fe4:	f890 329c 	ldrb.w	r3, [r0, #668]	@ 0x29c
 8006fe8:	2b03      	cmp	r3, #3
 8006fea:	d107      	bne.n	8006ffc <USBD_CDC_Setup+0x96>
 8006fec:	2201      	movs	r2, #1
 8006fee:	f10d 0105 	add.w	r1, sp, #5
 8006ff2:	e7d6      	b.n	8006fa2 <USBD_CDC_Setup+0x3c>
 8006ff4:	f890 329c 	ldrb.w	r3, [r0, #668]	@ 0x29c
 8006ff8:	2b03      	cmp	r3, #3
 8006ffa:	d0dc      	beq.n	8006fb6 <USBD_CDC_Setup+0x50>
 8006ffc:	4620      	mov	r0, r4
 8006ffe:	4629      	mov	r1, r5
 8007000:	f000 fbf7 	bl	80077f2 <USBD_CtlError>
 8007004:	2002      	movs	r0, #2
 8007006:	e7d7      	b.n	8006fb8 <USBD_CDC_Setup+0x52>

08007008 <USBD_CDC_DeInit>:
 8007008:	b538      	push	{r3, r4, r5, lr}
 800700a:	4604      	mov	r4, r0
 800700c:	2500      	movs	r5, #0
 800700e:	2181      	movs	r1, #129	@ 0x81
 8007010:	f7fd fb95 	bl	800473e <USBD_LL_CloseEP>
 8007014:	2101      	movs	r1, #1
 8007016:	4620      	mov	r0, r4
 8007018:	62e5      	str	r5, [r4, #44]	@ 0x2c
 800701a:	f7fd fb90 	bl	800473e <USBD_LL_CloseEP>
 800701e:	2182      	movs	r1, #130	@ 0x82
 8007020:	4620      	mov	r0, r4
 8007022:	f8c4 516c 	str.w	r5, [r4, #364]	@ 0x16c
 8007026:	f7fd fb8a 	bl	800473e <USBD_LL_CloseEP>
 800702a:	f8d4 32b8 	ldr.w	r3, [r4, #696]	@ 0x2b8
 800702e:	6425      	str	r5, [r4, #64]	@ 0x40
 8007030:	b14b      	cbz	r3, 8007046 <USBD_CDC_DeInit+0x3e>
 8007032:	f8d4 32bc 	ldr.w	r3, [r4, #700]	@ 0x2bc
 8007036:	685b      	ldr	r3, [r3, #4]
 8007038:	4798      	blx	r3
 800703a:	f8d4 02b8 	ldr.w	r0, [r4, #696]	@ 0x2b8
 800703e:	f7fd fbcd 	bl	80047dc <USBD_static_free>
 8007042:	f8c4 52b8 	str.w	r5, [r4, #696]	@ 0x2b8
 8007046:	2000      	movs	r0, #0
 8007048:	bd38      	pop	{r3, r4, r5, pc}

0800704a <USBD_CDC_Init>:
 800704a:	b570      	push	{r4, r5, r6, lr}
 800704c:	7c03      	ldrb	r3, [r0, #16]
 800704e:	4604      	mov	r4, r0
 8007050:	bba3      	cbnz	r3, 80070bc <USBD_CDC_Init+0x72>
 8007052:	f44f 7300 	mov.w	r3, #512	@ 0x200
 8007056:	2181      	movs	r1, #129	@ 0x81
 8007058:	2202      	movs	r2, #2
 800705a:	f7fd fb64 	bl	8004726 <USBD_LL_OpenEP>
 800705e:	2101      	movs	r1, #1
 8007060:	f44f 7300 	mov.w	r3, #512	@ 0x200
 8007064:	62e1      	str	r1, [r4, #44]	@ 0x2c
 8007066:	2501      	movs	r5, #1
 8007068:	2202      	movs	r2, #2
 800706a:	4620      	mov	r0, r4
 800706c:	f7fd fb5b 	bl	8004726 <USBD_LL_OpenEP>
 8007070:	2308      	movs	r3, #8
 8007072:	2203      	movs	r2, #3
 8007074:	2182      	movs	r1, #130	@ 0x82
 8007076:	4620      	mov	r0, r4
 8007078:	f8c4 516c 	str.w	r5, [r4, #364]	@ 0x16c
 800707c:	f7fd fb53 	bl	8004726 <USBD_LL_OpenEP>
 8007080:	f44f 7007 	mov.w	r0, #540	@ 0x21c
 8007084:	6425      	str	r5, [r4, #64]	@ 0x40
 8007086:	f7fd fba5 	bl	80047d4 <USBD_static_malloc>
 800708a:	4606      	mov	r6, r0
 800708c:	f8c4 02b8 	str.w	r0, [r4, #696]	@ 0x2b8
 8007090:	b1f8      	cbz	r0, 80070d2 <USBD_CDC_Init+0x88>
 8007092:	f8d4 32bc 	ldr.w	r3, [r4, #700]	@ 0x2bc
 8007096:	681b      	ldr	r3, [r3, #0]
 8007098:	4798      	blx	r3
 800709a:	2300      	movs	r3, #0
 800709c:	f8c6 3214 	str.w	r3, [r6, #532]	@ 0x214
 80070a0:	f8c6 3218 	str.w	r3, [r6, #536]	@ 0x218
 80070a4:	7c23      	ldrb	r3, [r4, #16]
 80070a6:	f8d6 2204 	ldr.w	r2, [r6, #516]	@ 0x204
 80070aa:	b983      	cbnz	r3, 80070ce <USBD_CDC_Init+0x84>
 80070ac:	f44f 7300 	mov.w	r3, #512	@ 0x200
 80070b0:	4629      	mov	r1, r5
 80070b2:	4620      	mov	r0, r4
 80070b4:	f7fd fb81 	bl	80047ba <USBD_LL_PrepareReceive>
 80070b8:	2000      	movs	r0, #0
 80070ba:	bd70      	pop	{r4, r5, r6, pc}
 80070bc:	2340      	movs	r3, #64	@ 0x40
 80070be:	2181      	movs	r1, #129	@ 0x81
 80070c0:	2202      	movs	r2, #2
 80070c2:	f7fd fb30 	bl	8004726 <USBD_LL_OpenEP>
 80070c6:	2101      	movs	r1, #1
 80070c8:	2340      	movs	r3, #64	@ 0x40
 80070ca:	62e1      	str	r1, [r4, #44]	@ 0x2c
 80070cc:	e7cb      	b.n	8007066 <USBD_CDC_Init+0x1c>
 80070ce:	2340      	movs	r3, #64	@ 0x40
 80070d0:	e7ee      	b.n	80070b0 <USBD_CDC_Init+0x66>
 80070d2:	4628      	mov	r0, r5
 80070d4:	e7f1      	b.n	80070ba <USBD_CDC_Init+0x70>

080070d6 <USBD_CDC_RegisterInterface>:
 80070d6:	b119      	cbz	r1, 80070e0 <USBD_CDC_RegisterInterface+0xa>
 80070d8:	f8c0 12bc 	str.w	r1, [r0, #700]	@ 0x2bc
 80070dc:	2000      	movs	r0, #0
 80070de:	4770      	bx	lr
 80070e0:	2002      	movs	r0, #2
 80070e2:	4770      	bx	lr

080070e4 <USBD_CDC_SetTxBuffer>:
 80070e4:	f8d0 32b8 	ldr.w	r3, [r0, #696]	@ 0x2b8
 80070e8:	2000      	movs	r0, #0
 80070ea:	f8c3 1208 	str.w	r1, [r3, #520]	@ 0x208
 80070ee:	f8c3 2210 	str.w	r2, [r3, #528]	@ 0x210
 80070f2:	4770      	bx	lr

080070f4 <USBD_CDC_SetRxBuffer>:
 80070f4:	f8d0 32b8 	ldr.w	r3, [r0, #696]	@ 0x2b8
 80070f8:	2000      	movs	r0, #0
 80070fa:	f8c3 1204 	str.w	r1, [r3, #516]	@ 0x204
 80070fe:	4770      	bx	lr

08007100 <USBD_CDC_TransmitPacket>:
 8007100:	f8d0 22b8 	ldr.w	r2, [r0, #696]	@ 0x2b8
 8007104:	b510      	push	{r4, lr}
 8007106:	b182      	cbz	r2, 800712a <USBD_CDC_TransmitPacket+0x2a>
 8007108:	f8d2 4214 	ldr.w	r4, [r2, #532]	@ 0x214
 800710c:	2301      	movs	r3, #1
 800710e:	b974      	cbnz	r4, 800712e <USBD_CDC_TransmitPacket+0x2e>
 8007110:	f8c2 3214 	str.w	r3, [r2, #532]	@ 0x214
 8007114:	f8d2 3210 	ldr.w	r3, [r2, #528]	@ 0x210
 8007118:	2181      	movs	r1, #129	@ 0x81
 800711a:	6303      	str	r3, [r0, #48]	@ 0x30
 800711c:	f8d2 2208 	ldr.w	r2, [r2, #520]	@ 0x208
 8007120:	b29b      	uxth	r3, r3
 8007122:	f7fd fb41 	bl	80047a8 <USBD_LL_Transmit>
 8007126:	4620      	mov	r0, r4
 8007128:	bd10      	pop	{r4, pc}
 800712a:	2002      	movs	r0, #2
 800712c:	e7fc      	b.n	8007128 <USBD_CDC_TransmitPacket+0x28>
 800712e:	4618      	mov	r0, r3
 8007130:	e7fa      	b.n	8007128 <USBD_CDC_TransmitPacket+0x28>

08007132 <USBD_CDC_ReceivePacket>:
 8007132:	f8d0 22b8 	ldr.w	r2, [r0, #696]	@ 0x2b8
 8007136:	b508      	push	{r3, lr}
 8007138:	b162      	cbz	r2, 8007154 <USBD_CDC_ReceivePacket+0x22>
 800713a:	7c03      	ldrb	r3, [r0, #16]
 800713c:	f8d2 2204 	ldr.w	r2, [r2, #516]	@ 0x204
 8007140:	b933      	cbnz	r3, 8007150 <USBD_CDC_ReceivePacket+0x1e>
 8007142:	f44f 7300 	mov.w	r3, #512	@ 0x200
 8007146:	2101      	movs	r1, #1
 8007148:	f7fd fb37 	bl	80047ba <USBD_LL_PrepareReceive>
 800714c:	2000      	movs	r0, #0
 800714e:	bd08      	pop	{r3, pc}
 8007150:	2340      	movs	r3, #64	@ 0x40
 8007152:	e7f8      	b.n	8007146 <USBD_CDC_ReceivePacket+0x14>
 8007154:	2002      	movs	r0, #2
 8007156:	e7fa      	b.n	800714e <USBD_CDC_ReceivePacket+0x1c>

08007158 <USBD_Init>:
 8007158:	b508      	push	{r3, lr}
 800715a:	b180      	cbz	r0, 800717e <USBD_Init+0x26>
 800715c:	f8d0 32b4 	ldr.w	r3, [r0, #692]	@ 0x2b4
 8007160:	b113      	cbz	r3, 8007168 <USBD_Init+0x10>
 8007162:	2300      	movs	r3, #0
 8007164:	f8c0 32b4 	str.w	r3, [r0, #692]	@ 0x2b4
 8007168:	b109      	cbz	r1, 800716e <USBD_Init+0x16>
 800716a:	f8c0 12b0 	str.w	r1, [r0, #688]	@ 0x2b0
 800716e:	2301      	movs	r3, #1
 8007170:	7002      	strb	r2, [r0, #0]
 8007172:	f880 329c 	strb.w	r3, [r0, #668]	@ 0x29c
 8007176:	f7fd fa8d 	bl	8004694 <USBD_LL_Init>
 800717a:	2000      	movs	r0, #0
 800717c:	bd08      	pop	{r3, pc}
 800717e:	2002      	movs	r0, #2
 8007180:	e7fc      	b.n	800717c <USBD_Init+0x24>

08007182 <USBD_RegisterClass>:
 8007182:	b119      	cbz	r1, 800718c <USBD_RegisterClass+0xa>
 8007184:	f8c0 12b4 	str.w	r1, [r0, #692]	@ 0x2b4
 8007188:	2000      	movs	r0, #0
 800718a:	4770      	bx	lr
 800718c:	2002      	movs	r0, #2
 800718e:	4770      	bx	lr

08007190 <USBD_Start>:
 8007190:	b508      	push	{r3, lr}
 8007192:	f7fd fabf 	bl	8004714 <USBD_LL_Start>
 8007196:	2000      	movs	r0, #0
 8007198:	bd08      	pop	{r3, pc}

0800719a <USBD_SetClassConfig>:
 800719a:	b508      	push	{r3, lr}
 800719c:	f8d0 32b4 	ldr.w	r3, [r0, #692]	@ 0x2b4
 80071a0:	b133      	cbz	r3, 80071b0 <USBD_SetClassConfig+0x16>
 80071a2:	681b      	ldr	r3, [r3, #0]
 80071a4:	4798      	blx	r3
 80071a6:	3800      	subs	r0, #0
 80071a8:	bf18      	it	ne
 80071aa:	2001      	movne	r0, #1
 80071ac:	0040      	lsls	r0, r0, #1
 80071ae:	bd08      	pop	{r3, pc}
 80071b0:	2002      	movs	r0, #2
 80071b2:	e7fc      	b.n	80071ae <USBD_SetClassConfig+0x14>

080071b4 <USBD_ClrClassConfig>:
 80071b4:	b508      	push	{r3, lr}
 80071b6:	f8d0 32b4 	ldr.w	r3, [r0, #692]	@ 0x2b4
 80071ba:	685b      	ldr	r3, [r3, #4]
 80071bc:	4798      	blx	r3
 80071be:	2000      	movs	r0, #0
 80071c0:	bd08      	pop	{r3, pc}

080071c2 <USBD_LL_SetupStage>:
 80071c2:	b538      	push	{r3, r4, r5, lr}
 80071c4:	f500 752a 	add.w	r5, r0, #680	@ 0x2a8
 80071c8:	4604      	mov	r4, r0
 80071ca:	4628      	mov	r0, r5
 80071cc:	f000 fb06 	bl	80077dc <USBD_ParseSetupRequest>
 80071d0:	2301      	movs	r3, #1
 80071d2:	f894 12a8 	ldrb.w	r1, [r4, #680]	@ 0x2a8
 80071d6:	f8c4 3294 	str.w	r3, [r4, #660]	@ 0x294
 80071da:	f8b4 32ae 	ldrh.w	r3, [r4, #686]	@ 0x2ae
 80071de:	f8c4 3298 	str.w	r3, [r4, #664]	@ 0x298
 80071e2:	f001 031f 	and.w	r3, r1, #31
 80071e6:	2b01      	cmp	r3, #1
 80071e8:	d008      	beq.n	80071fc <USBD_LL_SetupStage+0x3a>
 80071ea:	2b02      	cmp	r3, #2
 80071ec:	d00b      	beq.n	8007206 <USBD_LL_SetupStage+0x44>
 80071ee:	b97b      	cbnz	r3, 8007210 <USBD_LL_SetupStage+0x4e>
 80071f0:	4629      	mov	r1, r5
 80071f2:	4620      	mov	r0, r4
 80071f4:	f000 f8fa 	bl	80073ec <USBD_StdDevReq>
 80071f8:	2000      	movs	r0, #0
 80071fa:	bd38      	pop	{r3, r4, r5, pc}
 80071fc:	4629      	mov	r1, r5
 80071fe:	4620      	mov	r0, r4
 8007200:	f000 fa3c 	bl	800767c <USBD_StdItfReq>
 8007204:	e7f8      	b.n	80071f8 <USBD_LL_SetupStage+0x36>
 8007206:	4629      	mov	r1, r5
 8007208:	4620      	mov	r0, r4
 800720a:	f000 fa5b 	bl	80076c4 <USBD_StdEPReq>
 800720e:	e7f3      	b.n	80071f8 <USBD_LL_SetupStage+0x36>
 8007210:	4620      	mov	r0, r4
 8007212:	f001 0180 	and.w	r1, r1, #128	@ 0x80
 8007216:	f7fd fa9b 	bl	8004750 <USBD_LL_StallEP>
 800721a:	e7ed      	b.n	80071f8 <USBD_LL_SetupStage+0x36>

0800721c <USBD_LL_DataOutStage>:
 800721c:	b570      	push	{r4, r5, r6, lr}
 800721e:	4604      	mov	r4, r0
 8007220:	4616      	mov	r6, r2
 8007222:	bb39      	cbnz	r1, 8007274 <USBD_LL_DataOutStage+0x58>
 8007224:	f8d0 2294 	ldr.w	r2, [r0, #660]	@ 0x294
 8007228:	2a03      	cmp	r2, #3
 800722a:	d11c      	bne.n	8007266 <USBD_LL_DataOutStage+0x4a>
 800722c:	e9d0 5358 	ldrd	r5, r3, [r0, #352]	@ 0x160
 8007230:	429d      	cmp	r5, r3
 8007232:	d90b      	bls.n	800724c <USBD_LL_DataOutStage+0x30>
 8007234:	1aed      	subs	r5, r5, r3
 8007236:	42ab      	cmp	r3, r5
 8007238:	bf28      	it	cs
 800723a:	462b      	movcs	r3, r5
 800723c:	4631      	mov	r1, r6
 800723e:	f8c0 5160 	str.w	r5, [r0, #352]	@ 0x160
 8007242:	b29a      	uxth	r2, r3
 8007244:	f000 fb1e 	bl	8007884 <USBD_CtlContinueRx>
 8007248:	2000      	movs	r0, #0
 800724a:	bd70      	pop	{r4, r5, r6, pc}
 800724c:	f8d0 32b4 	ldr.w	r3, [r0, #692]	@ 0x2b4
 8007250:	691b      	ldr	r3, [r3, #16]
 8007252:	b123      	cbz	r3, 800725e <USBD_LL_DataOutStage+0x42>
 8007254:	f890 229c 	ldrb.w	r2, [r0, #668]	@ 0x29c
 8007258:	2a03      	cmp	r2, #3
 800725a:	d100      	bne.n	800725e <USBD_LL_DataOutStage+0x42>
 800725c:	4798      	blx	r3
 800725e:	4620      	mov	r0, r4
 8007260:	f000 fb18 	bl	8007894 <USBD_CtlSendStatus>
 8007264:	e7f0      	b.n	8007248 <USBD_LL_DataOutStage+0x2c>
 8007266:	2a05      	cmp	r2, #5
 8007268:	d1ee      	bne.n	8007248 <USBD_LL_DataOutStage+0x2c>
 800726a:	f8c4 1294 	str.w	r1, [r4, #660]	@ 0x294
 800726e:	f7fd fa6f 	bl	8004750 <USBD_LL_StallEP>
 8007272:	e7e9      	b.n	8007248 <USBD_LL_DataOutStage+0x2c>
 8007274:	f8d0 32b4 	ldr.w	r3, [r0, #692]	@ 0x2b4
 8007278:	699b      	ldr	r3, [r3, #24]
 800727a:	b12b      	cbz	r3, 8007288 <USBD_LL_DataOutStage+0x6c>
 800727c:	f890 229c 	ldrb.w	r2, [r0, #668]	@ 0x29c
 8007280:	2a03      	cmp	r2, #3
 8007282:	d101      	bne.n	8007288 <USBD_LL_DataOutStage+0x6c>
 8007284:	4798      	blx	r3
 8007286:	e7df      	b.n	8007248 <USBD_LL_DataOutStage+0x2c>
 8007288:	2002      	movs	r0, #2
 800728a:	e7de      	b.n	800724a <USBD_LL_DataOutStage+0x2e>

0800728c <USBD_LL_DataInStage>:
 800728c:	b5f8      	push	{r3, r4, r5, r6, r7, lr}
 800728e:	4604      	mov	r4, r0
 8007290:	4613      	mov	r3, r2
 8007292:	460f      	mov	r7, r1
 8007294:	2900      	cmp	r1, #0
 8007296:	d149      	bne.n	800732c <USBD_LL_DataInStage+0xa0>
 8007298:	f8d0 2294 	ldr.w	r2, [r0, #660]	@ 0x294
 800729c:	2a02      	cmp	r2, #2
 800729e:	d13a      	bne.n	8007316 <USBD_LL_DataInStage+0x8a>
 80072a0:	e9d0 5608 	ldrd	r5, r6, [r0, #32]
 80072a4:	42b5      	cmp	r5, r6
 80072a6:	d911      	bls.n	80072cc <USBD_LL_DataInStage+0x40>
 80072a8:	1bad      	subs	r5, r5, r6
 80072aa:	4619      	mov	r1, r3
 80072ac:	6205      	str	r5, [r0, #32]
 80072ae:	b2aa      	uxth	r2, r5
 80072b0:	f000 fad3 	bl	800785a <USBD_CtlContinueSendData>
 80072b4:	463b      	mov	r3, r7
 80072b6:	461a      	mov	r2, r3
 80072b8:	4619      	mov	r1, r3
 80072ba:	4620      	mov	r0, r4
 80072bc:	f7fd fa7d 	bl	80047ba <USBD_LL_PrepareReceive>
 80072c0:	f894 32a0 	ldrb.w	r3, [r4, #672]	@ 0x2a0
 80072c4:	2b01      	cmp	r3, #1
 80072c6:	d02d      	beq.n	8007324 <USBD_LL_DataInStage+0x98>
 80072c8:	2000      	movs	r0, #0
 80072ca:	bdf8      	pop	{r3, r4, r5, r6, r7, pc}
 80072cc:	69c3      	ldr	r3, [r0, #28]
 80072ce:	fbb3 f5f6 	udiv	r5, r3, r6
 80072d2:	fb06 3515 	mls	r5, r6, r5, r3
 80072d6:	b965      	cbnz	r5, 80072f2 <USBD_LL_DataInStage+0x66>
 80072d8:	429e      	cmp	r6, r3
 80072da:	d80a      	bhi.n	80072f2 <USBD_LL_DataInStage+0x66>
 80072dc:	f8d0 2298 	ldr.w	r2, [r0, #664]	@ 0x298
 80072e0:	4293      	cmp	r3, r2
 80072e2:	d206      	bcs.n	80072f2 <USBD_LL_DataInStage+0x66>
 80072e4:	462a      	mov	r2, r5
 80072e6:	f000 fab8 	bl	800785a <USBD_CtlContinueSendData>
 80072ea:	462b      	mov	r3, r5
 80072ec:	f8c4 5298 	str.w	r5, [r4, #664]	@ 0x298
 80072f0:	e7e1      	b.n	80072b6 <USBD_LL_DataInStage+0x2a>
 80072f2:	f8d4 32b4 	ldr.w	r3, [r4, #692]	@ 0x2b4
 80072f6:	68db      	ldr	r3, [r3, #12]
 80072f8:	b12b      	cbz	r3, 8007306 <USBD_LL_DataInStage+0x7a>
 80072fa:	f894 229c 	ldrb.w	r2, [r4, #668]	@ 0x29c
 80072fe:	2a03      	cmp	r2, #3
 8007300:	d101      	bne.n	8007306 <USBD_LL_DataInStage+0x7a>
 8007302:	4620      	mov	r0, r4
 8007304:	4798      	blx	r3
 8007306:	2180      	movs	r1, #128	@ 0x80
 8007308:	4620      	mov	r0, r4
 800730a:	f7fd fa21 	bl	8004750 <USBD_LL_StallEP>
 800730e:	4620      	mov	r0, r4
 8007310:	f000 facb 	bl	80078aa <USBD_CtlReceiveStatus>
 8007314:	e7d4      	b.n	80072c0 <USBD_LL_DataInStage+0x34>
 8007316:	f032 0304 	bics.w	r3, r2, #4
 800731a:	d1d1      	bne.n	80072c0 <USBD_LL_DataInStage+0x34>
 800731c:	2180      	movs	r1, #128	@ 0x80
 800731e:	f7fd fa17 	bl	8004750 <USBD_LL_StallEP>
 8007322:	e7cd      	b.n	80072c0 <USBD_LL_DataInStage+0x34>
 8007324:	2300      	movs	r3, #0
 8007326:	f884 32a0 	strb.w	r3, [r4, #672]	@ 0x2a0
 800732a:	e7cd      	b.n	80072c8 <USBD_LL_DataInStage+0x3c>
 800732c:	f8d0 32b4 	ldr.w	r3, [r0, #692]	@ 0x2b4
 8007330:	695b      	ldr	r3, [r3, #20]
 8007332:	b12b      	cbz	r3, 8007340 <USBD_LL_DataInStage+0xb4>
 8007334:	f890 229c 	ldrb.w	r2, [r0, #668]	@ 0x29c
 8007338:	2a03      	cmp	r2, #3
 800733a:	d101      	bne.n	8007340 <USBD_LL_DataInStage+0xb4>
 800733c:	4798      	blx	r3
 800733e:	e7c3      	b.n	80072c8 <USBD_LL_DataInStage+0x3c>
 8007340:	2002      	movs	r0, #2
 8007342:	e7c2      	b.n	80072ca <USBD_LL_DataInStage+0x3e>

08007344 <USBD_LL_Reset>:
 8007344:	2200      	movs	r2, #0
 8007346:	b570      	push	{r4, r5, r6, lr}
 8007348:	4604      	mov	r4, r0
 800734a:	2501      	movs	r5, #1
 800734c:	2640      	movs	r6, #64	@ 0x40
 800734e:	4611      	mov	r1, r2
 8007350:	2340      	movs	r3, #64	@ 0x40
 8007352:	f7fd f9e8 	bl	8004726 <USBD_LL_OpenEP>
 8007356:	4633      	mov	r3, r6
 8007358:	2180      	movs	r1, #128	@ 0x80
 800735a:	2200      	movs	r2, #0
 800735c:	4620      	mov	r0, r4
 800735e:	f8c4 5158 	str.w	r5, [r4, #344]	@ 0x158
 8007362:	f8c4 6164 	str.w	r6, [r4, #356]	@ 0x164
 8007366:	f7fd f9de 	bl	8004726 <USBD_LL_OpenEP>
 800736a:	2100      	movs	r1, #0
 800736c:	f8d4 32b8 	ldr.w	r3, [r4, #696]	@ 0x2b8
 8007370:	61a5      	str	r5, [r4, #24]
 8007372:	6266      	str	r6, [r4, #36]	@ 0x24
 8007374:	f884 529c 	strb.w	r5, [r4, #668]	@ 0x29c
 8007378:	f8c4 1294 	str.w	r1, [r4, #660]	@ 0x294
 800737c:	6061      	str	r1, [r4, #4]
 800737e:	f8c4 12a4 	str.w	r1, [r4, #676]	@ 0x2a4
 8007382:	b123      	cbz	r3, 800738e <USBD_LL_Reset+0x4a>
 8007384:	f8d4 32b4 	ldr.w	r3, [r4, #692]	@ 0x2b4
 8007388:	4620      	mov	r0, r4
 800738a:	685b      	ldr	r3, [r3, #4]
 800738c:	4798      	blx	r3
 800738e:	2000      	movs	r0, #0
 8007390:	bd70      	pop	{r4, r5, r6, pc}

08007392 <USBD_LL_SetSpeed>:
 8007392:	7401      	strb	r1, [r0, #16]
 8007394:	2000      	movs	r0, #0
 8007396:	4770      	bx	lr

08007398 <USBD_LL_Suspend>:
 8007398:	f890 329c 	ldrb.w	r3, [r0, #668]	@ 0x29c
 800739c:	f880 329d 	strb.w	r3, [r0, #669]	@ 0x29d
 80073a0:	2304      	movs	r3, #4
 80073a2:	f880 329c 	strb.w	r3, [r0, #668]	@ 0x29c
 80073a6:	2000      	movs	r0, #0
 80073a8:	4770      	bx	lr

080073aa <USBD_LL_Resume>:
 80073aa:	f890 329c 	ldrb.w	r3, [r0, #668]	@ 0x29c
 80073ae:	2b04      	cmp	r3, #4
 80073b0:	bf04      	itt	eq
 80073b2:	f890 329d 	ldrbeq.w	r3, [r0, #669]	@ 0x29d
 80073b6:	f880 329c 	strbeq.w	r3, [r0, #668]	@ 0x29c
 80073ba:	2000      	movs	r0, #0
 80073bc:	4770      	bx	lr

080073be <USBD_LL_SOF>:
 80073be:	b508      	push	{r3, lr}
 80073c0:	f890 229c 	ldrb.w	r2, [r0, #668]	@ 0x29c
 80073c4:	2a03      	cmp	r2, #3
 80073c6:	d104      	bne.n	80073d2 <USBD_LL_SOF+0x14>
 80073c8:	f8d0 32b4 	ldr.w	r3, [r0, #692]	@ 0x2b4
 80073cc:	69db      	ldr	r3, [r3, #28]
 80073ce:	b103      	cbz	r3, 80073d2 <USBD_LL_SOF+0x14>
 80073d0:	4798      	blx	r3
 80073d2:	2000      	movs	r0, #0
 80073d4:	bd08      	pop	{r3, pc}

080073d6 <USBD_CtlError.constprop.0>:
 80073d6:	b510      	push	{r4, lr}
 80073d8:	4604      	mov	r4, r0
 80073da:	2180      	movs	r1, #128	@ 0x80
 80073dc:	f7fd f9b8 	bl	8004750 <USBD_LL_StallEP>
 80073e0:	4620      	mov	r0, r4
 80073e2:	e8bd 4010 	ldmia.w	sp!, {r4, lr}
 80073e6:	2100      	movs	r1, #0
 80073e8:	f7fd b9b2 	b.w	8004750 <USBD_LL_StallEP>

080073ec <USBD_StdDevReq>:
 80073ec:	b537      	push	{r0, r1, r2, r4, r5, lr}
 80073ee:	780b      	ldrb	r3, [r1, #0]
 80073f0:	4604      	mov	r4, r0
 80073f2:	f003 0360 	and.w	r3, r3, #96	@ 0x60
 80073f6:	2b20      	cmp	r3, #32
 80073f8:	460d      	mov	r5, r1
 80073fa:	d006      	beq.n	800740a <USBD_StdDevReq+0x1e>
 80073fc:	2b40      	cmp	r3, #64	@ 0x40
 80073fe:	d004      	beq.n	800740a <USBD_StdDevReq+0x1e>
 8007400:	b163      	cbz	r3, 800741c <USBD_StdDevReq+0x30>
 8007402:	4620      	mov	r0, r4
 8007404:	f7ff ffe7 	bl	80073d6 <USBD_CtlError.constprop.0>
 8007408:	e005      	b.n	8007416 <USBD_StdDevReq+0x2a>
 800740a:	f8d4 32b4 	ldr.w	r3, [r4, #692]	@ 0x2b4
 800740e:	4629      	mov	r1, r5
 8007410:	4620      	mov	r0, r4
 8007412:	689b      	ldr	r3, [r3, #8]
 8007414:	4798      	blx	r3
 8007416:	2000      	movs	r0, #0
 8007418:	b003      	add	sp, #12
 800741a:	bd30      	pop	{r4, r5, pc}
 800741c:	784b      	ldrb	r3, [r1, #1]
 800741e:	2b09      	cmp	r3, #9
 8007420:	d8ef      	bhi.n	8007402 <USBD_StdDevReq+0x16>
 8007422:	a201      	add	r2, pc, #4	@ (adr r2, 8007428 <USBD_StdDevReq+0x3c>)
 8007424:	f852 f023 	ldr.w	pc, [r2, r3, lsl #2]
 8007428:	0800762b 	.word	0x0800762b
 800742c:	08007661 	.word	0x08007661
 8007430:	08007403 	.word	0x08007403
 8007434:	08007653 	.word	0x08007653
 8007438:	08007403 	.word	0x08007403
 800743c:	08007551 	.word	0x08007551
 8007440:	08007451 	.word	0x08007451
 8007444:	08007403 	.word	0x08007403
 8007448:	080075fb 	.word	0x080075fb
 800744c:	08007593 	.word	0x08007593
 8007450:	2300      	movs	r3, #0
 8007452:	f8ad 3006 	strh.w	r3, [sp, #6]
 8007456:	884b      	ldrh	r3, [r1, #2]
 8007458:	0a1a      	lsrs	r2, r3, #8
 800745a:	3a01      	subs	r2, #1
 800745c:	2a06      	cmp	r2, #6
 800745e:	d8d0      	bhi.n	8007402 <USBD_StdDevReq+0x16>
 8007460:	a101      	add	r1, pc, #4	@ (adr r1, 8007468 <USBD_StdDevReq+0x7c>)
 8007462:	f851 f022 	ldr.w	pc, [r1, r2, lsl #2]
 8007466:	bf00      	nop
 8007468:	08007485 	.word	0x08007485
 800746c:	080074a9 	.word	0x080074a9
 8007470:	080074c3 	.word	0x080074c3
 8007474:	08007403 	.word	0x08007403
 8007478:	08007403 	.word	0x08007403
 800747c:	08007507 	.word	0x08007507
 8007480:	0800751d 	.word	0x0800751d
 8007484:	f8d0 32b0 	ldr.w	r3, [r0, #688]	@ 0x2b0
 8007488:	681b      	ldr	r3, [r3, #0]
 800748a:	7c20      	ldrb	r0, [r4, #16]
 800748c:	f10d 0106 	add.w	r1, sp, #6
 8007490:	4798      	blx	r3
 8007492:	f8bd 2006 	ldrh.w	r2, [sp, #6]
 8007496:	2a00      	cmp	r2, #0
 8007498:	d055      	beq.n	8007546 <USBD_StdDevReq+0x15a>
 800749a:	88eb      	ldrh	r3, [r5, #6]
 800749c:	2b00      	cmp	r3, #0
 800749e:	d149      	bne.n	8007534 <USBD_StdDevReq+0x148>
 80074a0:	4620      	mov	r0, r4
 80074a2:	f000 f9f7 	bl	8007894 <USBD_CtlSendStatus>
 80074a6:	e7b6      	b.n	8007416 <USBD_StdDevReq+0x2a>
 80074a8:	7c02      	ldrb	r2, [r0, #16]
 80074aa:	f8d0 32b4 	ldr.w	r3, [r0, #692]	@ 0x2b4
 80074ae:	b932      	cbnz	r2, 80074be <USBD_StdDevReq+0xd2>
 80074b0:	6a9b      	ldr	r3, [r3, #40]	@ 0x28
 80074b2:	f10d 0006 	add.w	r0, sp, #6
 80074b6:	4798      	blx	r3
 80074b8:	2302      	movs	r3, #2
 80074ba:	7043      	strb	r3, [r0, #1]
 80074bc:	e7e9      	b.n	8007492 <USBD_StdDevReq+0xa6>
 80074be:	6adb      	ldr	r3, [r3, #44]	@ 0x2c
 80074c0:	e7f7      	b.n	80074b2 <USBD_StdDevReq+0xc6>
 80074c2:	b2db      	uxtb	r3, r3
 80074c4:	2b05      	cmp	r3, #5
 80074c6:	d89c      	bhi.n	8007402 <USBD_StdDevReq+0x16>
 80074c8:	e8df f003 	tbb	[pc, r3]
 80074cc:	110d0903 	.word	0x110d0903
 80074d0:	1915      	.short	0x1915
 80074d2:	f8d0 32b0 	ldr.w	r3, [r0, #688]	@ 0x2b0
 80074d6:	685b      	ldr	r3, [r3, #4]
 80074d8:	2b00      	cmp	r3, #0
 80074da:	d1d6      	bne.n	800748a <USBD_StdDevReq+0x9e>
 80074dc:	e791      	b.n	8007402 <USBD_StdDevReq+0x16>
 80074de:	f8d0 32b0 	ldr.w	r3, [r0, #688]	@ 0x2b0
 80074e2:	689b      	ldr	r3, [r3, #8]
 80074e4:	e7f8      	b.n	80074d8 <USBD_StdDevReq+0xec>
 80074e6:	f8d0 32b0 	ldr.w	r3, [r0, #688]	@ 0x2b0
 80074ea:	68db      	ldr	r3, [r3, #12]
 80074ec:	e7f4      	b.n	80074d8 <USBD_StdDevReq+0xec>
 80074ee:	f8d0 32b0 	ldr.w	r3, [r0, #688]	@ 0x2b0
 80074f2:	691b      	ldr	r3, [r3, #16]
 80074f4:	e7f0      	b.n	80074d8 <USBD_StdDevReq+0xec>
 80074f6:	f8d0 32b0 	ldr.w	r3, [r0, #688]	@ 0x2b0
 80074fa:	695b      	ldr	r3, [r3, #20]
 80074fc:	e7ec      	b.n	80074d8 <USBD_StdDevReq+0xec>
 80074fe:	f8d0 32b0 	ldr.w	r3, [r0, #688]	@ 0x2b0
 8007502:	699b      	ldr	r3, [r3, #24]
 8007504:	e7e8      	b.n	80074d8 <USBD_StdDevReq+0xec>
 8007506:	7c03      	ldrb	r3, [r0, #16]
 8007508:	2b00      	cmp	r3, #0
 800750a:	f47f af7a 	bne.w	8007402 <USBD_StdDevReq+0x16>
 800750e:	f8d0 32b4 	ldr.w	r3, [r0, #692]	@ 0x2b4
 8007512:	f10d 0006 	add.w	r0, sp, #6
 8007516:	6b5b      	ldr	r3, [r3, #52]	@ 0x34
 8007518:	4798      	blx	r3
 800751a:	e7ba      	b.n	8007492 <USBD_StdDevReq+0xa6>
 800751c:	7c03      	ldrb	r3, [r0, #16]
 800751e:	2b00      	cmp	r3, #0
 8007520:	f47f af6f 	bne.w	8007402 <USBD_StdDevReq+0x16>
 8007524:	f8d0 32b4 	ldr.w	r3, [r0, #692]	@ 0x2b4
 8007528:	f10d 0006 	add.w	r0, sp, #6
 800752c:	6b1b      	ldr	r3, [r3, #48]	@ 0x30
 800752e:	4798      	blx	r3
 8007530:	2307      	movs	r3, #7
 8007532:	e7c2      	b.n	80074ba <USBD_StdDevReq+0xce>
 8007534:	429a      	cmp	r2, r3
 8007536:	bf28      	it	cs
 8007538:	461a      	movcs	r2, r3
 800753a:	4601      	mov	r1, r0
 800753c:	4620      	mov	r0, r4
 800753e:	f8ad 2006 	strh.w	r2, [sp, #6]
 8007542:	f000 f97d 	bl	8007840 <USBD_CtlSendData>
 8007546:	88eb      	ldrh	r3, [r5, #6]
 8007548:	2b00      	cmp	r3, #0
 800754a:	f47f af64 	bne.w	8007416 <USBD_StdDevReq+0x2a>
 800754e:	e7a7      	b.n	80074a0 <USBD_StdDevReq+0xb4>
 8007550:	888b      	ldrh	r3, [r1, #4]
 8007552:	2b00      	cmp	r3, #0
 8007554:	f47f af55 	bne.w	8007402 <USBD_StdDevReq+0x16>
 8007558:	88cb      	ldrh	r3, [r1, #6]
 800755a:	2b00      	cmp	r3, #0
 800755c:	f47f af51 	bne.w	8007402 <USBD_StdDevReq+0x16>
 8007560:	884d      	ldrh	r5, [r1, #2]
 8007562:	2d7f      	cmp	r5, #127	@ 0x7f
 8007564:	f63f af4d 	bhi.w	8007402 <USBD_StdDevReq+0x16>
 8007568:	f890 329c 	ldrb.w	r3, [r0, #668]	@ 0x29c
 800756c:	2b03      	cmp	r3, #3
 800756e:	f43f af48 	beq.w	8007402 <USBD_StdDevReq+0x16>
 8007572:	b2ed      	uxtb	r5, r5
 8007574:	4629      	mov	r1, r5
 8007576:	f880 529e 	strb.w	r5, [r0, #670]	@ 0x29e
 800757a:	f7fd f90c 	bl	8004796 <USBD_LL_SetUSBAddress>
 800757e:	4620      	mov	r0, r4
 8007580:	f000 f988 	bl	8007894 <USBD_CtlSendStatus>
 8007584:	b11d      	cbz	r5, 800758e <USBD_StdDevReq+0x1a2>
 8007586:	2302      	movs	r3, #2
 8007588:	f884 329c 	strb.w	r3, [r4, #668]	@ 0x29c
 800758c:	e743      	b.n	8007416 <USBD_StdDevReq+0x2a>
 800758e:	2301      	movs	r3, #1
 8007590:	e7fa      	b.n	8007588 <USBD_StdDevReq+0x19c>
 8007592:	7889      	ldrb	r1, [r1, #2]
 8007594:	4d38      	ldr	r5, [pc, #224]	@ (8007678 <USBD_StdDevReq+0x28c>)
 8007596:	2901      	cmp	r1, #1
 8007598:	7029      	strb	r1, [r5, #0]
 800759a:	f63f af32 	bhi.w	8007402 <USBD_StdDevReq+0x16>
 800759e:	f890 329c 	ldrb.w	r3, [r0, #668]	@ 0x29c
 80075a2:	2b02      	cmp	r3, #2
 80075a4:	d008      	beq.n	80075b8 <USBD_StdDevReq+0x1cc>
 80075a6:	2b03      	cmp	r3, #3
 80075a8:	d015      	beq.n	80075d6 <USBD_StdDevReq+0x1ea>
 80075aa:	f7ff ff14 	bl	80073d6 <USBD_CtlError.constprop.0>
 80075ae:	4620      	mov	r0, r4
 80075b0:	7829      	ldrb	r1, [r5, #0]
 80075b2:	f7ff fdff 	bl	80071b4 <USBD_ClrClassConfig>
 80075b6:	e72e      	b.n	8007416 <USBD_StdDevReq+0x2a>
 80075b8:	2900      	cmp	r1, #0
 80075ba:	f43f af71 	beq.w	80074a0 <USBD_StdDevReq+0xb4>
 80075be:	2101      	movs	r1, #1
 80075c0:	2303      	movs	r3, #3
 80075c2:	6041      	str	r1, [r0, #4]
 80075c4:	f880 329c 	strb.w	r3, [r0, #668]	@ 0x29c
 80075c8:	4620      	mov	r0, r4
 80075ca:	f7ff fde6 	bl	800719a <USBD_SetClassConfig>
 80075ce:	2802      	cmp	r0, #2
 80075d0:	f47f af66 	bne.w	80074a0 <USBD_StdDevReq+0xb4>
 80075d4:	e715      	b.n	8007402 <USBD_StdDevReq+0x16>
 80075d6:	b931      	cbnz	r1, 80075e6 <USBD_StdDevReq+0x1fa>
 80075d8:	2302      	movs	r3, #2
 80075da:	6041      	str	r1, [r0, #4]
 80075dc:	f880 329c 	strb.w	r3, [r0, #668]	@ 0x29c
 80075e0:	f7ff fde8 	bl	80071b4 <USBD_ClrClassConfig>
 80075e4:	e75c      	b.n	80074a0 <USBD_StdDevReq+0xb4>
 80075e6:	6841      	ldr	r1, [r0, #4]
 80075e8:	2901      	cmp	r1, #1
 80075ea:	f43f af59 	beq.w	80074a0 <USBD_StdDevReq+0xb4>
 80075ee:	b2c9      	uxtb	r1, r1
 80075f0:	f7ff fde0 	bl	80071b4 <USBD_ClrClassConfig>
 80075f4:	7829      	ldrb	r1, [r5, #0]
 80075f6:	6061      	str	r1, [r4, #4]
 80075f8:	e7e6      	b.n	80075c8 <USBD_StdDevReq+0x1dc>
 80075fa:	88ca      	ldrh	r2, [r1, #6]
 80075fc:	2a01      	cmp	r2, #1
 80075fe:	f47f af00 	bne.w	8007402 <USBD_StdDevReq+0x16>
 8007602:	f890 329c 	ldrb.w	r3, [r0, #668]	@ 0x29c
 8007606:	2b02      	cmp	r3, #2
 8007608:	d80a      	bhi.n	8007620 <USBD_StdDevReq+0x234>
 800760a:	2b00      	cmp	r3, #0
 800760c:	f43f aef9 	beq.w	8007402 <USBD_StdDevReq+0x16>
 8007610:	4601      	mov	r1, r0
 8007612:	2300      	movs	r3, #0
 8007614:	f841 3f08 	str.w	r3, [r1, #8]!
 8007618:	4620      	mov	r0, r4
 800761a:	f000 f911 	bl	8007840 <USBD_CtlSendData>
 800761e:	e6fa      	b.n	8007416 <USBD_StdDevReq+0x2a>
 8007620:	2b03      	cmp	r3, #3
 8007622:	f47f aeee 	bne.w	8007402 <USBD_StdDevReq+0x16>
 8007626:	1d01      	adds	r1, r0, #4
 8007628:	e7f6      	b.n	8007618 <USBD_StdDevReq+0x22c>
 800762a:	f890 329c 	ldrb.w	r3, [r0, #668]	@ 0x29c
 800762e:	3b01      	subs	r3, #1
 8007630:	2b02      	cmp	r3, #2
 8007632:	f63f aee6 	bhi.w	8007402 <USBD_StdDevReq+0x16>
 8007636:	88ca      	ldrh	r2, [r1, #6]
 8007638:	2a02      	cmp	r2, #2
 800763a:	f47f aee2 	bne.w	8007402 <USBD_StdDevReq+0x16>
 800763e:	f8d0 32a4 	ldr.w	r3, [r0, #676]	@ 0x2a4
 8007642:	4601      	mov	r1, r0
 8007644:	2b00      	cmp	r3, #0
 8007646:	bf0c      	ite	eq
 8007648:	2301      	moveq	r3, #1
 800764a:	2303      	movne	r3, #3
 800764c:	f841 3f0c 	str.w	r3, [r1, #12]!
 8007650:	e7e2      	b.n	8007618 <USBD_StdDevReq+0x22c>
 8007652:	884b      	ldrh	r3, [r1, #2]
 8007654:	2b01      	cmp	r3, #1
 8007656:	f47f aede 	bne.w	8007416 <USBD_StdDevReq+0x2a>
 800765a:	f8c4 32a4 	str.w	r3, [r4, #676]	@ 0x2a4
 800765e:	e71f      	b.n	80074a0 <USBD_StdDevReq+0xb4>
 8007660:	f890 329c 	ldrb.w	r3, [r0, #668]	@ 0x29c
 8007664:	3b01      	subs	r3, #1
 8007666:	2b02      	cmp	r3, #2
 8007668:	f63f aecb 	bhi.w	8007402 <USBD_StdDevReq+0x16>
 800766c:	884b      	ldrh	r3, [r1, #2]
 800766e:	2b01      	cmp	r3, #1
 8007670:	f47f aed1 	bne.w	8007416 <USBD_StdDevReq+0x2a>
 8007674:	2300      	movs	r3, #0
 8007676:	e7f0      	b.n	800765a <USBD_StdDevReq+0x26e>
 8007678:	20001bc4 	.word	0x20001bc4

0800767c <USBD_StdItfReq>:
 800767c:	b538      	push	{r3, r4, r5, lr}
 800767e:	780b      	ldrb	r3, [r1, #0]
 8007680:	4604      	mov	r4, r0
 8007682:	f003 0260 	and.w	r2, r3, #96	@ 0x60
 8007686:	065b      	lsls	r3, r3, #25
 8007688:	460d      	mov	r5, r1
 800768a:	d501      	bpl.n	8007690 <USBD_StdItfReq+0x14>
 800768c:	2a40      	cmp	r2, #64	@ 0x40
 800768e:	d115      	bne.n	80076bc <USBD_StdItfReq+0x40>
 8007690:	f894 329c 	ldrb.w	r3, [r4, #668]	@ 0x29c
 8007694:	3b01      	subs	r3, #1
 8007696:	2b02      	cmp	r3, #2
 8007698:	d810      	bhi.n	80076bc <USBD_StdItfReq+0x40>
 800769a:	792b      	ldrb	r3, [r5, #4]
 800769c:	2b01      	cmp	r3, #1
 800769e:	d80d      	bhi.n	80076bc <USBD_StdItfReq+0x40>
 80076a0:	f8d4 32b4 	ldr.w	r3, [r4, #692]	@ 0x2b4
 80076a4:	4629      	mov	r1, r5
 80076a6:	689b      	ldr	r3, [r3, #8]
 80076a8:	4620      	mov	r0, r4
 80076aa:	4798      	blx	r3
 80076ac:	88eb      	ldrh	r3, [r5, #6]
 80076ae:	b91b      	cbnz	r3, 80076b8 <USBD_StdItfReq+0x3c>
 80076b0:	b910      	cbnz	r0, 80076b8 <USBD_StdItfReq+0x3c>
 80076b2:	4620      	mov	r0, r4
 80076b4:	f000 f8ee 	bl	8007894 <USBD_CtlSendStatus>
 80076b8:	2000      	movs	r0, #0
 80076ba:	bd38      	pop	{r3, r4, r5, pc}
 80076bc:	4620      	mov	r0, r4
 80076be:	f7ff fe8a 	bl	80073d6 <USBD_CtlError.constprop.0>
 80076c2:	e7f9      	b.n	80076b8 <USBD_StdItfReq+0x3c>

080076c4 <USBD_StdEPReq>:
 80076c4:	b538      	push	{r3, r4, r5, lr}
 80076c6:	780a      	ldrb	r2, [r1, #0]
 80076c8:	4604      	mov	r4, r0
 80076ca:	f002 0260 	and.w	r2, r2, #96	@ 0x60
 80076ce:	2a20      	cmp	r2, #32
 80076d0:	460b      	mov	r3, r1
 80076d2:	d006      	beq.n	80076e2 <USBD_StdEPReq+0x1e>
 80076d4:	2a40      	cmp	r2, #64	@ 0x40
 80076d6:	d004      	beq.n	80076e2 <USBD_StdEPReq+0x1e>
 80076d8:	b15a      	cbz	r2, 80076f2 <USBD_StdEPReq+0x2e>
 80076da:	4620      	mov	r0, r4
 80076dc:	f7ff fe7b 	bl	80073d6 <USBD_CtlError.constprop.0>
 80076e0:	e005      	b.n	80076ee <USBD_StdEPReq+0x2a>
 80076e2:	f8d4 22b4 	ldr.w	r2, [r4, #692]	@ 0x2b4
 80076e6:	4619      	mov	r1, r3
 80076e8:	4620      	mov	r0, r4
 80076ea:	6892      	ldr	r2, [r2, #8]
 80076ec:	4790      	blx	r2
 80076ee:	2000      	movs	r0, #0
 80076f0:	bd38      	pop	{r3, r4, r5, pc}
 80076f2:	785a      	ldrb	r2, [r3, #1]
 80076f4:	888d      	ldrh	r5, [r1, #4]
 80076f6:	2a01      	cmp	r2, #1
 80076f8:	7909      	ldrb	r1, [r1, #4]
 80076fa:	d035      	beq.n	8007768 <USBD_StdEPReq+0xa4>
 80076fc:	2a03      	cmp	r2, #3
 80076fe:	d021      	beq.n	8007744 <USBD_StdEPReq+0x80>
 8007700:	2a00      	cmp	r2, #0
 8007702:	d1ea      	bne.n	80076da <USBD_StdEPReq+0x16>
 8007704:	f890 329c 	ldrb.w	r3, [r0, #668]	@ 0x29c
 8007708:	2b02      	cmp	r3, #2
 800770a:	d044      	beq.n	8007796 <USBD_StdEPReq+0xd2>
 800770c:	2b03      	cmp	r3, #3
 800770e:	d1e4      	bne.n	80076da <USBD_StdEPReq+0x16>
 8007710:	2214      	movs	r2, #20
 8007712:	f001 030f 	and.w	r3, r1, #15
 8007716:	f015 0f80 	tst.w	r5, #128	@ 0x80
 800771a:	fb02 0303 	mla	r3, r2, r3, r0
 800771e:	d04b      	beq.n	80077b8 <USBD_StdEPReq+0xf4>
 8007720:	699b      	ldr	r3, [r3, #24]
 8007722:	2b00      	cmp	r3, #0
 8007724:	d0d9      	beq.n	80076da <USBD_StdEPReq+0x16>
 8007726:	2514      	movs	r5, #20
 8007728:	f001 037f 	and.w	r3, r1, #127	@ 0x7f
 800772c:	fb03 5505 	mla	r5, r3, r5, r5
 8007730:	2980      	cmp	r1, #128	@ 0x80
 8007732:	4405      	add	r5, r0
 8007734:	d04b      	beq.n	80077ce <USBD_StdEPReq+0x10a>
 8007736:	4620      	mov	r0, r4
 8007738:	f7fd f81c 	bl	8004774 <USBD_LL_IsStallEP>
 800773c:	2800      	cmp	r0, #0
 800773e:	d04b      	beq.n	80077d8 <USBD_StdEPReq+0x114>
 8007740:	2301      	movs	r3, #1
 8007742:	e045      	b.n	80077d0 <USBD_StdEPReq+0x10c>
 8007744:	f890 229c 	ldrb.w	r2, [r0, #668]	@ 0x29c
 8007748:	2a02      	cmp	r2, #2
 800774a:	d01b      	beq.n	8007784 <USBD_StdEPReq+0xc0>
 800774c:	2a03      	cmp	r2, #3
 800774e:	d1c4      	bne.n	80076da <USBD_StdEPReq+0x16>
 8007750:	885a      	ldrh	r2, [r3, #2]
 8007752:	b92a      	cbnz	r2, 8007760 <USBD_StdEPReq+0x9c>
 8007754:	064a      	lsls	r2, r1, #25
 8007756:	d003      	beq.n	8007760 <USBD_StdEPReq+0x9c>
 8007758:	88db      	ldrh	r3, [r3, #6]
 800775a:	b90b      	cbnz	r3, 8007760 <USBD_StdEPReq+0x9c>
 800775c:	f7fc fff8 	bl	8004750 <USBD_LL_StallEP>
 8007760:	4620      	mov	r0, r4
 8007762:	f000 f897 	bl	8007894 <USBD_CtlSendStatus>
 8007766:	e7c2      	b.n	80076ee <USBD_StdEPReq+0x2a>
 8007768:	f890 229c 	ldrb.w	r2, [r0, #668]	@ 0x29c
 800776c:	2a02      	cmp	r2, #2
 800776e:	d009      	beq.n	8007784 <USBD_StdEPReq+0xc0>
 8007770:	2a03      	cmp	r2, #3
 8007772:	d1b2      	bne.n	80076da <USBD_StdEPReq+0x16>
 8007774:	885b      	ldrh	r3, [r3, #2]
 8007776:	2b00      	cmp	r3, #0
 8007778:	d1b9      	bne.n	80076ee <USBD_StdEPReq+0x2a>
 800777a:	064d      	lsls	r5, r1, #25
 800777c:	d0f0      	beq.n	8007760 <USBD_StdEPReq+0x9c>
 800777e:	f7fc fff0 	bl	8004762 <USBD_LL_ClearStallEP>
 8007782:	e7ed      	b.n	8007760 <USBD_StdEPReq+0x9c>
 8007784:	064b      	lsls	r3, r1, #25
 8007786:	d0a8      	beq.n	80076da <USBD_StdEPReq+0x16>
 8007788:	f7fc ffe2 	bl	8004750 <USBD_LL_StallEP>
 800778c:	2180      	movs	r1, #128	@ 0x80
 800778e:	4620      	mov	r0, r4
 8007790:	f7fc ffde 	bl	8004750 <USBD_LL_StallEP>
 8007794:	e7ab      	b.n	80076ee <USBD_StdEPReq+0x2a>
 8007796:	064a      	lsls	r2, r1, #25
 8007798:	d19f      	bne.n	80076da <USBD_StdEPReq+0x16>
 800779a:	062b      	lsls	r3, r5, #24
 800779c:	f04f 0300 	mov.w	r3, #0
 80077a0:	f04f 0202 	mov.w	r2, #2
 80077a4:	bf4c      	ite	mi
 80077a6:	f100 0114 	addmi.w	r1, r0, #20
 80077aa:	f500 71aa 	addpl.w	r1, r0, #340	@ 0x154
 80077ae:	600b      	str	r3, [r1, #0]
 80077b0:	4620      	mov	r0, r4
 80077b2:	f000 f845 	bl	8007840 <USBD_CtlSendData>
 80077b6:	e79a      	b.n	80076ee <USBD_StdEPReq+0x2a>
 80077b8:	f8d3 3158 	ldr.w	r3, [r3, #344]	@ 0x158
 80077bc:	2b00      	cmp	r3, #0
 80077be:	d08c      	beq.n	80076da <USBD_StdEPReq+0x16>
 80077c0:	2514      	movs	r5, #20
 80077c2:	fb05 0501 	mla	r5, r5, r1, r0
 80077c6:	f505 75aa 	add.w	r5, r5, #340	@ 0x154
 80077ca:	2900      	cmp	r1, #0
 80077cc:	d1b3      	bne.n	8007736 <USBD_StdEPReq+0x72>
 80077ce:	2300      	movs	r3, #0
 80077d0:	602b      	str	r3, [r5, #0]
 80077d2:	2202      	movs	r2, #2
 80077d4:	4629      	mov	r1, r5
 80077d6:	e7eb      	b.n	80077b0 <USBD_StdEPReq+0xec>
 80077d8:	6028      	str	r0, [r5, #0]
 80077da:	e7fa      	b.n	80077d2 <USBD_StdEPReq+0x10e>

080077dc <USBD_ParseSetupRequest>:
 80077dc:	780b      	ldrb	r3, [r1, #0]
 80077de:	7003      	strb	r3, [r0, #0]
 80077e0:	784b      	ldrb	r3, [r1, #1]
 80077e2:	7043      	strb	r3, [r0, #1]
 80077e4:	884b      	ldrh	r3, [r1, #2]
 80077e6:	8043      	strh	r3, [r0, #2]
 80077e8:	888b      	ldrh	r3, [r1, #4]
 80077ea:	8083      	strh	r3, [r0, #4]
 80077ec:	88cb      	ldrh	r3, [r1, #6]
 80077ee:	80c3      	strh	r3, [r0, #6]
 80077f0:	4770      	bx	lr

080077f2 <USBD_CtlError>:
 80077f2:	b510      	push	{r4, lr}
 80077f4:	4604      	mov	r4, r0
 80077f6:	2180      	movs	r1, #128	@ 0x80
 80077f8:	f7fc ffaa 	bl	8004750 <USBD_LL_StallEP>
 80077fc:	4620      	mov	r0, r4
 80077fe:	e8bd 4010 	ldmia.w	sp!, {r4, lr}
 8007802:	2100      	movs	r1, #0
 8007804:	f7fc bfa4 	b.w	8004750 <USBD_LL_StallEP>

08007808 <USBD_GetString>:
 8007808:	b570      	push	{r4, r5, r6, lr}
 800780a:	460d      	mov	r5, r1
 800780c:	4616      	mov	r6, r2
 800780e:	4604      	mov	r4, r0
 8007810:	b170      	cbz	r0, 8007830 <USBD_GetString+0x28>
 8007812:	f7fa fca5 	bl	8002160 <strlen>
 8007816:	b2c3      	uxtb	r3, r0
 8007818:	3301      	adds	r3, #1
 800781a:	005b      	lsls	r3, r3, #1
 800781c:	8033      	strh	r3, [r6, #0]
 800781e:	702b      	strb	r3, [r5, #0]
 8007820:	2303      	movs	r3, #3
 8007822:	2000      	movs	r0, #0
 8007824:	706b      	strb	r3, [r5, #1]
 8007826:	2302      	movs	r3, #2
 8007828:	3c01      	subs	r4, #1
 800782a:	f814 1f01 	ldrb.w	r1, [r4, #1]!
 800782e:	b901      	cbnz	r1, 8007832 <USBD_GetString+0x2a>
 8007830:	bd70      	pop	{r4, r5, r6, pc}
 8007832:	1c5a      	adds	r2, r3, #1
 8007834:	54e9      	strb	r1, [r5, r3]
 8007836:	b2d2      	uxtb	r2, r2
 8007838:	3302      	adds	r3, #2
 800783a:	b2db      	uxtb	r3, r3
 800783c:	54a8      	strb	r0, [r5, r2]
 800783e:	e7f4      	b.n	800782a <USBD_GetString+0x22>

08007840 <USBD_CtlSendData>:
 8007840:	4613      	mov	r3, r2
 8007842:	2202      	movs	r2, #2
 8007844:	b510      	push	{r4, lr}
 8007846:	e9c0 3307 	strd	r3, r3, [r0, #28]
 800784a:	f8c0 2294 	str.w	r2, [r0, #660]	@ 0x294
 800784e:	460a      	mov	r2, r1
 8007850:	2100      	movs	r1, #0
 8007852:	f7fc ffa9 	bl	80047a8 <USBD_LL_Transmit>
 8007856:	2000      	movs	r0, #0
 8007858:	bd10      	pop	{r4, pc}

0800785a <USBD_CtlContinueSendData>:
 800785a:	b508      	push	{r3, lr}
 800785c:	4613      	mov	r3, r2
 800785e:	460a      	mov	r2, r1
 8007860:	2100      	movs	r1, #0
 8007862:	f7fc ffa1 	bl	80047a8 <USBD_LL_Transmit>
 8007866:	2000      	movs	r0, #0
 8007868:	bd08      	pop	{r3, pc}

0800786a <USBD_CtlPrepareRx>:
 800786a:	4613      	mov	r3, r2
 800786c:	2203      	movs	r2, #3
 800786e:	b510      	push	{r4, lr}
 8007870:	e9c0 3357 	strd	r3, r3, [r0, #348]	@ 0x15c
 8007874:	f8c0 2294 	str.w	r2, [r0, #660]	@ 0x294
 8007878:	460a      	mov	r2, r1
 800787a:	2100      	movs	r1, #0
 800787c:	f7fc ff9d 	bl	80047ba <USBD_LL_PrepareReceive>
 8007880:	2000      	movs	r0, #0
 8007882:	bd10      	pop	{r4, pc}

08007884 <USBD_CtlContinueRx>:
 8007884:	b508      	push	{r3, lr}
 8007886:	4613      	mov	r3, r2
 8007888:	460a      	mov	r2, r1
 800788a:	2100      	movs	r1, #0
 800788c:	f7fc ff95 	bl	80047ba <USBD_LL_PrepareReceive>
 8007890:	2000      	movs	r0, #0
 8007892:	bd08      	pop	{r3, pc}

08007894 <USBD_CtlSendStatus>:
 8007894:	b508      	push	{r3, lr}
 8007896:	2304      	movs	r3, #4
 8007898:	f8c0 3294 	str.w	r3, [r0, #660]	@ 0x294
 800789c:	2300      	movs	r3, #0
 800789e:	461a      	mov	r2, r3
 80078a0:	4619      	mov	r1, r3
 80078a2:	f7fc ff81 	bl	80047a8 <USBD_LL_Transmit>
 80078a6:	2000      	movs	r0, #0
 80078a8:	bd08      	pop	{r3, pc}

080078aa <USBD_CtlReceiveStatus>:
 80078aa:	b508      	push	{r3, lr}
 80078ac:	2305      	movs	r3, #5
 80078ae:	f8c0 3294 	str.w	r3, [r0, #660]	@ 0x294
 80078b2:	2300      	movs	r3, #0
 80078b4:	461a      	mov	r2, r3
 80078b6:	4619      	mov	r1, r3
 80078b8:	f7fc ff7f 	bl	80047ba <USBD_LL_PrepareReceive>
 80078bc:	2000      	movs	r0, #0
 80078be:	bd08      	pop	{r3, pc}

080078c0 <atoi>:
 80078c0:	220a      	movs	r2, #10
 80078c2:	2100      	movs	r1, #0
 80078c4:	f000 b87a 	b.w	80079bc <strtol>

080078c8 <_strtol_l.isra.0>:
 80078c8:	2b24      	cmp	r3, #36	@ 0x24
 80078ca:	e92d 47f0 	stmdb	sp!, {r4, r5, r6, r7, r8, r9, sl, lr}
 80078ce:	4686      	mov	lr, r0
 80078d0:	4690      	mov	r8, r2
 80078d2:	d801      	bhi.n	80078d8 <_strtol_l.isra.0+0x10>
 80078d4:	2b01      	cmp	r3, #1
 80078d6:	d106      	bne.n	80078e6 <_strtol_l.isra.0+0x1e>
 80078d8:	f000 fa80 	bl	8007ddc <__errno>
 80078dc:	2316      	movs	r3, #22
 80078de:	6003      	str	r3, [r0, #0]
 80078e0:	2000      	movs	r0, #0
 80078e2:	e8bd 87f0 	ldmia.w	sp!, {r4, r5, r6, r7, r8, r9, sl, pc}
 80078e6:	460d      	mov	r5, r1
 80078e8:	4833      	ldr	r0, [pc, #204]	@ (80079b8 <_strtol_l.isra.0+0xf0>)
 80078ea:	462a      	mov	r2, r5
 80078ec:	f815 4b01 	ldrb.w	r4, [r5], #1
 80078f0:	5d06      	ldrb	r6, [r0, r4]
 80078f2:	f016 0608 	ands.w	r6, r6, #8
 80078f6:	d1f8      	bne.n	80078ea <_strtol_l.isra.0+0x22>
 80078f8:	2c2d      	cmp	r4, #45	@ 0x2d
 80078fa:	d110      	bne.n	800791e <_strtol_l.isra.0+0x56>
 80078fc:	2601      	movs	r6, #1
 80078fe:	782c      	ldrb	r4, [r5, #0]
 8007900:	1c95      	adds	r5, r2, #2
 8007902:	f033 0210 	bics.w	r2, r3, #16
 8007906:	d115      	bne.n	8007934 <_strtol_l.isra.0+0x6c>
 8007908:	2c30      	cmp	r4, #48	@ 0x30
 800790a:	d10d      	bne.n	8007928 <_strtol_l.isra.0+0x60>
 800790c:	782a      	ldrb	r2, [r5, #0]
 800790e:	f002 02df 	and.w	r2, r2, #223	@ 0xdf
 8007912:	2a58      	cmp	r2, #88	@ 0x58
 8007914:	d108      	bne.n	8007928 <_strtol_l.isra.0+0x60>
 8007916:	786c      	ldrb	r4, [r5, #1]
 8007918:	3502      	adds	r5, #2
 800791a:	2310      	movs	r3, #16
 800791c:	e00a      	b.n	8007934 <_strtol_l.isra.0+0x6c>
 800791e:	2c2b      	cmp	r4, #43	@ 0x2b
 8007920:	bf04      	itt	eq
 8007922:	782c      	ldrbeq	r4, [r5, #0]
 8007924:	1c95      	addeq	r5, r2, #2
 8007926:	e7ec      	b.n	8007902 <_strtol_l.isra.0+0x3a>
 8007928:	2b00      	cmp	r3, #0
 800792a:	d1f6      	bne.n	800791a <_strtol_l.isra.0+0x52>
 800792c:	2c30      	cmp	r4, #48	@ 0x30
 800792e:	bf14      	ite	ne
 8007930:	230a      	movne	r3, #10
 8007932:	2308      	moveq	r3, #8
 8007934:	2200      	movs	r2, #0
 8007936:	f106 4c00 	add.w	ip, r6, #2147483648	@ 0x80000000
 800793a:	f10c 3cff 	add.w	ip, ip, #4294967295
 800793e:	fbbc f9f3 	udiv	r9, ip, r3
 8007942:	4610      	mov	r0, r2
 8007944:	fb03 ca19 	mls	sl, r3, r9, ip
 8007948:	f1a4 0730 	sub.w	r7, r4, #48	@ 0x30
 800794c:	2f09      	cmp	r7, #9
 800794e:	d80f      	bhi.n	8007970 <_strtol_l.isra.0+0xa8>
 8007950:	463c      	mov	r4, r7
 8007952:	42a3      	cmp	r3, r4
 8007954:	dd1b      	ble.n	800798e <_strtol_l.isra.0+0xc6>
 8007956:	1c57      	adds	r7, r2, #1
 8007958:	d007      	beq.n	800796a <_strtol_l.isra.0+0xa2>
 800795a:	4581      	cmp	r9, r0
 800795c:	d314      	bcc.n	8007988 <_strtol_l.isra.0+0xc0>
 800795e:	d101      	bne.n	8007964 <_strtol_l.isra.0+0x9c>
 8007960:	45a2      	cmp	sl, r4
 8007962:	db11      	blt.n	8007988 <_strtol_l.isra.0+0xc0>
 8007964:	2201      	movs	r2, #1
 8007966:	fb00 4003 	mla	r0, r0, r3, r4
 800796a:	f815 4b01 	ldrb.w	r4, [r5], #1
 800796e:	e7eb      	b.n	8007948 <_strtol_l.isra.0+0x80>
 8007970:	f1a4 0741 	sub.w	r7, r4, #65	@ 0x41
 8007974:	2f19      	cmp	r7, #25
 8007976:	d801      	bhi.n	800797c <_strtol_l.isra.0+0xb4>
 8007978:	3c37      	subs	r4, #55	@ 0x37
 800797a:	e7ea      	b.n	8007952 <_strtol_l.isra.0+0x8a>
 800797c:	f1a4 0761 	sub.w	r7, r4, #97	@ 0x61
 8007980:	2f19      	cmp	r7, #25
 8007982:	d804      	bhi.n	800798e <_strtol_l.isra.0+0xc6>
 8007984:	3c57      	subs	r4, #87	@ 0x57
 8007986:	e7e4      	b.n	8007952 <_strtol_l.isra.0+0x8a>
 8007988:	f04f 32ff 	mov.w	r2, #4294967295
 800798c:	e7ed      	b.n	800796a <_strtol_l.isra.0+0xa2>
 800798e:	1c53      	adds	r3, r2, #1
 8007990:	d108      	bne.n	80079a4 <_strtol_l.isra.0+0xdc>
 8007992:	2322      	movs	r3, #34	@ 0x22
 8007994:	4660      	mov	r0, ip
 8007996:	f8ce 3000 	str.w	r3, [lr]
 800799a:	f1b8 0f00 	cmp.w	r8, #0
 800799e:	d0a0      	beq.n	80078e2 <_strtol_l.isra.0+0x1a>
 80079a0:	1e69      	subs	r1, r5, #1
 80079a2:	e006      	b.n	80079b2 <_strtol_l.isra.0+0xea>
 80079a4:	b106      	cbz	r6, 80079a8 <_strtol_l.isra.0+0xe0>
 80079a6:	4240      	negs	r0, r0
 80079a8:	f1b8 0f00 	cmp.w	r8, #0
 80079ac:	d099      	beq.n	80078e2 <_strtol_l.isra.0+0x1a>
 80079ae:	2a00      	cmp	r2, #0
 80079b0:	d1f6      	bne.n	80079a0 <_strtol_l.isra.0+0xd8>
 80079b2:	f8c8 1000 	str.w	r1, [r8]
 80079b6:	e794      	b.n	80078e2 <_strtol_l.isra.0+0x1a>
 80079b8:	0800a067 	.word	0x0800a067

080079bc <strtol>:
 80079bc:	4613      	mov	r3, r2
 80079be:	460a      	mov	r2, r1
 80079c0:	4601      	mov	r1, r0
 80079c2:	4802      	ldr	r0, [pc, #8]	@ (80079cc <strtol+0x10>)
 80079c4:	6800      	ldr	r0, [r0, #0]
 80079c6:	f7ff bf7f 	b.w	80078c8 <_strtol_l.isra.0>
 80079ca:	bf00      	nop
 80079cc:	200001dc 	.word	0x200001dc

080079d0 <std>:
 80079d0:	2300      	movs	r3, #0
 80079d2:	b510      	push	{r4, lr}
 80079d4:	4604      	mov	r4, r0
 80079d6:	e9c0 3300 	strd	r3, r3, [r0]
 80079da:	e9c0 3304 	strd	r3, r3, [r0, #16]
 80079de:	6083      	str	r3, [r0, #8]
 80079e0:	8181      	strh	r1, [r0, #12]
 80079e2:	6643      	str	r3, [r0, #100]	@ 0x64
 80079e4:	81c2      	strh	r2, [r0, #14]
 80079e6:	6183      	str	r3, [r0, #24]
 80079e8:	4619      	mov	r1, r3
 80079ea:	2208      	movs	r2, #8
 80079ec:	305c      	adds	r0, #92	@ 0x5c
 80079ee:	f000 f92d 	bl	8007c4c <memset>
 80079f2:	4b0d      	ldr	r3, [pc, #52]	@ (8007a28 <std+0x58>)
 80079f4:	6224      	str	r4, [r4, #32]
 80079f6:	6263      	str	r3, [r4, #36]	@ 0x24
 80079f8:	4b0c      	ldr	r3, [pc, #48]	@ (8007a2c <std+0x5c>)
 80079fa:	62a3      	str	r3, [r4, #40]	@ 0x28
 80079fc:	4b0c      	ldr	r3, [pc, #48]	@ (8007a30 <std+0x60>)
 80079fe:	62e3      	str	r3, [r4, #44]	@ 0x2c
 8007a00:	4b0c      	ldr	r3, [pc, #48]	@ (8007a34 <std+0x64>)
 8007a02:	6323      	str	r3, [r4, #48]	@ 0x30
 8007a04:	4b0c      	ldr	r3, [pc, #48]	@ (8007a38 <std+0x68>)
 8007a06:	429c      	cmp	r4, r3
 8007a08:	d006      	beq.n	8007a18 <std+0x48>
 8007a0a:	f103 0268 	add.w	r2, r3, #104	@ 0x68
 8007a0e:	4294      	cmp	r4, r2
 8007a10:	d002      	beq.n	8007a18 <std+0x48>
 8007a12:	33d0      	adds	r3, #208	@ 0xd0
 8007a14:	429c      	cmp	r4, r3
 8007a16:	d105      	bne.n	8007a24 <std+0x54>
 8007a18:	f104 0058 	add.w	r0, r4, #88	@ 0x58
 8007a1c:	e8bd 4010 	ldmia.w	sp!, {r4, lr}
 8007a20:	f000 ba06 	b.w	8007e30 <__retarget_lock_init_recursive>
 8007a24:	bd10      	pop	{r4, pc}
 8007a26:	bf00      	nop
 8007a28:	08007bc5 	.word	0x08007bc5
 8007a2c:	08007be7 	.word	0x08007be7
 8007a30:	08007c1f 	.word	0x08007c1f
 8007a34:	08007c45 	.word	0x08007c45
 8007a38:	20001bc8 	.word	0x20001bc8

08007a3c <stdio_exit_handler>:
 8007a3c:	4a02      	ldr	r2, [pc, #8]	@ (8007a48 <stdio_exit_handler+0xc>)
 8007a3e:	4903      	ldr	r1, [pc, #12]	@ (8007a4c <stdio_exit_handler+0x10>)
 8007a40:	4803      	ldr	r0, [pc, #12]	@ (8007a50 <stdio_exit_handler+0x14>)
 8007a42:	f000 b86b 	b.w	8007b1c <_fwalk_sglue>
 8007a46:	bf00      	nop
 8007a48:	200001d0 	.word	0x200001d0
 8007a4c:	0800874d 	.word	0x0800874d
 8007a50:	200001e0 	.word	0x200001e0

08007a54 <cleanup_stdio>:
 8007a54:	6841      	ldr	r1, [r0, #4]
 8007a56:	4b0c      	ldr	r3, [pc, #48]	@ (8007a88 <cleanup_stdio+0x34>)
 8007a58:	b510      	push	{r4, lr}
 8007a5a:	4299      	cmp	r1, r3
 8007a5c:	4604      	mov	r4, r0
 8007a5e:	d001      	beq.n	8007a64 <cleanup_stdio+0x10>
 8007a60:	f000 fe74 	bl	800874c <_fflush_r>
 8007a64:	68a1      	ldr	r1, [r4, #8]
 8007a66:	4b09      	ldr	r3, [pc, #36]	@ (8007a8c <cleanup_stdio+0x38>)
 8007a68:	4299      	cmp	r1, r3
 8007a6a:	d002      	beq.n	8007a72 <cleanup_stdio+0x1e>
 8007a6c:	4620      	mov	r0, r4
 8007a6e:	f000 fe6d 	bl	800874c <_fflush_r>
 8007a72:	68e1      	ldr	r1, [r4, #12]
 8007a74:	4b06      	ldr	r3, [pc, #24]	@ (8007a90 <cleanup_stdio+0x3c>)
 8007a76:	4299      	cmp	r1, r3
 8007a78:	d004      	beq.n	8007a84 <cleanup_stdio+0x30>
 8007a7a:	4620      	mov	r0, r4
 8007a7c:	e8bd 4010 	ldmia.w	sp!, {r4, lr}
 8007a80:	f000 be64 	b.w	800874c <_fflush_r>
 8007a84:	bd10      	pop	{r4, pc}
 8007a86:	bf00      	nop
 8007a88:	20001bc8 	.word	0x20001bc8
 8007a8c:	20001c30 	.word	0x20001c30
 8007a90:	20001c98 	.word	0x20001c98

08007a94 <global_stdio_init.part.0>:
 8007a94:	4b0c      	ldr	r3, [pc, #48]	@ (8007ac8 <global_stdio_init.part.0+0x34>)
 8007a96:	4a0d      	ldr	r2, [pc, #52]	@ (8007acc <global_stdio_init.part.0+0x38>)
 8007a98:	b510      	push	{r4, lr}
 8007a9a:	2104      	movs	r1, #4
 8007a9c:	601a      	str	r2, [r3, #0]
 8007a9e:	480c      	ldr	r0, [pc, #48]	@ (8007ad0 <global_stdio_init.part.0+0x3c>)
 8007aa0:	2200      	movs	r2, #0
 8007aa2:	f7ff ff95 	bl	80079d0 <std>
 8007aa6:	4b0a      	ldr	r3, [pc, #40]	@ (8007ad0 <global_stdio_init.part.0+0x3c>)
 8007aa8:	2201      	movs	r2, #1
 8007aaa:	461c      	mov	r4, r3
 8007aac:	2109      	movs	r1, #9
 8007aae:	f103 0068 	add.w	r0, r3, #104	@ 0x68
 8007ab2:	f7ff ff8d 	bl	80079d0 <std>
 8007ab6:	f104 00d0 	add.w	r0, r4, #208	@ 0xd0
 8007aba:	2202      	movs	r2, #2
 8007abc:	e8bd 4010 	ldmia.w	sp!, {r4, lr}
 8007ac0:	2112      	movs	r1, #18
 8007ac2:	f7ff bf85 	b.w	80079d0 <std>
 8007ac6:	bf00      	nop
 8007ac8:	20001d00 	.word	0x20001d00
 8007acc:	08007a3d 	.word	0x08007a3d
 8007ad0:	20001bc8 	.word	0x20001bc8

08007ad4 <__sfp_lock_acquire>:
 8007ad4:	4801      	ldr	r0, [pc, #4]	@ (8007adc <__sfp_lock_acquire+0x8>)
 8007ad6:	f000 b9ac 	b.w	8007e32 <__retarget_lock_acquire_recursive>
 8007ada:	bf00      	nop
 8007adc:	20001d09 	.word	0x20001d09

08007ae0 <__sfp_lock_release>:
 8007ae0:	4801      	ldr	r0, [pc, #4]	@ (8007ae8 <__sfp_lock_release+0x8>)
 8007ae2:	f000 b9a7 	b.w	8007e34 <__retarget_lock_release_recursive>
 8007ae6:	bf00      	nop
 8007ae8:	20001d09 	.word	0x20001d09

08007aec <__sinit>:
 8007aec:	b510      	push	{r4, lr}
 8007aee:	4604      	mov	r4, r0
 8007af0:	f7ff fff0 	bl	8007ad4 <__sfp_lock_acquire>
 8007af4:	6a23      	ldr	r3, [r4, #32]
 8007af6:	b11b      	cbz	r3, 8007b00 <__sinit+0x14>
 8007af8:	e8bd 4010 	ldmia.w	sp!, {r4, lr}
 8007afc:	f7ff bff0 	b.w	8007ae0 <__sfp_lock_release>
 8007b00:	4b04      	ldr	r3, [pc, #16]	@ (8007b14 <__sinit+0x28>)
 8007b02:	6223      	str	r3, [r4, #32]
 8007b04:	4b04      	ldr	r3, [pc, #16]	@ (8007b18 <__sinit+0x2c>)
 8007b06:	681b      	ldr	r3, [r3, #0]
 8007b08:	2b00      	cmp	r3, #0
 8007b0a:	d1f5      	bne.n	8007af8 <__sinit+0xc>
 8007b0c:	f7ff ffc2 	bl	8007a94 <global_stdio_init.part.0>
 8007b10:	e7f2      	b.n	8007af8 <__sinit+0xc>
 8007b12:	bf00      	nop
 8007b14:	08007a55 	.word	0x08007a55
 8007b18:	20001d00 	.word	0x20001d00

08007b1c <_fwalk_sglue>:
 8007b1c:	e92d 43f8 	stmdb	sp!, {r3, r4, r5, r6, r7, r8, r9, lr}
 8007b20:	4607      	mov	r7, r0
 8007b22:	4688      	mov	r8, r1
 8007b24:	4614      	mov	r4, r2
 8007b26:	2600      	movs	r6, #0
 8007b28:	e9d4 9501 	ldrd	r9, r5, [r4, #4]
 8007b2c:	f1b9 0901 	subs.w	r9, r9, #1
 8007b30:	d505      	bpl.n	8007b3e <_fwalk_sglue+0x22>
 8007b32:	6824      	ldr	r4, [r4, #0]
 8007b34:	2c00      	cmp	r4, #0
 8007b36:	d1f7      	bne.n	8007b28 <_fwalk_sglue+0xc>
 8007b38:	4630      	mov	r0, r6
 8007b3a:	e8bd 83f8 	ldmia.w	sp!, {r3, r4, r5, r6, r7, r8, r9, pc}
 8007b3e:	89ab      	ldrh	r3, [r5, #12]
 8007b40:	2b01      	cmp	r3, #1
 8007b42:	d907      	bls.n	8007b54 <_fwalk_sglue+0x38>
 8007b44:	f9b5 300e 	ldrsh.w	r3, [r5, #14]
 8007b48:	3301      	adds	r3, #1
 8007b4a:	d003      	beq.n	8007b54 <_fwalk_sglue+0x38>
 8007b4c:	4629      	mov	r1, r5
 8007b4e:	4638      	mov	r0, r7
 8007b50:	47c0      	blx	r8
 8007b52:	4306      	orrs	r6, r0
 8007b54:	3568      	adds	r5, #104	@ 0x68
 8007b56:	e7e9      	b.n	8007b2c <_fwalk_sglue+0x10>

08007b58 <sniprintf>:
 8007b58:	b40c      	push	{r2, r3}
 8007b5a:	b530      	push	{r4, r5, lr}
 8007b5c:	4b18      	ldr	r3, [pc, #96]	@ (8007bc0 <sniprintf+0x68>)
 8007b5e:	1e0c      	subs	r4, r1, #0
 8007b60:	681d      	ldr	r5, [r3, #0]
 8007b62:	b09d      	sub	sp, #116	@ 0x74
 8007b64:	da08      	bge.n	8007b78 <sniprintf+0x20>
 8007b66:	238b      	movs	r3, #139	@ 0x8b
 8007b68:	f04f 30ff 	mov.w	r0, #4294967295
 8007b6c:	602b      	str	r3, [r5, #0]
 8007b6e:	b01d      	add	sp, #116	@ 0x74
 8007b70:	e8bd 4030 	ldmia.w	sp!, {r4, r5, lr}
 8007b74:	b002      	add	sp, #8
 8007b76:	4770      	bx	lr
 8007b78:	f44f 7302 	mov.w	r3, #520	@ 0x208
 8007b7c:	f8ad 3014 	strh.w	r3, [sp, #20]
 8007b80:	f04f 0300 	mov.w	r3, #0
 8007b84:	931b      	str	r3, [sp, #108]	@ 0x6c
 8007b86:	bf0c      	ite	eq
 8007b88:	4623      	moveq	r3, r4
 8007b8a:	f104 33ff 	addne.w	r3, r4, #4294967295
 8007b8e:	9304      	str	r3, [sp, #16]
 8007b90:	9307      	str	r3, [sp, #28]
 8007b92:	f64f 73ff 	movw	r3, #65535	@ 0xffff
 8007b96:	9002      	str	r0, [sp, #8]
 8007b98:	9006      	str	r0, [sp, #24]
 8007b9a:	f8ad 3016 	strh.w	r3, [sp, #22]
 8007b9e:	4628      	mov	r0, r5
 8007ba0:	ab21      	add	r3, sp, #132	@ 0x84
 8007ba2:	9a20      	ldr	r2, [sp, #128]	@ 0x80
 8007ba4:	a902      	add	r1, sp, #8
 8007ba6:	9301      	str	r3, [sp, #4]
 8007ba8:	f000 fac2 	bl	8008130 <_svfiprintf_r>
 8007bac:	1c43      	adds	r3, r0, #1
 8007bae:	bfbc      	itt	lt
 8007bb0:	238b      	movlt	r3, #139	@ 0x8b
 8007bb2:	602b      	strlt	r3, [r5, #0]
 8007bb4:	2c00      	cmp	r4, #0
 8007bb6:	d0da      	beq.n	8007b6e <sniprintf+0x16>
 8007bb8:	2200      	movs	r2, #0
 8007bba:	9b02      	ldr	r3, [sp, #8]
 8007bbc:	701a      	strb	r2, [r3, #0]
 8007bbe:	e7d6      	b.n	8007b6e <sniprintf+0x16>
 8007bc0:	200001dc 	.word	0x200001dc

08007bc4 <__sread>:
 8007bc4:	b510      	push	{r4, lr}
 8007bc6:	460c      	mov	r4, r1
 8007bc8:	f9b1 100e 	ldrsh.w	r1, [r1, #14]
 8007bcc:	f000 f8e2 	bl	8007d94 <_read_r>
 8007bd0:	2800      	cmp	r0, #0
 8007bd2:	bfab      	itete	ge
 8007bd4:	6d63      	ldrge	r3, [r4, #84]	@ 0x54
 8007bd6:	89a3      	ldrhlt	r3, [r4, #12]
 8007bd8:	181b      	addge	r3, r3, r0
 8007bda:	f423 5380 	biclt.w	r3, r3, #4096	@ 0x1000
 8007bde:	bfac      	ite	ge
 8007be0:	6563      	strge	r3, [r4, #84]	@ 0x54
 8007be2:	81a3      	strhlt	r3, [r4, #12]
 8007be4:	bd10      	pop	{r4, pc}

08007be6 <__swrite>:
 8007be6:	e92d 41f0 	stmdb	sp!, {r4, r5, r6, r7, r8, lr}
 8007bea:	461f      	mov	r7, r3
 8007bec:	898b      	ldrh	r3, [r1, #12]
 8007bee:	4605      	mov	r5, r0
 8007bf0:	05db      	lsls	r3, r3, #23
 8007bf2:	460c      	mov	r4, r1
 8007bf4:	4616      	mov	r6, r2
 8007bf6:	d505      	bpl.n	8007c04 <__swrite+0x1e>
 8007bf8:	2302      	movs	r3, #2
 8007bfa:	2200      	movs	r2, #0
 8007bfc:	f9b1 100e 	ldrsh.w	r1, [r1, #14]
 8007c00:	f000 f8b6 	bl	8007d70 <_lseek_r>
 8007c04:	89a3      	ldrh	r3, [r4, #12]
 8007c06:	4632      	mov	r2, r6
 8007c08:	f423 5380 	bic.w	r3, r3, #4096	@ 0x1000
 8007c0c:	81a3      	strh	r3, [r4, #12]
 8007c0e:	4628      	mov	r0, r5
 8007c10:	463b      	mov	r3, r7
 8007c12:	f9b4 100e 	ldrsh.w	r1, [r4, #14]
 8007c16:	e8bd 41f0 	ldmia.w	sp!, {r4, r5, r6, r7, r8, lr}
 8007c1a:	f000 b8cd 	b.w	8007db8 <_write_r>

08007c1e <__sseek>:
 8007c1e:	b510      	push	{r4, lr}
 8007c20:	460c      	mov	r4, r1
 8007c22:	f9b1 100e 	ldrsh.w	r1, [r1, #14]
 8007c26:	f000 f8a3 	bl	8007d70 <_lseek_r>
 8007c2a:	f9b4 300c 	ldrsh.w	r3, [r4, #12]
 8007c2e:	1c42      	adds	r2, r0, #1
 8007c30:	bf0b      	itete	eq
 8007c32:	f423 5380 	biceq.w	r3, r3, #4096	@ 0x1000
 8007c36:	f443 5380 	orrne.w	r3, r3, #4096	@ 0x1000
 8007c3a:	81a3      	strheq	r3, [r4, #12]
 8007c3c:	81a3      	strhne	r3, [r4, #12]
 8007c3e:	bf18      	it	ne
 8007c40:	6560      	strne	r0, [r4, #84]	@ 0x54
 8007c42:	bd10      	pop	{r4, pc}

08007c44 <__sclose>:
 8007c44:	f9b1 100e 	ldrsh.w	r1, [r1, #14]
 8007c48:	f000 b882 	b.w	8007d50 <_close_r>

08007c4c <memset>:
 8007c4c:	4603      	mov	r3, r0
 8007c4e:	4402      	add	r2, r0
 8007c50:	4293      	cmp	r3, r2
 8007c52:	d100      	bne.n	8007c56 <memset+0xa>
 8007c54:	4770      	bx	lr
 8007c56:	f803 1b01 	strb.w	r1, [r3], #1
 8007c5a:	e7f9      	b.n	8007c50 <memset+0x4>

08007c5c <strncpy>:
 8007c5c:	4603      	mov	r3, r0
 8007c5e:	b510      	push	{r4, lr}
 8007c60:	3901      	subs	r1, #1
 8007c62:	b132      	cbz	r2, 8007c72 <strncpy+0x16>
 8007c64:	f811 4f01 	ldrb.w	r4, [r1, #1]!
 8007c68:	3a01      	subs	r2, #1
 8007c6a:	f803 4b01 	strb.w	r4, [r3], #1
 8007c6e:	2c00      	cmp	r4, #0
 8007c70:	d1f7      	bne.n	8007c62 <strncpy+0x6>
 8007c72:	2100      	movs	r1, #0
 8007c74:	441a      	add	r2, r3
 8007c76:	4293      	cmp	r3, r2
 8007c78:	d100      	bne.n	8007c7c <strncpy+0x20>
 8007c7a:	bd10      	pop	{r4, pc}
 8007c7c:	f803 1b01 	strb.w	r1, [r3], #1
 8007c80:	e7f9      	b.n	8007c76 <strncpy+0x1a>
	...

08007c84 <strtok>:
 8007c84:	4b1b      	ldr	r3, [pc, #108]	@ (8007cf4 <strtok+0x70>)
 8007c86:	e92d 41f0 	stmdb	sp!, {r4, r5, r6, r7, r8, lr}
 8007c8a:	681c      	ldr	r4, [r3, #0]
 8007c8c:	4606      	mov	r6, r0
 8007c8e:	6c65      	ldr	r5, [r4, #68]	@ 0x44
 8007c90:	460f      	mov	r7, r1
 8007c92:	bb3d      	cbnz	r5, 8007ce4 <strtok+0x60>
 8007c94:	2050      	movs	r0, #80	@ 0x50
 8007c96:	f000 f935 	bl	8007f04 <malloc>
 8007c9a:	4602      	mov	r2, r0
 8007c9c:	6460      	str	r0, [r4, #68]	@ 0x44
 8007c9e:	b920      	cbnz	r0, 8007caa <strtok+0x26>
 8007ca0:	215b      	movs	r1, #91	@ 0x5b
 8007ca2:	4b15      	ldr	r3, [pc, #84]	@ (8007cf8 <strtok+0x74>)
 8007ca4:	4815      	ldr	r0, [pc, #84]	@ (8007cfc <strtok+0x78>)
 8007ca6:	f000 f8c7 	bl	8007e38 <__assert_func>
 8007caa:	6085      	str	r5, [r0, #8]
 8007cac:	6c62      	ldr	r2, [r4, #68]	@ 0x44
 8007cae:	e9c0 5500 	strd	r5, r5, [r0]
 8007cb2:	e9c2 5503 	strd	r5, r5, [r2, #12]
 8007cb6:	6c62      	ldr	r2, [r4, #68]	@ 0x44
 8007cb8:	462b      	mov	r3, r5
 8007cba:	e9c2 5505 	strd	r5, r5, [r2, #20]
 8007cbe:	6c62      	ldr	r2, [r4, #68]	@ 0x44
 8007cc0:	e9c2 550a 	strd	r5, r5, [r2, #40]	@ 0x28
 8007cc4:	6c62      	ldr	r2, [r4, #68]	@ 0x44
 8007cc6:	e9c2 550c 	strd	r5, r5, [r2, #48]	@ 0x30
 8007cca:	6c62      	ldr	r2, [r4, #68]	@ 0x44
 8007ccc:	e9c2 550e 	strd	r5, r5, [r2, #56]	@ 0x38
 8007cd0:	6c62      	ldr	r2, [r4, #68]	@ 0x44
 8007cd2:	e9c2 5510 	strd	r5, r5, [r2, #64]	@ 0x40
 8007cd6:	6c62      	ldr	r2, [r4, #68]	@ 0x44
 8007cd8:	e9c2 5512 	strd	r5, r5, [r2, #72]	@ 0x48
 8007cdc:	6c62      	ldr	r2, [r4, #68]	@ 0x44
 8007cde:	7715      	strb	r5, [r2, #28]
 8007ce0:	6c65      	ldr	r5, [r4, #68]	@ 0x44
 8007ce2:	626b      	str	r3, [r5, #36]	@ 0x24
 8007ce4:	462a      	mov	r2, r5
 8007ce6:	4639      	mov	r1, r7
 8007ce8:	4630      	mov	r0, r6
 8007cea:	e8bd 41f0 	ldmia.w	sp!, {r4, r5, r6, r7, r8, lr}
 8007cee:	2301      	movs	r3, #1
 8007cf0:	f000 b806 	b.w	8007d00 <__strtok_r>
 8007cf4:	200001dc 	.word	0x200001dc
 8007cf8:	08009e0d 	.word	0x08009e0d
 8007cfc:	08009e24 	.word	0x08009e24

08007d00 <__strtok_r>:
 8007d00:	b5f0      	push	{r4, r5, r6, r7, lr}
 8007d02:	4604      	mov	r4, r0
 8007d04:	b908      	cbnz	r0, 8007d0a <__strtok_r+0xa>
 8007d06:	6814      	ldr	r4, [r2, #0]
 8007d08:	b144      	cbz	r4, 8007d1c <__strtok_r+0x1c>
 8007d0a:	460f      	mov	r7, r1
 8007d0c:	4620      	mov	r0, r4
 8007d0e:	f814 5b01 	ldrb.w	r5, [r4], #1
 8007d12:	f817 6b01 	ldrb.w	r6, [r7], #1
 8007d16:	b91e      	cbnz	r6, 8007d20 <__strtok_r+0x20>
 8007d18:	b965      	cbnz	r5, 8007d34 <__strtok_r+0x34>
 8007d1a:	6015      	str	r5, [r2, #0]
 8007d1c:	2000      	movs	r0, #0
 8007d1e:	e005      	b.n	8007d2c <__strtok_r+0x2c>
 8007d20:	42b5      	cmp	r5, r6
 8007d22:	d1f6      	bne.n	8007d12 <__strtok_r+0x12>
 8007d24:	2b00      	cmp	r3, #0
 8007d26:	d1f0      	bne.n	8007d0a <__strtok_r+0xa>
 8007d28:	6014      	str	r4, [r2, #0]
 8007d2a:	7003      	strb	r3, [r0, #0]
 8007d2c:	bdf0      	pop	{r4, r5, r6, r7, pc}
 8007d2e:	461c      	mov	r4, r3
 8007d30:	e00c      	b.n	8007d4c <__strtok_r+0x4c>
 8007d32:	b91d      	cbnz	r5, 8007d3c <__strtok_r+0x3c>
 8007d34:	460e      	mov	r6, r1
 8007d36:	4627      	mov	r7, r4
 8007d38:	f814 3b01 	ldrb.w	r3, [r4], #1
 8007d3c:	f816 5b01 	ldrb.w	r5, [r6], #1
 8007d40:	42ab      	cmp	r3, r5
 8007d42:	d1f6      	bne.n	8007d32 <__strtok_r+0x32>
 8007d44:	2b00      	cmp	r3, #0
 8007d46:	d0f2      	beq.n	8007d2e <__strtok_r+0x2e>
 8007d48:	2300      	movs	r3, #0
 8007d4a:	703b      	strb	r3, [r7, #0]
 8007d4c:	6014      	str	r4, [r2, #0]
 8007d4e:	e7ed      	b.n	8007d2c <__strtok_r+0x2c>

08007d50 <_close_r>:
 8007d50:	b538      	push	{r3, r4, r5, lr}
 8007d52:	2300      	movs	r3, #0
 8007d54:	4d05      	ldr	r5, [pc, #20]	@ (8007d6c <_close_r+0x1c>)
 8007d56:	4604      	mov	r4, r0
 8007d58:	4608      	mov	r0, r1
 8007d5a:	602b      	str	r3, [r5, #0]
 8007d5c:	f7fa ff34 	bl	8002bc8 <_close>
 8007d60:	1c43      	adds	r3, r0, #1
 8007d62:	d102      	bne.n	8007d6a <_close_r+0x1a>
 8007d64:	682b      	ldr	r3, [r5, #0]
 8007d66:	b103      	cbz	r3, 8007d6a <_close_r+0x1a>
 8007d68:	6023      	str	r3, [r4, #0]
 8007d6a:	bd38      	pop	{r3, r4, r5, pc}
 8007d6c:	20001d04 	.word	0x20001d04

08007d70 <_lseek_r>:
 8007d70:	b538      	push	{r3, r4, r5, lr}
 8007d72:	4604      	mov	r4, r0
 8007d74:	4608      	mov	r0, r1
 8007d76:	4611      	mov	r1, r2
 8007d78:	2200      	movs	r2, #0
 8007d7a:	4d05      	ldr	r5, [pc, #20]	@ (8007d90 <_lseek_r+0x20>)
 8007d7c:	602a      	str	r2, [r5, #0]
 8007d7e:	461a      	mov	r2, r3
 8007d80:	f7fa ff2c 	bl	8002bdc <_lseek>
 8007d84:	1c43      	adds	r3, r0, #1
 8007d86:	d102      	bne.n	8007d8e <_lseek_r+0x1e>
 8007d88:	682b      	ldr	r3, [r5, #0]
 8007d8a:	b103      	cbz	r3, 8007d8e <_lseek_r+0x1e>
 8007d8c:	6023      	str	r3, [r4, #0]
 8007d8e:	bd38      	pop	{r3, r4, r5, pc}
 8007d90:	20001d04 	.word	0x20001d04

08007d94 <_read_r>:
 8007d94:	b538      	push	{r3, r4, r5, lr}
 8007d96:	4604      	mov	r4, r0
 8007d98:	4608      	mov	r0, r1
 8007d9a:	4611      	mov	r1, r2
 8007d9c:	2200      	movs	r2, #0
 8007d9e:	4d05      	ldr	r5, [pc, #20]	@ (8007db4 <_read_r+0x20>)
 8007da0:	602a      	str	r2, [r5, #0]
 8007da2:	461a      	mov	r2, r3
 8007da4:	f7fa fef4 	bl	8002b90 <_read>
 8007da8:	1c43      	adds	r3, r0, #1
 8007daa:	d102      	bne.n	8007db2 <_read_r+0x1e>
 8007dac:	682b      	ldr	r3, [r5, #0]
 8007dae:	b103      	cbz	r3, 8007db2 <_read_r+0x1e>
 8007db0:	6023      	str	r3, [r4, #0]
 8007db2:	bd38      	pop	{r3, r4, r5, pc}
 8007db4:	20001d04 	.word	0x20001d04

08007db8 <_write_r>:
 8007db8:	b538      	push	{r3, r4, r5, lr}
 8007dba:	4604      	mov	r4, r0
 8007dbc:	4608      	mov	r0, r1
 8007dbe:	4611      	mov	r1, r2
 8007dc0:	2200      	movs	r2, #0
 8007dc2:	4d05      	ldr	r5, [pc, #20]	@ (8007dd8 <_write_r+0x20>)
 8007dc4:	602a      	str	r2, [r5, #0]
 8007dc6:	461a      	mov	r2, r3
 8007dc8:	f7fa fef0 	bl	8002bac <_write>
 8007dcc:	1c43      	adds	r3, r0, #1
 8007dce:	d102      	bne.n	8007dd6 <_write_r+0x1e>
 8007dd0:	682b      	ldr	r3, [r5, #0]
 8007dd2:	b103      	cbz	r3, 8007dd6 <_write_r+0x1e>
 8007dd4:	6023      	str	r3, [r4, #0]
 8007dd6:	bd38      	pop	{r3, r4, r5, pc}
 8007dd8:	20001d04 	.word	0x20001d04

08007ddc <__errno>:
 8007ddc:	4b01      	ldr	r3, [pc, #4]	@ (8007de4 <__errno+0x8>)
 8007dde:	6818      	ldr	r0, [r3, #0]
 8007de0:	4770      	bx	lr
 8007de2:	bf00      	nop
 8007de4:	200001dc 	.word	0x200001dc

08007de8 <__libc_init_array>:
 8007de8:	b570      	push	{r4, r5, r6, lr}
 8007dea:	2600      	movs	r6, #0
 8007dec:	4d0c      	ldr	r5, [pc, #48]	@ (8007e20 <__libc_init_array+0x38>)
 8007dee:	4b0d      	ldr	r3, [pc, #52]	@ (8007e24 <__libc_init_array+0x3c>)
 8007df0:	1b5b      	subs	r3, r3, r5
 8007df2:	109c      	asrs	r4, r3, #2
 8007df4:	42a6      	cmp	r6, r4
 8007df6:	d109      	bne.n	8007e0c <__libc_init_array+0x24>
 8007df8:	2600      	movs	r6, #0
 8007dfa:	f000 fff5 	bl	8008de8 <_init>
 8007dfe:	4d0a      	ldr	r5, [pc, #40]	@ (8007e28 <__libc_init_array+0x40>)
 8007e00:	4b0a      	ldr	r3, [pc, #40]	@ (8007e2c <__libc_init_array+0x44>)
 8007e02:	1b5b      	subs	r3, r3, r5
 8007e04:	109c      	asrs	r4, r3, #2
 8007e06:	42a6      	cmp	r6, r4
 8007e08:	d105      	bne.n	8007e16 <__libc_init_array+0x2e>
 8007e0a:	bd70      	pop	{r4, r5, r6, pc}
 8007e0c:	f855 3b04 	ldr.w	r3, [r5], #4
 8007e10:	4798      	blx	r3
 8007e12:	3601      	adds	r6, #1
 8007e14:	e7ee      	b.n	8007df4 <__libc_init_array+0xc>
 8007e16:	f855 3b04 	ldr.w	r3, [r5], #4
 8007e1a:	4798      	blx	r3
 8007e1c:	3601      	adds	r6, #1
 8007e1e:	e7f2      	b.n	8007e06 <__libc_init_array+0x1e>
 8007e20:	0800a170 	.word	0x0800a170
 8007e24:	0800a170 	.word	0x0800a170
 8007e28:	0800a170 	.word	0x0800a170
 8007e2c:	0800a174 	.word	0x0800a174

08007e30 <__retarget_lock_init_recursive>:
 8007e30:	4770      	bx	lr

08007e32 <__retarget_lock_acquire_recursive>:
 8007e32:	4770      	bx	lr

08007e34 <__retarget_lock_release_recursive>:
 8007e34:	4770      	bx	lr
	...

08007e38 <__assert_func>:
 8007e38:	b51f      	push	{r0, r1, r2, r3, r4, lr}
 8007e3a:	4614      	mov	r4, r2
 8007e3c:	461a      	mov	r2, r3
 8007e3e:	4b09      	ldr	r3, [pc, #36]	@ (8007e64 <__assert_func+0x2c>)
 8007e40:	4605      	mov	r5, r0
 8007e42:	681b      	ldr	r3, [r3, #0]
 8007e44:	68d8      	ldr	r0, [r3, #12]
 8007e46:	b14c      	cbz	r4, 8007e5c <__assert_func+0x24>
 8007e48:	4b07      	ldr	r3, [pc, #28]	@ (8007e68 <__assert_func+0x30>)
 8007e4a:	e9cd 3401 	strd	r3, r4, [sp, #4]
 8007e4e:	9100      	str	r1, [sp, #0]
 8007e50:	462b      	mov	r3, r5
 8007e52:	4906      	ldr	r1, [pc, #24]	@ (8007e6c <__assert_func+0x34>)
 8007e54:	f000 fca2 	bl	800879c <fiprintf>
 8007e58:	f000 fcf8 	bl	800884c <abort>
 8007e5c:	4b04      	ldr	r3, [pc, #16]	@ (8007e70 <__assert_func+0x38>)
 8007e5e:	461c      	mov	r4, r3
 8007e60:	e7f3      	b.n	8007e4a <__assert_func+0x12>
 8007e62:	bf00      	nop
 8007e64:	200001dc 	.word	0x200001dc
 8007e68:	08009e7e 	.word	0x08009e7e
 8007e6c:	08009e8b 	.word	0x08009e8b
 8007e70:	080094fa 	.word	0x080094fa

08007e74 <_free_r>:
 8007e74:	b538      	push	{r3, r4, r5, lr}
 8007e76:	4605      	mov	r5, r0
 8007e78:	2900      	cmp	r1, #0
 8007e7a:	d040      	beq.n	8007efe <_free_r+0x8a>
 8007e7c:	f851 3c04 	ldr.w	r3, [r1, #-4]
 8007e80:	1f0c      	subs	r4, r1, #4
 8007e82:	2b00      	cmp	r3, #0
 8007e84:	bfb8      	it	lt
 8007e86:	18e4      	addlt	r4, r4, r3
 8007e88:	f000 f8e6 	bl	8008058 <__malloc_lock>
 8007e8c:	4a1c      	ldr	r2, [pc, #112]	@ (8007f00 <_free_r+0x8c>)
 8007e8e:	6813      	ldr	r3, [r2, #0]
 8007e90:	b933      	cbnz	r3, 8007ea0 <_free_r+0x2c>
 8007e92:	6063      	str	r3, [r4, #4]
 8007e94:	6014      	str	r4, [r2, #0]
 8007e96:	4628      	mov	r0, r5
 8007e98:	e8bd 4038 	ldmia.w	sp!, {r3, r4, r5, lr}
 8007e9c:	f000 b8e2 	b.w	8008064 <__malloc_unlock>
 8007ea0:	42a3      	cmp	r3, r4
 8007ea2:	d908      	bls.n	8007eb6 <_free_r+0x42>
 8007ea4:	6820      	ldr	r0, [r4, #0]
 8007ea6:	1821      	adds	r1, r4, r0
 8007ea8:	428b      	cmp	r3, r1
 8007eaa:	bf01      	itttt	eq
 8007eac:	6819      	ldreq	r1, [r3, #0]
 8007eae:	685b      	ldreq	r3, [r3, #4]
 8007eb0:	1809      	addeq	r1, r1, r0
 8007eb2:	6021      	streq	r1, [r4, #0]
 8007eb4:	e7ed      	b.n	8007e92 <_free_r+0x1e>
 8007eb6:	461a      	mov	r2, r3
 8007eb8:	685b      	ldr	r3, [r3, #4]
 8007eba:	b10b      	cbz	r3, 8007ec0 <_free_r+0x4c>
 8007ebc:	42a3      	cmp	r3, r4
 8007ebe:	d9fa      	bls.n	8007eb6 <_free_r+0x42>
 8007ec0:	6811      	ldr	r1, [r2, #0]
 8007ec2:	1850      	adds	r0, r2, r1
 8007ec4:	42a0      	cmp	r0, r4
 8007ec6:	d10b      	bne.n	8007ee0 <_free_r+0x6c>
 8007ec8:	6820      	ldr	r0, [r4, #0]
 8007eca:	4401      	add	r1, r0
 8007ecc:	1850      	adds	r0, r2, r1
 8007ece:	4283      	cmp	r3, r0
 8007ed0:	6011      	str	r1, [r2, #0]
 8007ed2:	d1e0      	bne.n	8007e96 <_free_r+0x22>
 8007ed4:	6818      	ldr	r0, [r3, #0]
 8007ed6:	685b      	ldr	r3, [r3, #4]
 8007ed8:	4408      	add	r0, r1
 8007eda:	6010      	str	r0, [r2, #0]
 8007edc:	6053      	str	r3, [r2, #4]
 8007ede:	e7da      	b.n	8007e96 <_free_r+0x22>
 8007ee0:	d902      	bls.n	8007ee8 <_free_r+0x74>
 8007ee2:	230c      	movs	r3, #12
 8007ee4:	602b      	str	r3, [r5, #0]
 8007ee6:	e7d6      	b.n	8007e96 <_free_r+0x22>
 8007ee8:	6820      	ldr	r0, [r4, #0]
 8007eea:	1821      	adds	r1, r4, r0
 8007eec:	428b      	cmp	r3, r1
 8007eee:	bf01      	itttt	eq
 8007ef0:	6819      	ldreq	r1, [r3, #0]
 8007ef2:	685b      	ldreq	r3, [r3, #4]
 8007ef4:	1809      	addeq	r1, r1, r0
 8007ef6:	6021      	streq	r1, [r4, #0]
 8007ef8:	6063      	str	r3, [r4, #4]
 8007efa:	6054      	str	r4, [r2, #4]
 8007efc:	e7cb      	b.n	8007e96 <_free_r+0x22>
 8007efe:	bd38      	pop	{r3, r4, r5, pc}
 8007f00:	20001d10 	.word	0x20001d10

08007f04 <malloc>:
 8007f04:	4b02      	ldr	r3, [pc, #8]	@ (8007f10 <malloc+0xc>)
 8007f06:	4601      	mov	r1, r0
 8007f08:	6818      	ldr	r0, [r3, #0]
 8007f0a:	f000 b825 	b.w	8007f58 <_malloc_r>
 8007f0e:	bf00      	nop
 8007f10:	200001dc 	.word	0x200001dc

08007f14 <sbrk_aligned>:
 8007f14:	b570      	push	{r4, r5, r6, lr}
 8007f16:	4e0f      	ldr	r6, [pc, #60]	@ (8007f54 <sbrk_aligned+0x40>)
 8007f18:	460c      	mov	r4, r1
 8007f1a:	6831      	ldr	r1, [r6, #0]
 8007f1c:	4605      	mov	r5, r0
 8007f1e:	b911      	cbnz	r1, 8007f26 <sbrk_aligned+0x12>
 8007f20:	f000 fc68 	bl	80087f4 <_sbrk_r>
 8007f24:	6030      	str	r0, [r6, #0]
 8007f26:	4621      	mov	r1, r4
 8007f28:	4628      	mov	r0, r5
 8007f2a:	f000 fc63 	bl	80087f4 <_sbrk_r>
 8007f2e:	1c43      	adds	r3, r0, #1
 8007f30:	d103      	bne.n	8007f3a <sbrk_aligned+0x26>
 8007f32:	f04f 34ff 	mov.w	r4, #4294967295
 8007f36:	4620      	mov	r0, r4
 8007f38:	bd70      	pop	{r4, r5, r6, pc}
 8007f3a:	1cc4      	adds	r4, r0, #3
 8007f3c:	f024 0403 	bic.w	r4, r4, #3
 8007f40:	42a0      	cmp	r0, r4
 8007f42:	d0f8      	beq.n	8007f36 <sbrk_aligned+0x22>
 8007f44:	1a21      	subs	r1, r4, r0
 8007f46:	4628      	mov	r0, r5
 8007f48:	f000 fc54 	bl	80087f4 <_sbrk_r>
 8007f4c:	3001      	adds	r0, #1
 8007f4e:	d1f2      	bne.n	8007f36 <sbrk_aligned+0x22>
 8007f50:	e7ef      	b.n	8007f32 <sbrk_aligned+0x1e>
 8007f52:	bf00      	nop
 8007f54:	20001d0c 	.word	0x20001d0c

08007f58 <_malloc_r>:
 8007f58:	e92d 43f8 	stmdb	sp!, {r3, r4, r5, r6, r7, r8, r9, lr}
 8007f5c:	1ccd      	adds	r5, r1, #3
 8007f5e:	f025 0503 	bic.w	r5, r5, #3
 8007f62:	3508      	adds	r5, #8
 8007f64:	2d0c      	cmp	r5, #12
 8007f66:	bf38      	it	cc
 8007f68:	250c      	movcc	r5, #12
 8007f6a:	2d00      	cmp	r5, #0
 8007f6c:	4606      	mov	r6, r0
 8007f6e:	db01      	blt.n	8007f74 <_malloc_r+0x1c>
 8007f70:	42a9      	cmp	r1, r5
 8007f72:	d904      	bls.n	8007f7e <_malloc_r+0x26>
 8007f74:	230c      	movs	r3, #12
 8007f76:	6033      	str	r3, [r6, #0]
 8007f78:	2000      	movs	r0, #0
 8007f7a:	e8bd 83f8 	ldmia.w	sp!, {r3, r4, r5, r6, r7, r8, r9, pc}
 8007f7e:	f8df 80d4 	ldr.w	r8, [pc, #212]	@ 8008054 <_malloc_r+0xfc>
 8007f82:	f000 f869 	bl	8008058 <__malloc_lock>
 8007f86:	f8d8 3000 	ldr.w	r3, [r8]
 8007f8a:	461c      	mov	r4, r3
 8007f8c:	bb44      	cbnz	r4, 8007fe0 <_malloc_r+0x88>
 8007f8e:	4629      	mov	r1, r5
 8007f90:	4630      	mov	r0, r6
 8007f92:	f7ff ffbf 	bl	8007f14 <sbrk_aligned>
 8007f96:	1c43      	adds	r3, r0, #1
 8007f98:	4604      	mov	r4, r0
 8007f9a:	d158      	bne.n	800804e <_malloc_r+0xf6>
 8007f9c:	f8d8 4000 	ldr.w	r4, [r8]
 8007fa0:	4627      	mov	r7, r4
 8007fa2:	2f00      	cmp	r7, #0
 8007fa4:	d143      	bne.n	800802e <_malloc_r+0xd6>
 8007fa6:	2c00      	cmp	r4, #0
 8007fa8:	d04b      	beq.n	8008042 <_malloc_r+0xea>
 8007faa:	6823      	ldr	r3, [r4, #0]
 8007fac:	4639      	mov	r1, r7
 8007fae:	4630      	mov	r0, r6
 8007fb0:	eb04 0903 	add.w	r9, r4, r3
 8007fb4:	f000 fc1e 	bl	80087f4 <_sbrk_r>
 8007fb8:	4581      	cmp	r9, r0
 8007fba:	d142      	bne.n	8008042 <_malloc_r+0xea>
 8007fbc:	6821      	ldr	r1, [r4, #0]
 8007fbe:	4630      	mov	r0, r6
 8007fc0:	1a6d      	subs	r5, r5, r1
 8007fc2:	4629      	mov	r1, r5
 8007fc4:	f7ff ffa6 	bl	8007f14 <sbrk_aligned>
 8007fc8:	3001      	adds	r0, #1
 8007fca:	d03a      	beq.n	8008042 <_malloc_r+0xea>
 8007fcc:	6823      	ldr	r3, [r4, #0]
 8007fce:	442b      	add	r3, r5
 8007fd0:	6023      	str	r3, [r4, #0]
 8007fd2:	f8d8 3000 	ldr.w	r3, [r8]
 8007fd6:	685a      	ldr	r2, [r3, #4]
 8007fd8:	bb62      	cbnz	r2, 8008034 <_malloc_r+0xdc>
 8007fda:	f8c8 7000 	str.w	r7, [r8]
 8007fde:	e00f      	b.n	8008000 <_malloc_r+0xa8>
 8007fe0:	6822      	ldr	r2, [r4, #0]
 8007fe2:	1b52      	subs	r2, r2, r5
 8007fe4:	d420      	bmi.n	8008028 <_malloc_r+0xd0>
 8007fe6:	2a0b      	cmp	r2, #11
 8007fe8:	d917      	bls.n	800801a <_malloc_r+0xc2>
 8007fea:	1961      	adds	r1, r4, r5
 8007fec:	42a3      	cmp	r3, r4
 8007fee:	6025      	str	r5, [r4, #0]
 8007ff0:	bf18      	it	ne
 8007ff2:	6059      	strne	r1, [r3, #4]
 8007ff4:	6863      	ldr	r3, [r4, #4]
 8007ff6:	bf08      	it	eq
 8007ff8:	f8c8 1000 	streq.w	r1, [r8]
 8007ffc:	5162      	str	r2, [r4, r5]
 8007ffe:	604b      	str	r3, [r1, #4]
 8008000:	4630      	mov	r0, r6
 8008002:	f000 f82f 	bl	8008064 <__malloc_unlock>
 8008006:	f104 000b 	add.w	r0, r4, #11
 800800a:	1d23      	adds	r3, r4, #4
 800800c:	f020 0007 	bic.w	r0, r0, #7
 8008010:	1ac2      	subs	r2, r0, r3
 8008012:	bf1c      	itt	ne
 8008014:	1a1b      	subne	r3, r3, r0
 8008016:	50a3      	strne	r3, [r4, r2]
 8008018:	e7af      	b.n	8007f7a <_malloc_r+0x22>
 800801a:	6862      	ldr	r2, [r4, #4]
 800801c:	42a3      	cmp	r3, r4
 800801e:	bf0c      	ite	eq
 8008020:	f8c8 2000 	streq.w	r2, [r8]
 8008024:	605a      	strne	r2, [r3, #4]
 8008026:	e7eb      	b.n	8008000 <_malloc_r+0xa8>
 8008028:	4623      	mov	r3, r4
 800802a:	6864      	ldr	r4, [r4, #4]
 800802c:	e7ae      	b.n	8007f8c <_malloc_r+0x34>
 800802e:	463c      	mov	r4, r7
 8008030:	687f      	ldr	r7, [r7, #4]
 8008032:	e7b6      	b.n	8007fa2 <_malloc_r+0x4a>
 8008034:	461a      	mov	r2, r3
 8008036:	685b      	ldr	r3, [r3, #4]
 8008038:	42a3      	cmp	r3, r4
 800803a:	d1fb      	bne.n	8008034 <_malloc_r+0xdc>
 800803c:	2300      	movs	r3, #0
 800803e:	6053      	str	r3, [r2, #4]
 8008040:	e7de      	b.n	8008000 <_malloc_r+0xa8>
 8008042:	230c      	movs	r3, #12
 8008044:	4630      	mov	r0, r6
 8008046:	6033      	str	r3, [r6, #0]
 8008048:	f000 f80c 	bl	8008064 <__malloc_unlock>
 800804c:	e794      	b.n	8007f78 <_malloc_r+0x20>
 800804e:	6005      	str	r5, [r0, #0]
 8008050:	e7d6      	b.n	8008000 <_malloc_r+0xa8>
 8008052:	bf00      	nop
 8008054:	20001d10 	.word	0x20001d10

08008058 <__malloc_lock>:
 8008058:	4801      	ldr	r0, [pc, #4]	@ (8008060 <__malloc_lock+0x8>)
 800805a:	f7ff beea 	b.w	8007e32 <__retarget_lock_acquire_recursive>
 800805e:	bf00      	nop
 8008060:	20001d08 	.word	0x20001d08

08008064 <__malloc_unlock>:
 8008064:	4801      	ldr	r0, [pc, #4]	@ (800806c <__malloc_unlock+0x8>)
 8008066:	f7ff bee5 	b.w	8007e34 <__retarget_lock_release_recursive>
 800806a:	bf00      	nop
 800806c:	20001d08 	.word	0x20001d08

08008070 <__ssputs_r>:
 8008070:	e92d 47f0 	stmdb	sp!, {r4, r5, r6, r7, r8, r9, sl, lr}
 8008074:	461f      	mov	r7, r3
 8008076:	688e      	ldr	r6, [r1, #8]
 8008078:	4682      	mov	sl, r0
 800807a:	42be      	cmp	r6, r7
 800807c:	460c      	mov	r4, r1
 800807e:	4690      	mov	r8, r2
 8008080:	4633      	mov	r3, r6
 8008082:	d853      	bhi.n	800812c <__ssputs_r+0xbc>
 8008084:	f9b1 000c 	ldrsh.w	r0, [r1, #12]
 8008088:	f410 6f90 	tst.w	r0, #1152	@ 0x480
 800808c:	d02b      	beq.n	80080e6 <__ssputs_r+0x76>
 800808e:	6965      	ldr	r5, [r4, #20]
 8008090:	6823      	ldr	r3, [r4, #0]
 8008092:	6909      	ldr	r1, [r1, #16]
 8008094:	eb05 0545 	add.w	r5, r5, r5, lsl #1
 8008098:	eba3 0901 	sub.w	r9, r3, r1
 800809c:	eb05 75d5 	add.w	r5, r5, r5, lsr #31
 80080a0:	1c7b      	adds	r3, r7, #1
 80080a2:	106d      	asrs	r5, r5, #1
 80080a4:	444b      	add	r3, r9
 80080a6:	42ab      	cmp	r3, r5
 80080a8:	462a      	mov	r2, r5
 80080aa:	bf84      	itt	hi
 80080ac:	461d      	movhi	r5, r3
 80080ae:	462a      	movhi	r2, r5
 80080b0:	0543      	lsls	r3, r0, #21
 80080b2:	d527      	bpl.n	8008104 <__ssputs_r+0x94>
 80080b4:	4611      	mov	r1, r2
 80080b6:	4650      	mov	r0, sl
 80080b8:	f7ff ff4e 	bl	8007f58 <_malloc_r>
 80080bc:	4606      	mov	r6, r0
 80080be:	b358      	cbz	r0, 8008118 <__ssputs_r+0xa8>
 80080c0:	464a      	mov	r2, r9
 80080c2:	6921      	ldr	r1, [r4, #16]
 80080c4:	f000 fbb4 	bl	8008830 <memcpy>
 80080c8:	89a3      	ldrh	r3, [r4, #12]
 80080ca:	f423 6390 	bic.w	r3, r3, #1152	@ 0x480
 80080ce:	f043 0380 	orr.w	r3, r3, #128	@ 0x80
 80080d2:	81a3      	strh	r3, [r4, #12]
 80080d4:	6126      	str	r6, [r4, #16]
 80080d6:	444e      	add	r6, r9
 80080d8:	6026      	str	r6, [r4, #0]
 80080da:	463b      	mov	r3, r7
 80080dc:	463e      	mov	r6, r7
 80080de:	6165      	str	r5, [r4, #20]
 80080e0:	eba5 0509 	sub.w	r5, r5, r9
 80080e4:	60a5      	str	r5, [r4, #8]
 80080e6:	461f      	mov	r7, r3
 80080e8:	463a      	mov	r2, r7
 80080ea:	4641      	mov	r1, r8
 80080ec:	6820      	ldr	r0, [r4, #0]
 80080ee:	f000 fb67 	bl	80087c0 <memmove>
 80080f2:	2000      	movs	r0, #0
 80080f4:	68a3      	ldr	r3, [r4, #8]
 80080f6:	1b9b      	subs	r3, r3, r6
 80080f8:	60a3      	str	r3, [r4, #8]
 80080fa:	6823      	ldr	r3, [r4, #0]
 80080fc:	443b      	add	r3, r7
 80080fe:	6023      	str	r3, [r4, #0]
 8008100:	e8bd 87f0 	ldmia.w	sp!, {r4, r5, r6, r7, r8, r9, sl, pc}
 8008104:	4650      	mov	r0, sl
 8008106:	f000 fba8 	bl	800885a <_realloc_r>
 800810a:	4606      	mov	r6, r0
 800810c:	2800      	cmp	r0, #0
 800810e:	d1e1      	bne.n	80080d4 <__ssputs_r+0x64>
 8008110:	4650      	mov	r0, sl
 8008112:	6921      	ldr	r1, [r4, #16]
 8008114:	f7ff feae 	bl	8007e74 <_free_r>
 8008118:	230c      	movs	r3, #12
 800811a:	f8ca 3000 	str.w	r3, [sl]
 800811e:	89a3      	ldrh	r3, [r4, #12]
 8008120:	f04f 30ff 	mov.w	r0, #4294967295
 8008124:	f043 0340 	orr.w	r3, r3, #64	@ 0x40
 8008128:	81a3      	strh	r3, [r4, #12]
 800812a:	e7e9      	b.n	8008100 <__ssputs_r+0x90>
 800812c:	463e      	mov	r6, r7
 800812e:	e7db      	b.n	80080e8 <__ssputs_r+0x78>

08008130 <_svfiprintf_r>:
 8008130:	e92d 47f0 	stmdb	sp!, {r4, r5, r6, r7, r8, r9, sl, lr}
 8008134:	461f      	mov	r7, r3
 8008136:	898b      	ldrh	r3, [r1, #12]
 8008138:	4606      	mov	r6, r0
 800813a:	061b      	lsls	r3, r3, #24
 800813c:	460d      	mov	r5, r1
 800813e:	4614      	mov	r4, r2
 8008140:	b09c      	sub	sp, #112	@ 0x70
 8008142:	d510      	bpl.n	8008166 <_svfiprintf_r+0x36>
 8008144:	690b      	ldr	r3, [r1, #16]
 8008146:	b973      	cbnz	r3, 8008166 <_svfiprintf_r+0x36>
 8008148:	2140      	movs	r1, #64	@ 0x40
 800814a:	f7ff ff05 	bl	8007f58 <_malloc_r>
 800814e:	6028      	str	r0, [r5, #0]
 8008150:	6128      	str	r0, [r5, #16]
 8008152:	b930      	cbnz	r0, 8008162 <_svfiprintf_r+0x32>
 8008154:	230c      	movs	r3, #12
 8008156:	6033      	str	r3, [r6, #0]
 8008158:	f04f 30ff 	mov.w	r0, #4294967295
 800815c:	b01c      	add	sp, #112	@ 0x70
 800815e:	e8bd 87f0 	ldmia.w	sp!, {r4, r5, r6, r7, r8, r9, sl, pc}
 8008162:	2340      	movs	r3, #64	@ 0x40
 8008164:	616b      	str	r3, [r5, #20]
 8008166:	2300      	movs	r3, #0
 8008168:	9309      	str	r3, [sp, #36]	@ 0x24
 800816a:	2320      	movs	r3, #32
 800816c:	f88d 3029 	strb.w	r3, [sp, #41]	@ 0x29
 8008170:	2330      	movs	r3, #48	@ 0x30
 8008172:	f04f 0801 	mov.w	r8, #1
 8008176:	9703      	str	r7, [sp, #12]
 8008178:	4f64      	ldr	r7, [pc, #400]	@ (800830c <_svfiprintf_r+0x1dc>)
 800817a:	f88d 302a 	strb.w	r3, [sp, #42]	@ 0x2a
 800817e:	4623      	mov	r3, r4
 8008180:	4699      	mov	r9, r3
 8008182:	f813 2b01 	ldrb.w	r2, [r3], #1
 8008186:	b10a      	cbz	r2, 800818c <_svfiprintf_r+0x5c>
 8008188:	2a25      	cmp	r2, #37	@ 0x25
 800818a:	d1f9      	bne.n	8008180 <_svfiprintf_r+0x50>
 800818c:	ebb9 0a04 	subs.w	sl, r9, r4
 8008190:	d00b      	beq.n	80081aa <_svfiprintf_r+0x7a>
 8008192:	4653      	mov	r3, sl
 8008194:	4622      	mov	r2, r4
 8008196:	4629      	mov	r1, r5
 8008198:	4630      	mov	r0, r6
 800819a:	f7ff ff69 	bl	8008070 <__ssputs_r>
 800819e:	3001      	adds	r0, #1
 80081a0:	f000 80a4 	beq.w	80082ec <_svfiprintf_r+0x1bc>
 80081a4:	9a09      	ldr	r2, [sp, #36]	@ 0x24
 80081a6:	4452      	add	r2, sl
 80081a8:	9209      	str	r2, [sp, #36]	@ 0x24
 80081aa:	f899 3000 	ldrb.w	r3, [r9]
 80081ae:	2b00      	cmp	r3, #0
 80081b0:	f000 809c 	beq.w	80082ec <_svfiprintf_r+0x1bc>
 80081b4:	2300      	movs	r3, #0
 80081b6:	f04f 32ff 	mov.w	r2, #4294967295
 80081ba:	e9cd 2305 	strd	r2, r3, [sp, #20]
 80081be:	f109 0901 	add.w	r9, r9, #1
 80081c2:	9304      	str	r3, [sp, #16]
 80081c4:	9307      	str	r3, [sp, #28]
 80081c6:	f88d 3053 	strb.w	r3, [sp, #83]	@ 0x53
 80081ca:	931a      	str	r3, [sp, #104]	@ 0x68
 80081cc:	464c      	mov	r4, r9
 80081ce:	2205      	movs	r2, #5
 80081d0:	f814 1b01 	ldrb.w	r1, [r4], #1
 80081d4:	484d      	ldr	r0, [pc, #308]	@ (800830c <_svfiprintf_r+0x1dc>)
 80081d6:	f000 fb1d 	bl	8008814 <memchr>
 80081da:	9b04      	ldr	r3, [sp, #16]
 80081dc:	b9d0      	cbnz	r0, 8008214 <_svfiprintf_r+0xe4>
 80081de:	06d8      	lsls	r0, r3, #27
 80081e0:	bf44      	itt	mi
 80081e2:	2220      	movmi	r2, #32
 80081e4:	f88d 2053 	strbmi.w	r2, [sp, #83]	@ 0x53
 80081e8:	0719      	lsls	r1, r3, #28
 80081ea:	bf44      	itt	mi
 80081ec:	222b      	movmi	r2, #43	@ 0x2b
 80081ee:	f88d 2053 	strbmi.w	r2, [sp, #83]	@ 0x53
 80081f2:	f899 2000 	ldrb.w	r2, [r9]
 80081f6:	2a2a      	cmp	r2, #42	@ 0x2a
 80081f8:	d013      	beq.n	8008222 <_svfiprintf_r+0xf2>
 80081fa:	464c      	mov	r4, r9
 80081fc:	2000      	movs	r0, #0
 80081fe:	f04f 0c0a 	mov.w	ip, #10
 8008202:	9a07      	ldr	r2, [sp, #28]
 8008204:	4621      	mov	r1, r4
 8008206:	f811 3b01 	ldrb.w	r3, [r1], #1
 800820a:	3b30      	subs	r3, #48	@ 0x30
 800820c:	2b09      	cmp	r3, #9
 800820e:	d949      	bls.n	80082a4 <_svfiprintf_r+0x174>
 8008210:	b968      	cbnz	r0, 800822e <_svfiprintf_r+0xfe>
 8008212:	e013      	b.n	800823c <_svfiprintf_r+0x10c>
 8008214:	1bc0      	subs	r0, r0, r7
 8008216:	fa08 f000 	lsl.w	r0, r8, r0
 800821a:	4318      	orrs	r0, r3
 800821c:	46a1      	mov	r9, r4
 800821e:	9004      	str	r0, [sp, #16]
 8008220:	e7d4      	b.n	80081cc <_svfiprintf_r+0x9c>
 8008222:	9a03      	ldr	r2, [sp, #12]
 8008224:	1d11      	adds	r1, r2, #4
 8008226:	6812      	ldr	r2, [r2, #0]
 8008228:	9103      	str	r1, [sp, #12]
 800822a:	2a00      	cmp	r2, #0
 800822c:	db01      	blt.n	8008232 <_svfiprintf_r+0x102>
 800822e:	9207      	str	r2, [sp, #28]
 8008230:	e004      	b.n	800823c <_svfiprintf_r+0x10c>
 8008232:	4252      	negs	r2, r2
 8008234:	f043 0302 	orr.w	r3, r3, #2
 8008238:	9207      	str	r2, [sp, #28]
 800823a:	9304      	str	r3, [sp, #16]
 800823c:	7823      	ldrb	r3, [r4, #0]
 800823e:	2b2e      	cmp	r3, #46	@ 0x2e
 8008240:	d10a      	bne.n	8008258 <_svfiprintf_r+0x128>
 8008242:	7863      	ldrb	r3, [r4, #1]
 8008244:	2b2a      	cmp	r3, #42	@ 0x2a
 8008246:	d132      	bne.n	80082ae <_svfiprintf_r+0x17e>
 8008248:	9b03      	ldr	r3, [sp, #12]
 800824a:	3402      	adds	r4, #2
 800824c:	1d1a      	adds	r2, r3, #4
 800824e:	681b      	ldr	r3, [r3, #0]
 8008250:	9203      	str	r2, [sp, #12]
 8008252:	ea43 73e3 	orr.w	r3, r3, r3, asr #31
 8008256:	9305      	str	r3, [sp, #20]
 8008258:	f8df 90b4 	ldr.w	r9, [pc, #180]	@ 8008310 <_svfiprintf_r+0x1e0>
 800825c:	2203      	movs	r2, #3
 800825e:	4648      	mov	r0, r9
 8008260:	7821      	ldrb	r1, [r4, #0]
 8008262:	f000 fad7 	bl	8008814 <memchr>
 8008266:	b138      	cbz	r0, 8008278 <_svfiprintf_r+0x148>
 8008268:	2240      	movs	r2, #64	@ 0x40
 800826a:	9b04      	ldr	r3, [sp, #16]
 800826c:	eba0 0009 	sub.w	r0, r0, r9
 8008270:	4082      	lsls	r2, r0
 8008272:	4313      	orrs	r3, r2
 8008274:	3401      	adds	r4, #1
 8008276:	9304      	str	r3, [sp, #16]
 8008278:	f814 1b01 	ldrb.w	r1, [r4], #1
 800827c:	2206      	movs	r2, #6
 800827e:	4825      	ldr	r0, [pc, #148]	@ (8008314 <_svfiprintf_r+0x1e4>)
 8008280:	f88d 1028 	strb.w	r1, [sp, #40]	@ 0x28
 8008284:	f000 fac6 	bl	8008814 <memchr>
 8008288:	2800      	cmp	r0, #0
 800828a:	d035      	beq.n	80082f8 <_svfiprintf_r+0x1c8>
 800828c:	4822      	ldr	r0, [pc, #136]	@ (8008318 <_svfiprintf_r+0x1e8>)
 800828e:	bb18      	cbnz	r0, 80082d8 <_svfiprintf_r+0x1a8>
 8008290:	9b03      	ldr	r3, [sp, #12]
 8008292:	3307      	adds	r3, #7
 8008294:	f023 0307 	bic.w	r3, r3, #7
 8008298:	3308      	adds	r3, #8
 800829a:	9303      	str	r3, [sp, #12]
 800829c:	9b09      	ldr	r3, [sp, #36]	@ 0x24
 800829e:	4403      	add	r3, r0
 80082a0:	9309      	str	r3, [sp, #36]	@ 0x24
 80082a2:	e76c      	b.n	800817e <_svfiprintf_r+0x4e>
 80082a4:	460c      	mov	r4, r1
 80082a6:	2001      	movs	r0, #1
 80082a8:	fb0c 3202 	mla	r2, ip, r2, r3
 80082ac:	e7aa      	b.n	8008204 <_svfiprintf_r+0xd4>
 80082ae:	2300      	movs	r3, #0
 80082b0:	f04f 0c0a 	mov.w	ip, #10
 80082b4:	4619      	mov	r1, r3
 80082b6:	3401      	adds	r4, #1
 80082b8:	9305      	str	r3, [sp, #20]
 80082ba:	4620      	mov	r0, r4
 80082bc:	f810 2b01 	ldrb.w	r2, [r0], #1
 80082c0:	3a30      	subs	r2, #48	@ 0x30
 80082c2:	2a09      	cmp	r2, #9
 80082c4:	d903      	bls.n	80082ce <_svfiprintf_r+0x19e>
 80082c6:	2b00      	cmp	r3, #0
 80082c8:	d0c6      	beq.n	8008258 <_svfiprintf_r+0x128>
 80082ca:	9105      	str	r1, [sp, #20]
 80082cc:	e7c4      	b.n	8008258 <_svfiprintf_r+0x128>
 80082ce:	4604      	mov	r4, r0
 80082d0:	2301      	movs	r3, #1
 80082d2:	fb0c 2101 	mla	r1, ip, r1, r2
 80082d6:	e7f0      	b.n	80082ba <_svfiprintf_r+0x18a>
 80082d8:	ab03      	add	r3, sp, #12
 80082da:	9300      	str	r3, [sp, #0]
 80082dc:	462a      	mov	r2, r5
 80082de:	4630      	mov	r0, r6
 80082e0:	4b0e      	ldr	r3, [pc, #56]	@ (800831c <_svfiprintf_r+0x1ec>)
 80082e2:	a904      	add	r1, sp, #16
 80082e4:	f3af 8000 	nop.w
 80082e8:	1c42      	adds	r2, r0, #1
 80082ea:	d1d7      	bne.n	800829c <_svfiprintf_r+0x16c>
 80082ec:	89ab      	ldrh	r3, [r5, #12]
 80082ee:	065b      	lsls	r3, r3, #25
 80082f0:	f53f af32 	bmi.w	8008158 <_svfiprintf_r+0x28>
 80082f4:	9809      	ldr	r0, [sp, #36]	@ 0x24
 80082f6:	e731      	b.n	800815c <_svfiprintf_r+0x2c>
 80082f8:	ab03      	add	r3, sp, #12
 80082fa:	9300      	str	r3, [sp, #0]
 80082fc:	462a      	mov	r2, r5
 80082fe:	4630      	mov	r0, r6
 8008300:	4b06      	ldr	r3, [pc, #24]	@ (800831c <_svfiprintf_r+0x1ec>)
 8008302:	a904      	add	r1, sp, #16
 8008304:	f000 f87e 	bl	8008404 <_printf_i>
 8008308:	e7ee      	b.n	80082e8 <_svfiprintf_r+0x1b8>
 800830a:	bf00      	nop
 800830c:	08009eba 	.word	0x08009eba
 8008310:	08009ec0 	.word	0x08009ec0
 8008314:	08009ec4 	.word	0x08009ec4
 8008318:	00000000 	.word	0x00000000
 800831c:	08008071 	.word	0x08008071

08008320 <_printf_common>:
 8008320:	e92d 47f0 	stmdb	sp!, {r4, r5, r6, r7, r8, r9, sl, lr}
 8008324:	4616      	mov	r6, r2
 8008326:	4698      	mov	r8, r3
 8008328:	688a      	ldr	r2, [r1, #8]
 800832a:	690b      	ldr	r3, [r1, #16]
 800832c:	4607      	mov	r7, r0
 800832e:	4293      	cmp	r3, r2
 8008330:	bfb8      	it	lt
 8008332:	4613      	movlt	r3, r2
 8008334:	6033      	str	r3, [r6, #0]
 8008336:	f891 2043 	ldrb.w	r2, [r1, #67]	@ 0x43
 800833a:	460c      	mov	r4, r1
 800833c:	f8dd 9020 	ldr.w	r9, [sp, #32]
 8008340:	b10a      	cbz	r2, 8008346 <_printf_common+0x26>
 8008342:	3301      	adds	r3, #1
 8008344:	6033      	str	r3, [r6, #0]
 8008346:	6823      	ldr	r3, [r4, #0]
 8008348:	0699      	lsls	r1, r3, #26
 800834a:	bf42      	ittt	mi
 800834c:	6833      	ldrmi	r3, [r6, #0]
 800834e:	3302      	addmi	r3, #2
 8008350:	6033      	strmi	r3, [r6, #0]
 8008352:	6825      	ldr	r5, [r4, #0]
 8008354:	f015 0506 	ands.w	r5, r5, #6
 8008358:	d106      	bne.n	8008368 <_printf_common+0x48>
 800835a:	f104 0a19 	add.w	sl, r4, #25
 800835e:	68e3      	ldr	r3, [r4, #12]
 8008360:	6832      	ldr	r2, [r6, #0]
 8008362:	1a9b      	subs	r3, r3, r2
 8008364:	42ab      	cmp	r3, r5
 8008366:	dc2b      	bgt.n	80083c0 <_printf_common+0xa0>
 8008368:	f894 3043 	ldrb.w	r3, [r4, #67]	@ 0x43
 800836c:	6822      	ldr	r2, [r4, #0]
 800836e:	3b00      	subs	r3, #0
 8008370:	bf18      	it	ne
 8008372:	2301      	movne	r3, #1
 8008374:	0692      	lsls	r2, r2, #26
 8008376:	d430      	bmi.n	80083da <_printf_common+0xba>
 8008378:	4641      	mov	r1, r8
 800837a:	4638      	mov	r0, r7
 800837c:	f104 0243 	add.w	r2, r4, #67	@ 0x43
 8008380:	47c8      	blx	r9
 8008382:	3001      	adds	r0, #1
 8008384:	d023      	beq.n	80083ce <_printf_common+0xae>
 8008386:	6823      	ldr	r3, [r4, #0]
 8008388:	6922      	ldr	r2, [r4, #16]
 800838a:	f003 0306 	and.w	r3, r3, #6
 800838e:	2b04      	cmp	r3, #4
 8008390:	bf14      	ite	ne
 8008392:	2500      	movne	r5, #0
 8008394:	6833      	ldreq	r3, [r6, #0]
 8008396:	f04f 0600 	mov.w	r6, #0
 800839a:	bf08      	it	eq
 800839c:	68e5      	ldreq	r5, [r4, #12]
 800839e:	f104 041a 	add.w	r4, r4, #26
 80083a2:	bf08      	it	eq
 80083a4:	1aed      	subeq	r5, r5, r3
 80083a6:	f854 3c12 	ldr.w	r3, [r4, #-18]
 80083aa:	bf08      	it	eq
 80083ac:	ea25 75e5 	biceq.w	r5, r5, r5, asr #31
 80083b0:	4293      	cmp	r3, r2
 80083b2:	bfc4      	itt	gt
 80083b4:	1a9b      	subgt	r3, r3, r2
 80083b6:	18ed      	addgt	r5, r5, r3
 80083b8:	42b5      	cmp	r5, r6
 80083ba:	d11a      	bne.n	80083f2 <_printf_common+0xd2>
 80083bc:	2000      	movs	r0, #0
 80083be:	e008      	b.n	80083d2 <_printf_common+0xb2>
 80083c0:	2301      	movs	r3, #1
 80083c2:	4652      	mov	r2, sl
 80083c4:	4641      	mov	r1, r8
 80083c6:	4638      	mov	r0, r7
 80083c8:	47c8      	blx	r9
 80083ca:	3001      	adds	r0, #1
 80083cc:	d103      	bne.n	80083d6 <_printf_common+0xb6>
 80083ce:	f04f 30ff 	mov.w	r0, #4294967295
 80083d2:	e8bd 87f0 	ldmia.w	sp!, {r4, r5, r6, r7, r8, r9, sl, pc}
 80083d6:	3501      	adds	r5, #1
 80083d8:	e7c1      	b.n	800835e <_printf_common+0x3e>
 80083da:	2030      	movs	r0, #48	@ 0x30
 80083dc:	18e1      	adds	r1, r4, r3
 80083de:	f881 0043 	strb.w	r0, [r1, #67]	@ 0x43
 80083e2:	1c5a      	adds	r2, r3, #1
 80083e4:	f894 1045 	ldrb.w	r1, [r4, #69]	@ 0x45
 80083e8:	4422      	add	r2, r4
 80083ea:	3302      	adds	r3, #2
 80083ec:	f882 1043 	strb.w	r1, [r2, #67]	@ 0x43
 80083f0:	e7c2      	b.n	8008378 <_printf_common+0x58>
 80083f2:	2301      	movs	r3, #1
 80083f4:	4622      	mov	r2, r4
 80083f6:	4641      	mov	r1, r8
 80083f8:	4638      	mov	r0, r7
 80083fa:	47c8      	blx	r9
 80083fc:	3001      	adds	r0, #1
 80083fe:	d0e6      	beq.n	80083ce <_printf_common+0xae>
 8008400:	3601      	adds	r6, #1
 8008402:	e7d9      	b.n	80083b8 <_printf_common+0x98>

08008404 <_printf_i>:
 8008404:	e92d 43f0 	stmdb	sp!, {r4, r5, r6, r7, r8, r9, lr}
 8008408:	7e0d      	ldrb	r5, [r1, #24]
 800840a:	b085      	sub	sp, #20
 800840c:	2d78      	cmp	r5, #120	@ 0x78
 800840e:	4690      	mov	r8, r2
 8008410:	4607      	mov	r7, r0
 8008412:	460c      	mov	r4, r1
 8008414:	4699      	mov	r9, r3
 8008416:	9e0c      	ldr	r6, [sp, #48]	@ 0x30
 8008418:	f101 0243 	add.w	r2, r1, #67	@ 0x43
 800841c:	d807      	bhi.n	800842e <_printf_i+0x2a>
 800841e:	2d62      	cmp	r5, #98	@ 0x62
 8008420:	d80a      	bhi.n	8008438 <_printf_i+0x34>
 8008422:	2d00      	cmp	r5, #0
 8008424:	f000 80d7 	beq.w	80085d6 <_printf_i+0x1d2>
 8008428:	2d58      	cmp	r5, #88	@ 0x58
 800842a:	f000 80bc 	beq.w	80085a6 <_printf_i+0x1a2>
 800842e:	f104 0642 	add.w	r6, r4, #66	@ 0x42
 8008432:	f884 5042 	strb.w	r5, [r4, #66]	@ 0x42
 8008436:	e03b      	b.n	80084b0 <_printf_i+0xac>
 8008438:	f1a5 0363 	sub.w	r3, r5, #99	@ 0x63
 800843c:	2b15      	cmp	r3, #21
 800843e:	d8f6      	bhi.n	800842e <_printf_i+0x2a>
 8008440:	a101      	add	r1, pc, #4	@ (adr r1, 8008448 <_printf_i+0x44>)
 8008442:	f851 f023 	ldr.w	pc, [r1, r3, lsl #2]
 8008446:	bf00      	nop
 8008448:	080084a1 	.word	0x080084a1
 800844c:	080084b5 	.word	0x080084b5
 8008450:	0800842f 	.word	0x0800842f
 8008454:	0800842f 	.word	0x0800842f
 8008458:	0800842f 	.word	0x0800842f
 800845c:	0800842f 	.word	0x0800842f
 8008460:	080084b5 	.word	0x080084b5
 8008464:	0800842f 	.word	0x0800842f
 8008468:	0800842f 	.word	0x0800842f
 800846c:	0800842f 	.word	0x0800842f
 8008470:	0800842f 	.word	0x0800842f
 8008474:	080085bd 	.word	0x080085bd
 8008478:	080084df 	.word	0x080084df
 800847c:	0800856f 	.word	0x0800856f
 8008480:	0800842f 	.word	0x0800842f
 8008484:	0800842f 	.word	0x0800842f
 8008488:	080085df 	.word	0x080085df
 800848c:	0800842f 	.word	0x0800842f
 8008490:	080084df 	.word	0x080084df
 8008494:	0800842f 	.word	0x0800842f
 8008498:	0800842f 	.word	0x0800842f
 800849c:	08008577 	.word	0x08008577
 80084a0:	6833      	ldr	r3, [r6, #0]
 80084a2:	1d1a      	adds	r2, r3, #4
 80084a4:	681b      	ldr	r3, [r3, #0]
 80084a6:	6032      	str	r2, [r6, #0]
 80084a8:	f104 0642 	add.w	r6, r4, #66	@ 0x42
 80084ac:	f884 3042 	strb.w	r3, [r4, #66]	@ 0x42
 80084b0:	2301      	movs	r3, #1
 80084b2:	e0a1      	b.n	80085f8 <_printf_i+0x1f4>
 80084b4:	6833      	ldr	r3, [r6, #0]
 80084b6:	6820      	ldr	r0, [r4, #0]
 80084b8:	1d19      	adds	r1, r3, #4
 80084ba:	6031      	str	r1, [r6, #0]
 80084bc:	0606      	lsls	r6, r0, #24
 80084be:	d501      	bpl.n	80084c4 <_printf_i+0xc0>
 80084c0:	681d      	ldr	r5, [r3, #0]
 80084c2:	e003      	b.n	80084cc <_printf_i+0xc8>
 80084c4:	0645      	lsls	r5, r0, #25
 80084c6:	d5fb      	bpl.n	80084c0 <_printf_i+0xbc>
 80084c8:	f9b3 5000 	ldrsh.w	r5, [r3]
 80084cc:	2d00      	cmp	r5, #0
 80084ce:	da03      	bge.n	80084d8 <_printf_i+0xd4>
 80084d0:	232d      	movs	r3, #45	@ 0x2d
 80084d2:	426d      	negs	r5, r5
 80084d4:	f884 3043 	strb.w	r3, [r4, #67]	@ 0x43
 80084d8:	230a      	movs	r3, #10
 80084da:	485b      	ldr	r0, [pc, #364]	@ (8008648 <_printf_i+0x244>)
 80084dc:	e011      	b.n	8008502 <_printf_i+0xfe>
 80084de:	6821      	ldr	r1, [r4, #0]
 80084e0:	6833      	ldr	r3, [r6, #0]
 80084e2:	0608      	lsls	r0, r1, #24
 80084e4:	f853 5b04 	ldr.w	r5, [r3], #4
 80084e8:	d402      	bmi.n	80084f0 <_printf_i+0xec>
 80084ea:	0649      	lsls	r1, r1, #25
 80084ec:	bf48      	it	mi
 80084ee:	b2ad      	uxthmi	r5, r5
 80084f0:	6033      	str	r3, [r6, #0]
 80084f2:	7e23      	ldrb	r3, [r4, #24]
 80084f4:	4854      	ldr	r0, [pc, #336]	@ (8008648 <_printf_i+0x244>)
 80084f6:	2b6f      	cmp	r3, #111	@ 0x6f
 80084f8:	d15c      	bne.n	80085b4 <_printf_i+0x1b0>
 80084fa:	2308      	movs	r3, #8
 80084fc:	2100      	movs	r1, #0
 80084fe:	f884 1043 	strb.w	r1, [r4, #67]	@ 0x43
 8008502:	6866      	ldr	r6, [r4, #4]
 8008504:	2e00      	cmp	r6, #0
 8008506:	60a6      	str	r6, [r4, #8]
 8008508:	db05      	blt.n	8008516 <_printf_i+0x112>
 800850a:	6821      	ldr	r1, [r4, #0]
 800850c:	432e      	orrs	r6, r5
 800850e:	f021 0104 	bic.w	r1, r1, #4
 8008512:	6021      	str	r1, [r4, #0]
 8008514:	d050      	beq.n	80085b8 <_printf_i+0x1b4>
 8008516:	4616      	mov	r6, r2
 8008518:	fbb5 f1f3 	udiv	r1, r5, r3
 800851c:	fb03 5c11 	mls	ip, r3, r1, r5
 8008520:	f810 c00c 	ldrb.w	ip, [r0, ip]
 8008524:	f806 cd01 	strb.w	ip, [r6, #-1]!
 8008528:	46ac      	mov	ip, r5
 800852a:	4563      	cmp	r3, ip
 800852c:	460d      	mov	r5, r1
 800852e:	d9f3      	bls.n	8008518 <_printf_i+0x114>
 8008530:	2b08      	cmp	r3, #8
 8008532:	d10b      	bne.n	800854c <_printf_i+0x148>
 8008534:	6823      	ldr	r3, [r4, #0]
 8008536:	07db      	lsls	r3, r3, #31
 8008538:	d508      	bpl.n	800854c <_printf_i+0x148>
 800853a:	6923      	ldr	r3, [r4, #16]
 800853c:	6861      	ldr	r1, [r4, #4]
 800853e:	4299      	cmp	r1, r3
 8008540:	bfde      	ittt	le
 8008542:	2330      	movle	r3, #48	@ 0x30
 8008544:	f806 3c01 	strble.w	r3, [r6, #-1]
 8008548:	f106 36ff 	addle.w	r6, r6, #4294967295
 800854c:	1b92      	subs	r2, r2, r6
 800854e:	6122      	str	r2, [r4, #16]
 8008550:	4643      	mov	r3, r8
 8008552:	4621      	mov	r1, r4
 8008554:	4638      	mov	r0, r7
 8008556:	f8cd 9000 	str.w	r9, [sp]
 800855a:	aa03      	add	r2, sp, #12
 800855c:	f7ff fee0 	bl	8008320 <_printf_common>
 8008560:	3001      	adds	r0, #1
 8008562:	d14e      	bne.n	8008602 <_printf_i+0x1fe>
 8008564:	f04f 30ff 	mov.w	r0, #4294967295
 8008568:	b005      	add	sp, #20
 800856a:	e8bd 83f0 	ldmia.w	sp!, {r4, r5, r6, r7, r8, r9, pc}
 800856e:	6823      	ldr	r3, [r4, #0]
 8008570:	f043 0320 	orr.w	r3, r3, #32
 8008574:	6023      	str	r3, [r4, #0]
 8008576:	2578      	movs	r5, #120	@ 0x78
 8008578:	4834      	ldr	r0, [pc, #208]	@ (800864c <_printf_i+0x248>)
 800857a:	f884 5045 	strb.w	r5, [r4, #69]	@ 0x45
 800857e:	6823      	ldr	r3, [r4, #0]
 8008580:	6831      	ldr	r1, [r6, #0]
 8008582:	f013 0f80 	tst.w	r3, #128	@ 0x80
 8008586:	f851 5b04 	ldr.w	r5, [r1], #4
 800858a:	d103      	bne.n	8008594 <_printf_i+0x190>
 800858c:	f013 0f40 	tst.w	r3, #64	@ 0x40
 8008590:	bf18      	it	ne
 8008592:	b2ad      	uxthne	r5, r5
 8008594:	6031      	str	r1, [r6, #0]
 8008596:	07d9      	lsls	r1, r3, #31
 8008598:	bf44      	itt	mi
 800859a:	f043 0320 	orrmi.w	r3, r3, #32
 800859e:	6023      	strmi	r3, [r4, #0]
 80085a0:	b11d      	cbz	r5, 80085aa <_printf_i+0x1a6>
 80085a2:	2310      	movs	r3, #16
 80085a4:	e7aa      	b.n	80084fc <_printf_i+0xf8>
 80085a6:	4828      	ldr	r0, [pc, #160]	@ (8008648 <_printf_i+0x244>)
 80085a8:	e7e7      	b.n	800857a <_printf_i+0x176>
 80085aa:	6823      	ldr	r3, [r4, #0]
 80085ac:	f023 0320 	bic.w	r3, r3, #32
 80085b0:	6023      	str	r3, [r4, #0]
 80085b2:	e7f6      	b.n	80085a2 <_printf_i+0x19e>
 80085b4:	230a      	movs	r3, #10
 80085b6:	e7a1      	b.n	80084fc <_printf_i+0xf8>
 80085b8:	4616      	mov	r6, r2
 80085ba:	e7b9      	b.n	8008530 <_printf_i+0x12c>
 80085bc:	6833      	ldr	r3, [r6, #0]
 80085be:	6825      	ldr	r5, [r4, #0]
 80085c0:	1d18      	adds	r0, r3, #4
 80085c2:	6961      	ldr	r1, [r4, #20]
 80085c4:	6030      	str	r0, [r6, #0]
 80085c6:	062e      	lsls	r6, r5, #24
 80085c8:	681b      	ldr	r3, [r3, #0]
 80085ca:	d501      	bpl.n	80085d0 <_printf_i+0x1cc>
 80085cc:	6019      	str	r1, [r3, #0]
 80085ce:	e002      	b.n	80085d6 <_printf_i+0x1d2>
 80085d0:	0668      	lsls	r0, r5, #25
 80085d2:	d5fb      	bpl.n	80085cc <_printf_i+0x1c8>
 80085d4:	8019      	strh	r1, [r3, #0]
 80085d6:	2300      	movs	r3, #0
 80085d8:	4616      	mov	r6, r2
 80085da:	6123      	str	r3, [r4, #16]
 80085dc:	e7b8      	b.n	8008550 <_printf_i+0x14c>
 80085de:	6833      	ldr	r3, [r6, #0]
 80085e0:	2100      	movs	r1, #0
 80085e2:	1d1a      	adds	r2, r3, #4
 80085e4:	6032      	str	r2, [r6, #0]
 80085e6:	681e      	ldr	r6, [r3, #0]
 80085e8:	6862      	ldr	r2, [r4, #4]
 80085ea:	4630      	mov	r0, r6
 80085ec:	f000 f912 	bl	8008814 <memchr>
 80085f0:	b108      	cbz	r0, 80085f6 <_printf_i+0x1f2>
 80085f2:	1b80      	subs	r0, r0, r6
 80085f4:	6060      	str	r0, [r4, #4]
 80085f6:	6863      	ldr	r3, [r4, #4]
 80085f8:	6123      	str	r3, [r4, #16]
 80085fa:	2300      	movs	r3, #0
 80085fc:	f884 3043 	strb.w	r3, [r4, #67]	@ 0x43
 8008600:	e7a6      	b.n	8008550 <_printf_i+0x14c>
 8008602:	4632      	mov	r2, r6
 8008604:	4641      	mov	r1, r8
 8008606:	4638      	mov	r0, r7
 8008608:	6923      	ldr	r3, [r4, #16]
 800860a:	47c8      	blx	r9
 800860c:	3001      	adds	r0, #1
 800860e:	d0a9      	beq.n	8008564 <_printf_i+0x160>
 8008610:	6823      	ldr	r3, [r4, #0]
 8008612:	079b      	lsls	r3, r3, #30
 8008614:	d413      	bmi.n	800863e <_printf_i+0x23a>
 8008616:	68e0      	ldr	r0, [r4, #12]
 8008618:	9b03      	ldr	r3, [sp, #12]
 800861a:	4298      	cmp	r0, r3
 800861c:	bfb8      	it	lt
 800861e:	4618      	movlt	r0, r3
 8008620:	e7a2      	b.n	8008568 <_printf_i+0x164>
 8008622:	2301      	movs	r3, #1
 8008624:	4632      	mov	r2, r6
 8008626:	4641      	mov	r1, r8
 8008628:	4638      	mov	r0, r7
 800862a:	47c8      	blx	r9
 800862c:	3001      	adds	r0, #1
 800862e:	d099      	beq.n	8008564 <_printf_i+0x160>
 8008630:	3501      	adds	r5, #1
 8008632:	68e3      	ldr	r3, [r4, #12]
 8008634:	9903      	ldr	r1, [sp, #12]
 8008636:	1a5b      	subs	r3, r3, r1
 8008638:	42ab      	cmp	r3, r5
 800863a:	dcf2      	bgt.n	8008622 <_printf_i+0x21e>
 800863c:	e7eb      	b.n	8008616 <_printf_i+0x212>
 800863e:	2500      	movs	r5, #0
 8008640:	f104 0619 	add.w	r6, r4, #25
 8008644:	e7f5      	b.n	8008632 <_printf_i+0x22e>
 8008646:	bf00      	nop
 8008648:	08009ecb 	.word	0x08009ecb
 800864c:	08009edc 	.word	0x08009edc

08008650 <__sflush_r>:
 8008650:	f9b1 200c 	ldrsh.w	r2, [r1, #12]
 8008654:	b5f8      	push	{r3, r4, r5, r6, r7, lr}
 8008656:	0716      	lsls	r6, r2, #28
 8008658:	4605      	mov	r5, r0
 800865a:	460c      	mov	r4, r1
 800865c:	d451      	bmi.n	8008702 <__sflush_r+0xb2>
 800865e:	684b      	ldr	r3, [r1, #4]
 8008660:	2b00      	cmp	r3, #0
 8008662:	dc02      	bgt.n	800866a <__sflush_r+0x1a>
 8008664:	6c0b      	ldr	r3, [r1, #64]	@ 0x40
 8008666:	2b00      	cmp	r3, #0
 8008668:	dd49      	ble.n	80086fe <__sflush_r+0xae>
 800866a:	6ae6      	ldr	r6, [r4, #44]	@ 0x2c
 800866c:	2e00      	cmp	r6, #0
 800866e:	d046      	beq.n	80086fe <__sflush_r+0xae>
 8008670:	2300      	movs	r3, #0
 8008672:	f412 5280 	ands.w	r2, r2, #4096	@ 0x1000
 8008676:	682f      	ldr	r7, [r5, #0]
 8008678:	602b      	str	r3, [r5, #0]
 800867a:	d031      	beq.n	80086e0 <__sflush_r+0x90>
 800867c:	6d62      	ldr	r2, [r4, #84]	@ 0x54
 800867e:	89a3      	ldrh	r3, [r4, #12]
 8008680:	0759      	lsls	r1, r3, #29
 8008682:	d505      	bpl.n	8008690 <__sflush_r+0x40>
 8008684:	6863      	ldr	r3, [r4, #4]
 8008686:	1ad2      	subs	r2, r2, r3
 8008688:	6b63      	ldr	r3, [r4, #52]	@ 0x34
 800868a:	b10b      	cbz	r3, 8008690 <__sflush_r+0x40>
 800868c:	6c23      	ldr	r3, [r4, #64]	@ 0x40
 800868e:	1ad2      	subs	r2, r2, r3
 8008690:	2300      	movs	r3, #0
 8008692:	4628      	mov	r0, r5
 8008694:	6ae6      	ldr	r6, [r4, #44]	@ 0x2c
 8008696:	6a21      	ldr	r1, [r4, #32]
 8008698:	47b0      	blx	r6
 800869a:	1c42      	adds	r2, r0, #1
 800869c:	f9b4 300c 	ldrsh.w	r3, [r4, #12]
 80086a0:	d106      	bne.n	80086b0 <__sflush_r+0x60>
 80086a2:	6829      	ldr	r1, [r5, #0]
 80086a4:	291d      	cmp	r1, #29
 80086a6:	d845      	bhi.n	8008734 <__sflush_r+0xe4>
 80086a8:	4a27      	ldr	r2, [pc, #156]	@ (8008748 <__sflush_r+0xf8>)
 80086aa:	40ca      	lsrs	r2, r1
 80086ac:	07d6      	lsls	r6, r2, #31
 80086ae:	d541      	bpl.n	8008734 <__sflush_r+0xe4>
 80086b0:	2200      	movs	r2, #0
 80086b2:	6062      	str	r2, [r4, #4]
 80086b4:	6922      	ldr	r2, [r4, #16]
 80086b6:	04d9      	lsls	r1, r3, #19
 80086b8:	6022      	str	r2, [r4, #0]
 80086ba:	d504      	bpl.n	80086c6 <__sflush_r+0x76>
 80086bc:	1c42      	adds	r2, r0, #1
 80086be:	d101      	bne.n	80086c4 <__sflush_r+0x74>
 80086c0:	682b      	ldr	r3, [r5, #0]
 80086c2:	b903      	cbnz	r3, 80086c6 <__sflush_r+0x76>
 80086c4:	6560      	str	r0, [r4, #84]	@ 0x54
 80086c6:	6b61      	ldr	r1, [r4, #52]	@ 0x34
 80086c8:	602f      	str	r7, [r5, #0]
 80086ca:	b1c1      	cbz	r1, 80086fe <__sflush_r+0xae>
 80086cc:	f104 0344 	add.w	r3, r4, #68	@ 0x44
 80086d0:	4299      	cmp	r1, r3
 80086d2:	d002      	beq.n	80086da <__sflush_r+0x8a>
 80086d4:	4628      	mov	r0, r5
 80086d6:	f7ff fbcd 	bl	8007e74 <_free_r>
 80086da:	2300      	movs	r3, #0
 80086dc:	6363      	str	r3, [r4, #52]	@ 0x34
 80086de:	e00e      	b.n	80086fe <__sflush_r+0xae>
 80086e0:	2301      	movs	r3, #1
 80086e2:	4628      	mov	r0, r5
 80086e4:	6a21      	ldr	r1, [r4, #32]
 80086e6:	47b0      	blx	r6
 80086e8:	4602      	mov	r2, r0
 80086ea:	1c50      	adds	r0, r2, #1
 80086ec:	d1c7      	bne.n	800867e <__sflush_r+0x2e>
 80086ee:	682b      	ldr	r3, [r5, #0]
 80086f0:	2b00      	cmp	r3, #0
 80086f2:	d0c4      	beq.n	800867e <__sflush_r+0x2e>
 80086f4:	2b1d      	cmp	r3, #29
 80086f6:	d001      	beq.n	80086fc <__sflush_r+0xac>
 80086f8:	2b16      	cmp	r3, #22
 80086fa:	d119      	bne.n	8008730 <__sflush_r+0xe0>
 80086fc:	602f      	str	r7, [r5, #0]
 80086fe:	2000      	movs	r0, #0
 8008700:	e01d      	b.n	800873e <__sflush_r+0xee>
 8008702:	690f      	ldr	r7, [r1, #16]
 8008704:	2f00      	cmp	r7, #0
 8008706:	d0fa      	beq.n	80086fe <__sflush_r+0xae>
 8008708:	0793      	lsls	r3, r2, #30
 800870a:	bf18      	it	ne
 800870c:	2300      	movne	r3, #0
 800870e:	680e      	ldr	r6, [r1, #0]
 8008710:	bf08      	it	eq
 8008712:	694b      	ldreq	r3, [r1, #20]
 8008714:	1bf6      	subs	r6, r6, r7
 8008716:	600f      	str	r7, [r1, #0]
 8008718:	608b      	str	r3, [r1, #8]
 800871a:	2e00      	cmp	r6, #0
 800871c:	ddef      	ble.n	80086fe <__sflush_r+0xae>
 800871e:	4633      	mov	r3, r6
 8008720:	463a      	mov	r2, r7
 8008722:	4628      	mov	r0, r5
 8008724:	6a21      	ldr	r1, [r4, #32]
 8008726:	f8d4 c028 	ldr.w	ip, [r4, #40]	@ 0x28
 800872a:	47e0      	blx	ip
 800872c:	2800      	cmp	r0, #0
 800872e:	dc07      	bgt.n	8008740 <__sflush_r+0xf0>
 8008730:	f9b4 300c 	ldrsh.w	r3, [r4, #12]
 8008734:	f04f 30ff 	mov.w	r0, #4294967295
 8008738:	f043 0340 	orr.w	r3, r3, #64	@ 0x40
 800873c:	81a3      	strh	r3, [r4, #12]
 800873e:	bdf8      	pop	{r3, r4, r5, r6, r7, pc}
 8008740:	4407      	add	r7, r0
 8008742:	1a36      	subs	r6, r6, r0
 8008744:	e7e9      	b.n	800871a <__sflush_r+0xca>
 8008746:	bf00      	nop
 8008748:	20400001 	.word	0x20400001

0800874c <_fflush_r>:
 800874c:	b538      	push	{r3, r4, r5, lr}
 800874e:	690b      	ldr	r3, [r1, #16]
 8008750:	4605      	mov	r5, r0
 8008752:	460c      	mov	r4, r1
 8008754:	b913      	cbnz	r3, 800875c <_fflush_r+0x10>
 8008756:	2500      	movs	r5, #0
 8008758:	4628      	mov	r0, r5
 800875a:	bd38      	pop	{r3, r4, r5, pc}
 800875c:	b118      	cbz	r0, 8008766 <_fflush_r+0x1a>
 800875e:	6a03      	ldr	r3, [r0, #32]
 8008760:	b90b      	cbnz	r3, 8008766 <_fflush_r+0x1a>
 8008762:	f7ff f9c3 	bl	8007aec <__sinit>
 8008766:	f9b4 300c 	ldrsh.w	r3, [r4, #12]
 800876a:	2b00      	cmp	r3, #0
 800876c:	d0f3      	beq.n	8008756 <_fflush_r+0xa>
 800876e:	6e62      	ldr	r2, [r4, #100]	@ 0x64
 8008770:	07d0      	lsls	r0, r2, #31
 8008772:	d404      	bmi.n	800877e <_fflush_r+0x32>
 8008774:	0599      	lsls	r1, r3, #22
 8008776:	d402      	bmi.n	800877e <_fflush_r+0x32>
 8008778:	6da0      	ldr	r0, [r4, #88]	@ 0x58
 800877a:	f7ff fb5a 	bl	8007e32 <__retarget_lock_acquire_recursive>
 800877e:	4628      	mov	r0, r5
 8008780:	4621      	mov	r1, r4
 8008782:	f7ff ff65 	bl	8008650 <__sflush_r>
 8008786:	6e63      	ldr	r3, [r4, #100]	@ 0x64
 8008788:	4605      	mov	r5, r0
 800878a:	07da      	lsls	r2, r3, #31
 800878c:	d4e4      	bmi.n	8008758 <_fflush_r+0xc>
 800878e:	89a3      	ldrh	r3, [r4, #12]
 8008790:	059b      	lsls	r3, r3, #22
 8008792:	d4e1      	bmi.n	8008758 <_fflush_r+0xc>
 8008794:	6da0      	ldr	r0, [r4, #88]	@ 0x58
 8008796:	f7ff fb4d 	bl	8007e34 <__retarget_lock_release_recursive>
 800879a:	e7dd      	b.n	8008758 <_fflush_r+0xc>

0800879c <fiprintf>:
 800879c:	b40e      	push	{r1, r2, r3}
 800879e:	b503      	push	{r0, r1, lr}
 80087a0:	4601      	mov	r1, r0
 80087a2:	ab03      	add	r3, sp, #12
 80087a4:	4805      	ldr	r0, [pc, #20]	@ (80087bc <fiprintf+0x20>)
 80087a6:	f853 2b04 	ldr.w	r2, [r3], #4
 80087aa:	6800      	ldr	r0, [r0, #0]
 80087ac:	9301      	str	r3, [sp, #4]
 80087ae:	f000 f8a9 	bl	8008904 <_vfiprintf_r>
 80087b2:	b002      	add	sp, #8
 80087b4:	f85d eb04 	ldr.w	lr, [sp], #4
 80087b8:	b003      	add	sp, #12
 80087ba:	4770      	bx	lr
 80087bc:	200001dc 	.word	0x200001dc

080087c0 <memmove>:
 80087c0:	4288      	cmp	r0, r1
 80087c2:	b510      	push	{r4, lr}
 80087c4:	eb01 0402 	add.w	r4, r1, r2
 80087c8:	d902      	bls.n	80087d0 <memmove+0x10>
 80087ca:	4284      	cmp	r4, r0
 80087cc:	4623      	mov	r3, r4
 80087ce:	d807      	bhi.n	80087e0 <memmove+0x20>
 80087d0:	1e43      	subs	r3, r0, #1
 80087d2:	42a1      	cmp	r1, r4
 80087d4:	d007      	beq.n	80087e6 <memmove+0x26>
 80087d6:	f811 2b01 	ldrb.w	r2, [r1], #1
 80087da:	f803 2f01 	strb.w	r2, [r3, #1]!
 80087de:	e7f8      	b.n	80087d2 <memmove+0x12>
 80087e0:	4402      	add	r2, r0
 80087e2:	4282      	cmp	r2, r0
 80087e4:	d100      	bne.n	80087e8 <memmove+0x28>
 80087e6:	bd10      	pop	{r4, pc}
 80087e8:	f813 1d01 	ldrb.w	r1, [r3, #-1]!
 80087ec:	f802 1d01 	strb.w	r1, [r2, #-1]!
 80087f0:	e7f7      	b.n	80087e2 <memmove+0x22>
	...

080087f4 <_sbrk_r>:
 80087f4:	b538      	push	{r3, r4, r5, lr}
 80087f6:	2300      	movs	r3, #0
 80087f8:	4d05      	ldr	r5, [pc, #20]	@ (8008810 <_sbrk_r+0x1c>)
 80087fa:	4604      	mov	r4, r0
 80087fc:	4608      	mov	r0, r1
 80087fe:	602b      	str	r3, [r5, #0]
 8008800:	f7fa f9ee 	bl	8002be0 <_sbrk>
 8008804:	1c43      	adds	r3, r0, #1
 8008806:	d102      	bne.n	800880e <_sbrk_r+0x1a>
 8008808:	682b      	ldr	r3, [r5, #0]
 800880a:	b103      	cbz	r3, 800880e <_sbrk_r+0x1a>
 800880c:	6023      	str	r3, [r4, #0]
 800880e:	bd38      	pop	{r3, r4, r5, pc}
 8008810:	20001d04 	.word	0x20001d04

08008814 <memchr>:
 8008814:	4603      	mov	r3, r0
 8008816:	b510      	push	{r4, lr}
 8008818:	b2c9      	uxtb	r1, r1
 800881a:	4402      	add	r2, r0
 800881c:	4293      	cmp	r3, r2
 800881e:	4618      	mov	r0, r3
 8008820:	d101      	bne.n	8008826 <memchr+0x12>
 8008822:	2000      	movs	r0, #0
 8008824:	e003      	b.n	800882e <memchr+0x1a>
 8008826:	7804      	ldrb	r4, [r0, #0]
 8008828:	3301      	adds	r3, #1
 800882a:	428c      	cmp	r4, r1
 800882c:	d1f6      	bne.n	800881c <memchr+0x8>
 800882e:	bd10      	pop	{r4, pc}

08008830 <memcpy>:
 8008830:	440a      	add	r2, r1
 8008832:	4291      	cmp	r1, r2
 8008834:	f100 33ff 	add.w	r3, r0, #4294967295
 8008838:	d100      	bne.n	800883c <memcpy+0xc>
 800883a:	4770      	bx	lr
 800883c:	b510      	push	{r4, lr}
 800883e:	f811 4b01 	ldrb.w	r4, [r1], #1
 8008842:	4291      	cmp	r1, r2
 8008844:	f803 4f01 	strb.w	r4, [r3, #1]!
 8008848:	d1f9      	bne.n	800883e <memcpy+0xe>
 800884a:	bd10      	pop	{r4, pc}

0800884c <abort>:
 800884c:	2006      	movs	r0, #6
 800884e:	b508      	push	{r3, lr}
 8008850:	f000 fa26 	bl	8008ca0 <raise>
 8008854:	2001      	movs	r0, #1
 8008856:	f7fa f995 	bl	8002b84 <_exit>

0800885a <_realloc_r>:
 800885a:	e92d 41f0 	stmdb	sp!, {r4, r5, r6, r7, r8, lr}
 800885e:	4607      	mov	r7, r0
 8008860:	4614      	mov	r4, r2
 8008862:	460d      	mov	r5, r1
 8008864:	b921      	cbnz	r1, 8008870 <_realloc_r+0x16>
 8008866:	4611      	mov	r1, r2
 8008868:	e8bd 41f0 	ldmia.w	sp!, {r4, r5, r6, r7, r8, lr}
 800886c:	f7ff bb74 	b.w	8007f58 <_malloc_r>
 8008870:	b92a      	cbnz	r2, 800887e <_realloc_r+0x24>
 8008872:	f7ff faff 	bl	8007e74 <_free_r>
 8008876:	4625      	mov	r5, r4
 8008878:	4628      	mov	r0, r5
 800887a:	e8bd 81f0 	ldmia.w	sp!, {r4, r5, r6, r7, r8, pc}
 800887e:	f000 fa2b 	bl	8008cd8 <_malloc_usable_size_r>
 8008882:	4284      	cmp	r4, r0
 8008884:	4606      	mov	r6, r0
 8008886:	d802      	bhi.n	800888e <_realloc_r+0x34>
 8008888:	ebb4 0f50 	cmp.w	r4, r0, lsr #1
 800888c:	d8f4      	bhi.n	8008878 <_realloc_r+0x1e>
 800888e:	4621      	mov	r1, r4
 8008890:	4638      	mov	r0, r7
 8008892:	f7ff fb61 	bl	8007f58 <_malloc_r>
 8008896:	4680      	mov	r8, r0
 8008898:	b908      	cbnz	r0, 800889e <_realloc_r+0x44>
 800889a:	4645      	mov	r5, r8
 800889c:	e7ec      	b.n	8008878 <_realloc_r+0x1e>
 800889e:	42b4      	cmp	r4, r6
 80088a0:	4622      	mov	r2, r4
 80088a2:	4629      	mov	r1, r5
 80088a4:	bf28      	it	cs
 80088a6:	4632      	movcs	r2, r6
 80088a8:	f7ff ffc2 	bl	8008830 <memcpy>
 80088ac:	4629      	mov	r1, r5
 80088ae:	4638      	mov	r0, r7
 80088b0:	f7ff fae0 	bl	8007e74 <_free_r>
 80088b4:	e7f1      	b.n	800889a <_realloc_r+0x40>

080088b6 <__sfputc_r>:
 80088b6:	6893      	ldr	r3, [r2, #8]
 80088b8:	b410      	push	{r4}
 80088ba:	3b01      	subs	r3, #1
 80088bc:	2b00      	cmp	r3, #0
 80088be:	6093      	str	r3, [r2, #8]
 80088c0:	da07      	bge.n	80088d2 <__sfputc_r+0x1c>
 80088c2:	6994      	ldr	r4, [r2, #24]
 80088c4:	42a3      	cmp	r3, r4
 80088c6:	db01      	blt.n	80088cc <__sfputc_r+0x16>
 80088c8:	290a      	cmp	r1, #10
 80088ca:	d102      	bne.n	80088d2 <__sfputc_r+0x1c>
 80088cc:	bc10      	pop	{r4}
 80088ce:	f000 b92d 	b.w	8008b2c <__swbuf_r>
 80088d2:	6813      	ldr	r3, [r2, #0]
 80088d4:	1c58      	adds	r0, r3, #1
 80088d6:	6010      	str	r0, [r2, #0]
 80088d8:	7019      	strb	r1, [r3, #0]
 80088da:	4608      	mov	r0, r1
 80088dc:	bc10      	pop	{r4}
 80088de:	4770      	bx	lr

080088e0 <__sfputs_r>:
 80088e0:	b5f8      	push	{r3, r4, r5, r6, r7, lr}
 80088e2:	4606      	mov	r6, r0
 80088e4:	460f      	mov	r7, r1
 80088e6:	4614      	mov	r4, r2
 80088e8:	18d5      	adds	r5, r2, r3
 80088ea:	42ac      	cmp	r4, r5
 80088ec:	d101      	bne.n	80088f2 <__sfputs_r+0x12>
 80088ee:	2000      	movs	r0, #0
 80088f0:	e007      	b.n	8008902 <__sfputs_r+0x22>
 80088f2:	463a      	mov	r2, r7
 80088f4:	4630      	mov	r0, r6
 80088f6:	f814 1b01 	ldrb.w	r1, [r4], #1
 80088fa:	f7ff ffdc 	bl	80088b6 <__sfputc_r>
 80088fe:	1c43      	adds	r3, r0, #1
 8008900:	d1f3      	bne.n	80088ea <__sfputs_r+0xa>
 8008902:	bdf8      	pop	{r3, r4, r5, r6, r7, pc}

08008904 <_vfiprintf_r>:
 8008904:	e92d 47f0 	stmdb	sp!, {r4, r5, r6, r7, r8, r9, sl, lr}
 8008908:	460d      	mov	r5, r1
 800890a:	4614      	mov	r4, r2
 800890c:	461f      	mov	r7, r3
 800890e:	4606      	mov	r6, r0
 8008910:	b09c      	sub	sp, #112	@ 0x70
 8008912:	b118      	cbz	r0, 800891c <_vfiprintf_r+0x18>
 8008914:	6a03      	ldr	r3, [r0, #32]
 8008916:	b90b      	cbnz	r3, 800891c <_vfiprintf_r+0x18>
 8008918:	f7ff f8e8 	bl	8007aec <__sinit>
 800891c:	6e6b      	ldr	r3, [r5, #100]	@ 0x64
 800891e:	07d9      	lsls	r1, r3, #31
 8008920:	d405      	bmi.n	800892e <_vfiprintf_r+0x2a>
 8008922:	89ab      	ldrh	r3, [r5, #12]
 8008924:	059a      	lsls	r2, r3, #22
 8008926:	d402      	bmi.n	800892e <_vfiprintf_r+0x2a>
 8008928:	6da8      	ldr	r0, [r5, #88]	@ 0x58
 800892a:	f7ff fa82 	bl	8007e32 <__retarget_lock_acquire_recursive>
 800892e:	89ab      	ldrh	r3, [r5, #12]
 8008930:	071b      	lsls	r3, r3, #28
 8008932:	d501      	bpl.n	8008938 <_vfiprintf_r+0x34>
 8008934:	692b      	ldr	r3, [r5, #16]
 8008936:	b99b      	cbnz	r3, 8008960 <_vfiprintf_r+0x5c>
 8008938:	4629      	mov	r1, r5
 800893a:	4630      	mov	r0, r6
 800893c:	f000 f934 	bl	8008ba8 <__swsetup_r>
 8008940:	b170      	cbz	r0, 8008960 <_vfiprintf_r+0x5c>
 8008942:	6e6b      	ldr	r3, [r5, #100]	@ 0x64
 8008944:	07dc      	lsls	r4, r3, #31
 8008946:	d504      	bpl.n	8008952 <_vfiprintf_r+0x4e>
 8008948:	f04f 30ff 	mov.w	r0, #4294967295
 800894c:	b01c      	add	sp, #112	@ 0x70
 800894e:	e8bd 87f0 	ldmia.w	sp!, {r4, r5, r6, r7, r8, r9, sl, pc}
 8008952:	89ab      	ldrh	r3, [r5, #12]
 8008954:	0598      	lsls	r0, r3, #22
 8008956:	d4f7      	bmi.n	8008948 <_vfiprintf_r+0x44>
 8008958:	6da8      	ldr	r0, [r5, #88]	@ 0x58
 800895a:	f7ff fa6b 	bl	8007e34 <__retarget_lock_release_recursive>
 800895e:	e7f3      	b.n	8008948 <_vfiprintf_r+0x44>
 8008960:	2300      	movs	r3, #0
 8008962:	9309      	str	r3, [sp, #36]	@ 0x24
 8008964:	2320      	movs	r3, #32
 8008966:	f88d 3029 	strb.w	r3, [sp, #41]	@ 0x29
 800896a:	2330      	movs	r3, #48	@ 0x30
 800896c:	f04f 0801 	mov.w	r8, #1
 8008970:	9703      	str	r7, [sp, #12]
 8008972:	4f69      	ldr	r7, [pc, #420]	@ (8008b18 <_vfiprintf_r+0x214>)
 8008974:	f88d 302a 	strb.w	r3, [sp, #42]	@ 0x2a
 8008978:	4623      	mov	r3, r4
 800897a:	4699      	mov	r9, r3
 800897c:	f813 2b01 	ldrb.w	r2, [r3], #1
 8008980:	b10a      	cbz	r2, 8008986 <_vfiprintf_r+0x82>
 8008982:	2a25      	cmp	r2, #37	@ 0x25
 8008984:	d1f9      	bne.n	800897a <_vfiprintf_r+0x76>
 8008986:	ebb9 0a04 	subs.w	sl, r9, r4
 800898a:	d00b      	beq.n	80089a4 <_vfiprintf_r+0xa0>
 800898c:	4653      	mov	r3, sl
 800898e:	4622      	mov	r2, r4
 8008990:	4629      	mov	r1, r5
 8008992:	4630      	mov	r0, r6
 8008994:	f7ff ffa4 	bl	80088e0 <__sfputs_r>
 8008998:	3001      	adds	r0, #1
 800899a:	f000 80a4 	beq.w	8008ae6 <_vfiprintf_r+0x1e2>
 800899e:	9a09      	ldr	r2, [sp, #36]	@ 0x24
 80089a0:	4452      	add	r2, sl
 80089a2:	9209      	str	r2, [sp, #36]	@ 0x24
 80089a4:	f899 3000 	ldrb.w	r3, [r9]
 80089a8:	2b00      	cmp	r3, #0
 80089aa:	f000 809c 	beq.w	8008ae6 <_vfiprintf_r+0x1e2>
 80089ae:	2300      	movs	r3, #0
 80089b0:	f04f 32ff 	mov.w	r2, #4294967295
 80089b4:	e9cd 2305 	strd	r2, r3, [sp, #20]
 80089b8:	f109 0901 	add.w	r9, r9, #1
 80089bc:	9304      	str	r3, [sp, #16]
 80089be:	9307      	str	r3, [sp, #28]
 80089c0:	f88d 3053 	strb.w	r3, [sp, #83]	@ 0x53
 80089c4:	931a      	str	r3, [sp, #104]	@ 0x68
 80089c6:	464c      	mov	r4, r9
 80089c8:	2205      	movs	r2, #5
 80089ca:	f814 1b01 	ldrb.w	r1, [r4], #1
 80089ce:	4852      	ldr	r0, [pc, #328]	@ (8008b18 <_vfiprintf_r+0x214>)
 80089d0:	f7ff ff20 	bl	8008814 <memchr>
 80089d4:	9b04      	ldr	r3, [sp, #16]
 80089d6:	b9d0      	cbnz	r0, 8008a0e <_vfiprintf_r+0x10a>
 80089d8:	06d9      	lsls	r1, r3, #27
 80089da:	bf44      	itt	mi
 80089dc:	2220      	movmi	r2, #32
 80089de:	f88d 2053 	strbmi.w	r2, [sp, #83]	@ 0x53
 80089e2:	071a      	lsls	r2, r3, #28
 80089e4:	bf44      	itt	mi
 80089e6:	222b      	movmi	r2, #43	@ 0x2b
 80089e8:	f88d 2053 	strbmi.w	r2, [sp, #83]	@ 0x53
 80089ec:	f899 2000 	ldrb.w	r2, [r9]
 80089f0:	2a2a      	cmp	r2, #42	@ 0x2a
 80089f2:	d013      	beq.n	8008a1c <_vfiprintf_r+0x118>
 80089f4:	464c      	mov	r4, r9
 80089f6:	2000      	movs	r0, #0
 80089f8:	f04f 0c0a 	mov.w	ip, #10
 80089fc:	9a07      	ldr	r2, [sp, #28]
 80089fe:	4621      	mov	r1, r4
 8008a00:	f811 3b01 	ldrb.w	r3, [r1], #1
 8008a04:	3b30      	subs	r3, #48	@ 0x30
 8008a06:	2b09      	cmp	r3, #9
 8008a08:	d949      	bls.n	8008a9e <_vfiprintf_r+0x19a>
 8008a0a:	b968      	cbnz	r0, 8008a28 <_vfiprintf_r+0x124>
 8008a0c:	e013      	b.n	8008a36 <_vfiprintf_r+0x132>
 8008a0e:	1bc0      	subs	r0, r0, r7
 8008a10:	fa08 f000 	lsl.w	r0, r8, r0
 8008a14:	4318      	orrs	r0, r3
 8008a16:	46a1      	mov	r9, r4
 8008a18:	9004      	str	r0, [sp, #16]
 8008a1a:	e7d4      	b.n	80089c6 <_vfiprintf_r+0xc2>
 8008a1c:	9a03      	ldr	r2, [sp, #12]
 8008a1e:	1d11      	adds	r1, r2, #4
 8008a20:	6812      	ldr	r2, [r2, #0]
 8008a22:	9103      	str	r1, [sp, #12]
 8008a24:	2a00      	cmp	r2, #0
 8008a26:	db01      	blt.n	8008a2c <_vfiprintf_r+0x128>
 8008a28:	9207      	str	r2, [sp, #28]
 8008a2a:	e004      	b.n	8008a36 <_vfiprintf_r+0x132>
 8008a2c:	4252      	negs	r2, r2
 8008a2e:	f043 0302 	orr.w	r3, r3, #2
 8008a32:	9207      	str	r2, [sp, #28]
 8008a34:	9304      	str	r3, [sp, #16]
 8008a36:	7823      	ldrb	r3, [r4, #0]
 8008a38:	2b2e      	cmp	r3, #46	@ 0x2e
 8008a3a:	d10a      	bne.n	8008a52 <_vfiprintf_r+0x14e>
 8008a3c:	7863      	ldrb	r3, [r4, #1]
 8008a3e:	2b2a      	cmp	r3, #42	@ 0x2a
 8008a40:	d132      	bne.n	8008aa8 <_vfiprintf_r+0x1a4>
 8008a42:	9b03      	ldr	r3, [sp, #12]
 8008a44:	3402      	adds	r4, #2
 8008a46:	1d1a      	adds	r2, r3, #4
 8008a48:	681b      	ldr	r3, [r3, #0]
 8008a4a:	9203      	str	r2, [sp, #12]
 8008a4c:	ea43 73e3 	orr.w	r3, r3, r3, asr #31
 8008a50:	9305      	str	r3, [sp, #20]
 8008a52:	f8df 90c8 	ldr.w	r9, [pc, #200]	@ 8008b1c <_vfiprintf_r+0x218>
 8008a56:	2203      	movs	r2, #3
 8008a58:	4648      	mov	r0, r9
 8008a5a:	7821      	ldrb	r1, [r4, #0]
 8008a5c:	f7ff feda 	bl	8008814 <memchr>
 8008a60:	b138      	cbz	r0, 8008a72 <_vfiprintf_r+0x16e>
 8008a62:	2240      	movs	r2, #64	@ 0x40
 8008a64:	9b04      	ldr	r3, [sp, #16]
 8008a66:	eba0 0009 	sub.w	r0, r0, r9
 8008a6a:	4082      	lsls	r2, r0
 8008a6c:	4313      	orrs	r3, r2
 8008a6e:	3401      	adds	r4, #1
 8008a70:	9304      	str	r3, [sp, #16]
 8008a72:	f814 1b01 	ldrb.w	r1, [r4], #1
 8008a76:	2206      	movs	r2, #6
 8008a78:	4829      	ldr	r0, [pc, #164]	@ (8008b20 <_vfiprintf_r+0x21c>)
 8008a7a:	f88d 1028 	strb.w	r1, [sp, #40]	@ 0x28
 8008a7e:	f7ff fec9 	bl	8008814 <memchr>
 8008a82:	2800      	cmp	r0, #0
 8008a84:	d03e      	beq.n	8008b04 <_vfiprintf_r+0x200>
 8008a86:	4827      	ldr	r0, [pc, #156]	@ (8008b24 <_vfiprintf_r+0x220>)
 8008a88:	bb18      	cbnz	r0, 8008ad2 <_vfiprintf_r+0x1ce>
 8008a8a:	9b03      	ldr	r3, [sp, #12]
 8008a8c:	3307      	adds	r3, #7
 8008a8e:	f023 0307 	bic.w	r3, r3, #7
 8008a92:	3308      	adds	r3, #8
 8008a94:	9303      	str	r3, [sp, #12]
 8008a96:	9b09      	ldr	r3, [sp, #36]	@ 0x24
 8008a98:	4403      	add	r3, r0
 8008a9a:	9309      	str	r3, [sp, #36]	@ 0x24
 8008a9c:	e76c      	b.n	8008978 <_vfiprintf_r+0x74>
 8008a9e:	460c      	mov	r4, r1
 8008aa0:	2001      	movs	r0, #1
 8008aa2:	fb0c 3202 	mla	r2, ip, r2, r3
 8008aa6:	e7aa      	b.n	80089fe <_vfiprintf_r+0xfa>
 8008aa8:	2300      	movs	r3, #0
 8008aaa:	f04f 0c0a 	mov.w	ip, #10
 8008aae:	4619      	mov	r1, r3
 8008ab0:	3401      	adds	r4, #1
 8008ab2:	9305      	str	r3, [sp, #20]
 8008ab4:	4620      	mov	r0, r4
 8008ab6:	f810 2b01 	ldrb.w	r2, [r0], #1
 8008aba:	3a30      	subs	r2, #48	@ 0x30
 8008abc:	2a09      	cmp	r2, #9
 8008abe:	d903      	bls.n	8008ac8 <_vfiprintf_r+0x1c4>
 8008ac0:	2b00      	cmp	r3, #0
 8008ac2:	d0c6      	beq.n	8008a52 <_vfiprintf_r+0x14e>
 8008ac4:	9105      	str	r1, [sp, #20]
 8008ac6:	e7c4      	b.n	8008a52 <_vfiprintf_r+0x14e>
 8008ac8:	4604      	mov	r4, r0
 8008aca:	2301      	movs	r3, #1
 8008acc:	fb0c 2101 	mla	r1, ip, r1, r2
 8008ad0:	e7f0      	b.n	8008ab4 <_vfiprintf_r+0x1b0>
 8008ad2:	ab03      	add	r3, sp, #12
 8008ad4:	9300      	str	r3, [sp, #0]
 8008ad6:	462a      	mov	r2, r5
 8008ad8:	4630      	mov	r0, r6
 8008ada:	4b13      	ldr	r3, [pc, #76]	@ (8008b28 <_vfiprintf_r+0x224>)
 8008adc:	a904      	add	r1, sp, #16
 8008ade:	f3af 8000 	nop.w
 8008ae2:	1c43      	adds	r3, r0, #1
 8008ae4:	d1d7      	bne.n	8008a96 <_vfiprintf_r+0x192>
 8008ae6:	6e6b      	ldr	r3, [r5, #100]	@ 0x64
 8008ae8:	07d9      	lsls	r1, r3, #31
 8008aea:	d405      	bmi.n	8008af8 <_vfiprintf_r+0x1f4>
 8008aec:	89ab      	ldrh	r3, [r5, #12]
 8008aee:	059a      	lsls	r2, r3, #22
 8008af0:	d402      	bmi.n	8008af8 <_vfiprintf_r+0x1f4>
 8008af2:	6da8      	ldr	r0, [r5, #88]	@ 0x58
 8008af4:	f7ff f99e 	bl	8007e34 <__retarget_lock_release_recursive>
 8008af8:	89ab      	ldrh	r3, [r5, #12]
 8008afa:	065b      	lsls	r3, r3, #25
 8008afc:	f53f af24 	bmi.w	8008948 <_vfiprintf_r+0x44>
 8008b00:	9809      	ldr	r0, [sp, #36]	@ 0x24
 8008b02:	e723      	b.n	800894c <_vfiprintf_r+0x48>
 8008b04:	ab03      	add	r3, sp, #12
 8008b06:	9300      	str	r3, [sp, #0]
 8008b08:	462a      	mov	r2, r5
 8008b0a:	4630      	mov	r0, r6
 8008b0c:	4b06      	ldr	r3, [pc, #24]	@ (8008b28 <_vfiprintf_r+0x224>)
 8008b0e:	a904      	add	r1, sp, #16
 8008b10:	f7ff fc78 	bl	8008404 <_printf_i>
 8008b14:	e7e5      	b.n	8008ae2 <_vfiprintf_r+0x1de>
 8008b16:	bf00      	nop
 8008b18:	08009eba 	.word	0x08009eba
 8008b1c:	08009ec0 	.word	0x08009ec0
 8008b20:	08009ec4 	.word	0x08009ec4
 8008b24:	00000000 	.word	0x00000000
 8008b28:	080088e1 	.word	0x080088e1

08008b2c <__swbuf_r>:
 8008b2c:	b5f8      	push	{r3, r4, r5, r6, r7, lr}
 8008b2e:	460e      	mov	r6, r1
 8008b30:	4614      	mov	r4, r2
 8008b32:	4605      	mov	r5, r0
 8008b34:	b118      	cbz	r0, 8008b3e <__swbuf_r+0x12>
 8008b36:	6a03      	ldr	r3, [r0, #32]
 8008b38:	b90b      	cbnz	r3, 8008b3e <__swbuf_r+0x12>
 8008b3a:	f7fe ffd7 	bl	8007aec <__sinit>
 8008b3e:	69a3      	ldr	r3, [r4, #24]
 8008b40:	60a3      	str	r3, [r4, #8]
 8008b42:	89a3      	ldrh	r3, [r4, #12]
 8008b44:	071a      	lsls	r2, r3, #28
 8008b46:	d501      	bpl.n	8008b4c <__swbuf_r+0x20>
 8008b48:	6923      	ldr	r3, [r4, #16]
 8008b4a:	b943      	cbnz	r3, 8008b5e <__swbuf_r+0x32>
 8008b4c:	4621      	mov	r1, r4
 8008b4e:	4628      	mov	r0, r5
 8008b50:	f000 f82a 	bl	8008ba8 <__swsetup_r>
 8008b54:	b118      	cbz	r0, 8008b5e <__swbuf_r+0x32>
 8008b56:	f04f 37ff 	mov.w	r7, #4294967295
 8008b5a:	4638      	mov	r0, r7
 8008b5c:	bdf8      	pop	{r3, r4, r5, r6, r7, pc}
 8008b5e:	6823      	ldr	r3, [r4, #0]
 8008b60:	6922      	ldr	r2, [r4, #16]
 8008b62:	b2f6      	uxtb	r6, r6
 8008b64:	1a98      	subs	r0, r3, r2
 8008b66:	6963      	ldr	r3, [r4, #20]
 8008b68:	4637      	mov	r7, r6
 8008b6a:	4283      	cmp	r3, r0
 8008b6c:	dc05      	bgt.n	8008b7a <__swbuf_r+0x4e>
 8008b6e:	4621      	mov	r1, r4
 8008b70:	4628      	mov	r0, r5
 8008b72:	f7ff fdeb 	bl	800874c <_fflush_r>
 8008b76:	2800      	cmp	r0, #0
 8008b78:	d1ed      	bne.n	8008b56 <__swbuf_r+0x2a>
 8008b7a:	68a3      	ldr	r3, [r4, #8]
 8008b7c:	3b01      	subs	r3, #1
 8008b7e:	60a3      	str	r3, [r4, #8]
 8008b80:	6823      	ldr	r3, [r4, #0]
 8008b82:	1c5a      	adds	r2, r3, #1
 8008b84:	6022      	str	r2, [r4, #0]
 8008b86:	701e      	strb	r6, [r3, #0]
 8008b88:	6962      	ldr	r2, [r4, #20]
 8008b8a:	1c43      	adds	r3, r0, #1
 8008b8c:	429a      	cmp	r2, r3
 8008b8e:	d004      	beq.n	8008b9a <__swbuf_r+0x6e>
 8008b90:	89a3      	ldrh	r3, [r4, #12]
 8008b92:	07db      	lsls	r3, r3, #31
 8008b94:	d5e1      	bpl.n	8008b5a <__swbuf_r+0x2e>
 8008b96:	2e0a      	cmp	r6, #10
 8008b98:	d1df      	bne.n	8008b5a <__swbuf_r+0x2e>
 8008b9a:	4621      	mov	r1, r4
 8008b9c:	4628      	mov	r0, r5
 8008b9e:	f7ff fdd5 	bl	800874c <_fflush_r>
 8008ba2:	2800      	cmp	r0, #0
 8008ba4:	d0d9      	beq.n	8008b5a <__swbuf_r+0x2e>
 8008ba6:	e7d6      	b.n	8008b56 <__swbuf_r+0x2a>

08008ba8 <__swsetup_r>:
 8008ba8:	b538      	push	{r3, r4, r5, lr}
 8008baa:	4b28      	ldr	r3, [pc, #160]	@ (8008c4c <__swsetup_r+0xa4>)
 8008bac:	4605      	mov	r5, r0
 8008bae:	6818      	ldr	r0, [r3, #0]
 8008bb0:	460c      	mov	r4, r1
 8008bb2:	b118      	cbz	r0, 8008bbc <__swsetup_r+0x14>
 8008bb4:	6a03      	ldr	r3, [r0, #32]
 8008bb6:	b90b      	cbnz	r3, 8008bbc <__swsetup_r+0x14>
 8008bb8:	f7fe ff98 	bl	8007aec <__sinit>
 8008bbc:	f9b4 300c 	ldrsh.w	r3, [r4, #12]
 8008bc0:	071a      	lsls	r2, r3, #28
 8008bc2:	d421      	bmi.n	8008c08 <__swsetup_r+0x60>
 8008bc4:	06d8      	lsls	r0, r3, #27
 8008bc6:	d407      	bmi.n	8008bd8 <__swsetup_r+0x30>
 8008bc8:	2209      	movs	r2, #9
 8008bca:	602a      	str	r2, [r5, #0]
 8008bcc:	f043 0340 	orr.w	r3, r3, #64	@ 0x40
 8008bd0:	f04f 30ff 	mov.w	r0, #4294967295
 8008bd4:	81a3      	strh	r3, [r4, #12]
 8008bd6:	e030      	b.n	8008c3a <__swsetup_r+0x92>
 8008bd8:	0759      	lsls	r1, r3, #29
 8008bda:	d512      	bpl.n	8008c02 <__swsetup_r+0x5a>
 8008bdc:	6b61      	ldr	r1, [r4, #52]	@ 0x34
 8008bde:	b141      	cbz	r1, 8008bf2 <__swsetup_r+0x4a>
 8008be0:	f104 0344 	add.w	r3, r4, #68	@ 0x44
 8008be4:	4299      	cmp	r1, r3
 8008be6:	d002      	beq.n	8008bee <__swsetup_r+0x46>
 8008be8:	4628      	mov	r0, r5
 8008bea:	f7ff f943 	bl	8007e74 <_free_r>
 8008bee:	2300      	movs	r3, #0
 8008bf0:	6363      	str	r3, [r4, #52]	@ 0x34
 8008bf2:	2200      	movs	r2, #0
 8008bf4:	f9b4 300c 	ldrsh.w	r3, [r4, #12]
 8008bf8:	6062      	str	r2, [r4, #4]
 8008bfa:	6922      	ldr	r2, [r4, #16]
 8008bfc:	f023 0324 	bic.w	r3, r3, #36	@ 0x24
 8008c00:	6022      	str	r2, [r4, #0]
 8008c02:	f043 0308 	orr.w	r3, r3, #8
 8008c06:	81a3      	strh	r3, [r4, #12]
 8008c08:	6922      	ldr	r2, [r4, #16]
 8008c0a:	b93a      	cbnz	r2, 8008c1c <__swsetup_r+0x74>
 8008c0c:	059a      	lsls	r2, r3, #22
 8008c0e:	d501      	bpl.n	8008c14 <__swsetup_r+0x6c>
 8008c10:	0618      	lsls	r0, r3, #24
 8008c12:	d503      	bpl.n	8008c1c <__swsetup_r+0x74>
 8008c14:	4621      	mov	r1, r4
 8008c16:	4628      	mov	r0, r5
 8008c18:	f000 f88a 	bl	8008d30 <__smakebuf_r>
 8008c1c:	f9b4 300c 	ldrsh.w	r3, [r4, #12]
 8008c20:	f013 0201 	ands.w	r2, r3, #1
 8008c24:	d00a      	beq.n	8008c3c <__swsetup_r+0x94>
 8008c26:	2200      	movs	r2, #0
 8008c28:	60a2      	str	r2, [r4, #8]
 8008c2a:	6962      	ldr	r2, [r4, #20]
 8008c2c:	4252      	negs	r2, r2
 8008c2e:	61a2      	str	r2, [r4, #24]
 8008c30:	6922      	ldr	r2, [r4, #16]
 8008c32:	b942      	cbnz	r2, 8008c46 <__swsetup_r+0x9e>
 8008c34:	f013 0080 	ands.w	r0, r3, #128	@ 0x80
 8008c38:	d1c8      	bne.n	8008bcc <__swsetup_r+0x24>
 8008c3a:	bd38      	pop	{r3, r4, r5, pc}
 8008c3c:	0799      	lsls	r1, r3, #30
 8008c3e:	bf58      	it	pl
 8008c40:	6962      	ldrpl	r2, [r4, #20]
 8008c42:	60a2      	str	r2, [r4, #8]
 8008c44:	e7f4      	b.n	8008c30 <__swsetup_r+0x88>
 8008c46:	2000      	movs	r0, #0
 8008c48:	e7f7      	b.n	8008c3a <__swsetup_r+0x92>
 8008c4a:	bf00      	nop
 8008c4c:	200001dc 	.word	0x200001dc

08008c50 <_raise_r>:
 8008c50:	291f      	cmp	r1, #31
 8008c52:	b538      	push	{r3, r4, r5, lr}
 8008c54:	4605      	mov	r5, r0
 8008c56:	460c      	mov	r4, r1
 8008c58:	d904      	bls.n	8008c64 <_raise_r+0x14>
 8008c5a:	2316      	movs	r3, #22
 8008c5c:	6003      	str	r3, [r0, #0]
 8008c5e:	f04f 30ff 	mov.w	r0, #4294967295
 8008c62:	bd38      	pop	{r3, r4, r5, pc}
 8008c64:	6bc2      	ldr	r2, [r0, #60]	@ 0x3c
 8008c66:	b112      	cbz	r2, 8008c6e <_raise_r+0x1e>
 8008c68:	f852 3021 	ldr.w	r3, [r2, r1, lsl #2]
 8008c6c:	b94b      	cbnz	r3, 8008c82 <_raise_r+0x32>
 8008c6e:	4628      	mov	r0, r5
 8008c70:	f000 f830 	bl	8008cd4 <_getpid_r>
 8008c74:	4622      	mov	r2, r4
 8008c76:	4601      	mov	r1, r0
 8008c78:	4628      	mov	r0, r5
 8008c7a:	e8bd 4038 	ldmia.w	sp!, {r3, r4, r5, lr}
 8008c7e:	f000 b817 	b.w	8008cb0 <_kill_r>
 8008c82:	2b01      	cmp	r3, #1
 8008c84:	d00a      	beq.n	8008c9c <_raise_r+0x4c>
 8008c86:	1c59      	adds	r1, r3, #1
 8008c88:	d103      	bne.n	8008c92 <_raise_r+0x42>
 8008c8a:	2316      	movs	r3, #22
 8008c8c:	6003      	str	r3, [r0, #0]
 8008c8e:	2001      	movs	r0, #1
 8008c90:	e7e7      	b.n	8008c62 <_raise_r+0x12>
 8008c92:	2100      	movs	r1, #0
 8008c94:	4620      	mov	r0, r4
 8008c96:	f842 1024 	str.w	r1, [r2, r4, lsl #2]
 8008c9a:	4798      	blx	r3
 8008c9c:	2000      	movs	r0, #0
 8008c9e:	e7e0      	b.n	8008c62 <_raise_r+0x12>

08008ca0 <raise>:
 8008ca0:	4b02      	ldr	r3, [pc, #8]	@ (8008cac <raise+0xc>)
 8008ca2:	4601      	mov	r1, r0
 8008ca4:	6818      	ldr	r0, [r3, #0]
 8008ca6:	f7ff bfd3 	b.w	8008c50 <_raise_r>
 8008caa:	bf00      	nop
 8008cac:	200001dc 	.word	0x200001dc

08008cb0 <_kill_r>:
 8008cb0:	b538      	push	{r3, r4, r5, lr}
 8008cb2:	2300      	movs	r3, #0
 8008cb4:	4d06      	ldr	r5, [pc, #24]	@ (8008cd0 <_kill_r+0x20>)
 8008cb6:	4604      	mov	r4, r0
 8008cb8:	4608      	mov	r0, r1
 8008cba:	4611      	mov	r1, r2
 8008cbc:	602b      	str	r3, [r5, #0]
 8008cbe:	f7f9 ff59 	bl	8002b74 <_kill>
 8008cc2:	1c43      	adds	r3, r0, #1
 8008cc4:	d102      	bne.n	8008ccc <_kill_r+0x1c>
 8008cc6:	682b      	ldr	r3, [r5, #0]
 8008cc8:	b103      	cbz	r3, 8008ccc <_kill_r+0x1c>
 8008cca:	6023      	str	r3, [r4, #0]
 8008ccc:	bd38      	pop	{r3, r4, r5, pc}
 8008cce:	bf00      	nop
 8008cd0:	20001d04 	.word	0x20001d04

08008cd4 <_getpid_r>:
 8008cd4:	f7f9 bf4c 	b.w	8002b70 <_getpid>

08008cd8 <_malloc_usable_size_r>:
 8008cd8:	f851 3c04 	ldr.w	r3, [r1, #-4]
 8008cdc:	1f18      	subs	r0, r3, #4
 8008cde:	2b00      	cmp	r3, #0
 8008ce0:	bfbc      	itt	lt
 8008ce2:	580b      	ldrlt	r3, [r1, r0]
 8008ce4:	18c0      	addlt	r0, r0, r3
 8008ce6:	4770      	bx	lr

08008ce8 <__swhatbuf_r>:
 8008ce8:	b570      	push	{r4, r5, r6, lr}
 8008cea:	460c      	mov	r4, r1
 8008cec:	f9b1 100e 	ldrsh.w	r1, [r1, #14]
 8008cf0:	4615      	mov	r5, r2
 8008cf2:	2900      	cmp	r1, #0
 8008cf4:	461e      	mov	r6, r3
 8008cf6:	b096      	sub	sp, #88	@ 0x58
 8008cf8:	da0a      	bge.n	8008d10 <__swhatbuf_r+0x28>
 8008cfa:	89a1      	ldrh	r1, [r4, #12]
 8008cfc:	f011 0180 	ands.w	r1, r1, #128	@ 0x80
 8008d00:	d113      	bne.n	8008d2a <__swhatbuf_r+0x42>
 8008d02:	f44f 6280 	mov.w	r2, #1024	@ 0x400
 8008d06:	2000      	movs	r0, #0
 8008d08:	6031      	str	r1, [r6, #0]
 8008d0a:	602a      	str	r2, [r5, #0]
 8008d0c:	b016      	add	sp, #88	@ 0x58
 8008d0e:	bd70      	pop	{r4, r5, r6, pc}
 8008d10:	466a      	mov	r2, sp
 8008d12:	f000 f847 	bl	8008da4 <_fstat_r>
 8008d16:	2800      	cmp	r0, #0
 8008d18:	dbef      	blt.n	8008cfa <__swhatbuf_r+0x12>
 8008d1a:	9901      	ldr	r1, [sp, #4]
 8008d1c:	f401 4170 	and.w	r1, r1, #61440	@ 0xf000
 8008d20:	f5a1 5300 	sub.w	r3, r1, #8192	@ 0x2000
 8008d24:	4259      	negs	r1, r3
 8008d26:	4159      	adcs	r1, r3
 8008d28:	e7eb      	b.n	8008d02 <__swhatbuf_r+0x1a>
 8008d2a:	2100      	movs	r1, #0
 8008d2c:	2240      	movs	r2, #64	@ 0x40
 8008d2e:	e7ea      	b.n	8008d06 <__swhatbuf_r+0x1e>

08008d30 <__smakebuf_r>:
 8008d30:	898b      	ldrh	r3, [r1, #12]
 8008d32:	b573      	push	{r0, r1, r4, r5, r6, lr}
 8008d34:	079e      	lsls	r6, r3, #30
 8008d36:	4605      	mov	r5, r0
 8008d38:	460c      	mov	r4, r1
 8008d3a:	d507      	bpl.n	8008d4c <__smakebuf_r+0x1c>
 8008d3c:	f104 0347 	add.w	r3, r4, #71	@ 0x47
 8008d40:	6023      	str	r3, [r4, #0]
 8008d42:	6123      	str	r3, [r4, #16]
 8008d44:	2301      	movs	r3, #1
 8008d46:	6163      	str	r3, [r4, #20]
 8008d48:	b002      	add	sp, #8
 8008d4a:	bd70      	pop	{r4, r5, r6, pc}
 8008d4c:	ab01      	add	r3, sp, #4
 8008d4e:	466a      	mov	r2, sp
 8008d50:	f7ff ffca 	bl	8008ce8 <__swhatbuf_r>
 8008d54:	9e00      	ldr	r6, [sp, #0]
 8008d56:	4628      	mov	r0, r5
 8008d58:	4631      	mov	r1, r6
 8008d5a:	f7ff f8fd 	bl	8007f58 <_malloc_r>
 8008d5e:	f9b4 300c 	ldrsh.w	r3, [r4, #12]
 8008d62:	b938      	cbnz	r0, 8008d74 <__smakebuf_r+0x44>
 8008d64:	059a      	lsls	r2, r3, #22
 8008d66:	d4ef      	bmi.n	8008d48 <__smakebuf_r+0x18>
 8008d68:	f023 0303 	bic.w	r3, r3, #3
 8008d6c:	f043 0302 	orr.w	r3, r3, #2
 8008d70:	81a3      	strh	r3, [r4, #12]
 8008d72:	e7e3      	b.n	8008d3c <__smakebuf_r+0xc>
 8008d74:	f043 0380 	orr.w	r3, r3, #128	@ 0x80
 8008d78:	81a3      	strh	r3, [r4, #12]
 8008d7a:	9b01      	ldr	r3, [sp, #4]
 8008d7c:	e9c4 0604 	strd	r0, r6, [r4, #16]
 8008d80:	6020      	str	r0, [r4, #0]
 8008d82:	2b00      	cmp	r3, #0
 8008d84:	d0e0      	beq.n	8008d48 <__smakebuf_r+0x18>
 8008d86:	4628      	mov	r0, r5
 8008d88:	f9b4 100e 	ldrsh.w	r1, [r4, #14]
 8008d8c:	f000 f81c 	bl	8008dc8 <_isatty_r>
 8008d90:	2800      	cmp	r0, #0
 8008d92:	d0d9      	beq.n	8008d48 <__smakebuf_r+0x18>
 8008d94:	89a3      	ldrh	r3, [r4, #12]
 8008d96:	f023 0303 	bic.w	r3, r3, #3
 8008d9a:	f043 0301 	orr.w	r3, r3, #1
 8008d9e:	81a3      	strh	r3, [r4, #12]
 8008da0:	e7d2      	b.n	8008d48 <__smakebuf_r+0x18>
	...

08008da4 <_fstat_r>:
 8008da4:	b538      	push	{r3, r4, r5, lr}
 8008da6:	2300      	movs	r3, #0
 8008da8:	4d06      	ldr	r5, [pc, #24]	@ (8008dc4 <_fstat_r+0x20>)
 8008daa:	4604      	mov	r4, r0
 8008dac:	4608      	mov	r0, r1
 8008dae:	4611      	mov	r1, r2
 8008db0:	602b      	str	r3, [r5, #0]
 8008db2:	f7f9 ff0c 	bl	8002bce <_fstat>
 8008db6:	1c43      	adds	r3, r0, #1
 8008db8:	d102      	bne.n	8008dc0 <_fstat_r+0x1c>
 8008dba:	682b      	ldr	r3, [r5, #0]
 8008dbc:	b103      	cbz	r3, 8008dc0 <_fstat_r+0x1c>
 8008dbe:	6023      	str	r3, [r4, #0]
 8008dc0:	bd38      	pop	{r3, r4, r5, pc}
 8008dc2:	bf00      	nop
 8008dc4:	20001d04 	.word	0x20001d04

08008dc8 <_isatty_r>:
 8008dc8:	b538      	push	{r3, r4, r5, lr}
 8008dca:	2300      	movs	r3, #0
 8008dcc:	4d05      	ldr	r5, [pc, #20]	@ (8008de4 <_isatty_r+0x1c>)
 8008dce:	4604      	mov	r4, r0
 8008dd0:	4608      	mov	r0, r1
 8008dd2:	602b      	str	r3, [r5, #0]
 8008dd4:	f7f9 ff00 	bl	8002bd8 <_isatty>
 8008dd8:	1c43      	adds	r3, r0, #1
 8008dda:	d102      	bne.n	8008de2 <_isatty_r+0x1a>
 8008ddc:	682b      	ldr	r3, [r5, #0]
 8008dde:	b103      	cbz	r3, 8008de2 <_isatty_r+0x1a>
 8008de0:	6023      	str	r3, [r4, #0]
 8008de2:	bd38      	pop	{r3, r4, r5, pc}
 8008de4:	20001d04 	.word	0x20001d04

08008de8 <_init>:
 8008de8:	b5f8      	push	{r3, r4, r5, r6, r7, lr}
 8008dea:	bf00      	nop
 8008dec:	bcf8      	pop	{r3, r4, r5, r6, r7}
 8008dee:	bc08      	pop	{r3}
 8008df0:	469e      	mov	lr, r3
 8008df2:	4770      	bx	lr

08008df4 <_fini>:
 8008df4:	b5f8      	push	{r3, r4, r5, r6, r7, lr}
 8008df6:	bf00      	nop
 8008df8:	bcf8      	pop	{r3, r4, r5, r6, r7}
 8008dfa:	bc08      	pop	{r3}
 8008dfc:	469e      	mov	lr, r3
 8008dfe:	4770      	bx	lr
